 HideDragon

 Timestamp is 4d898ec2 (Wed Mar 23 14:10:10 2011)

 Preferred load address is 00400000

 Start         Length     Name                   Class
 0001:00000000 0008ca66H .text                   CODE
 0001:0008ca70 00003786H .text$x                 CODE
 0001:00090200 00000d13H .text$yc                CODE
 0001:00090f20 00000751H .text$yd                CODE
 0002:00000000 00000890H .idata$5                DATA
 0002:00000890 00000004H .CRT$XCA                DATA
 0002:00000894 00000004H .CRT$XCAA               DATA
 0002:00000898 0000000cH .CRT$XCC                DATA
 0002:000008a4 00000070H .CRT$XCL                DATA
 0002:00000914 00000078H .CRT$XCU                DATA
 0002:0000098c 00000004H .CRT$XCZ                DATA
 0002:00000990 00000004H .CRT$XIA                DATA
 0002:00000994 00000004H .CRT$XIAA               DATA
 0002:00000998 00000004H .CRT$XIC                DATA
 0002:0000099c 00000004H .CRT$XIY                DATA
 0002:000009a0 00000004H .CRT$XIZ                DATA
 0002:000009b0 000150b8H .rdata                  DATA
 0002:00015a68 00000060H .rdata$debug            DATA
 0002:00015ac8 00000698H .rdata$r                DATA
 0002:00016160 000003a0H .rdata$sxdata           DATA
 0002:00016500 00000004H .rtc$IAA                DATA
 0002:00016504 00000030H .rtc$IMZ                DATA
 0002:00016534 00000004H .rtc$IZZ                DATA
 0002:00016538 00000004H .rtc$TAA                DATA
 0002:0001653c 00000030H .rtc$TMZ                DATA
 0002:0001656c 00000004H .rtc$TZZ                DATA
 0002:00016570 00004114H .xdata$x                DATA
 0002:0001a684 00000004H ATL$__a                 DATA
 0002:0001a688 00000004H ATL$__z                 DATA
 0002:0001a68c 0000017cH .idata$2                DATA
 0002:0001a808 00000014H .idata$3                DATA
 0002:0001a81c 00000890H .idata$4                DATA
 0002:0001b0ac 000023eeH .idata$6                DATA
 0002:0001d49a 00000000H .edata                  DATA
 0003:00000000 00000700H .data                   DATA
 0003:00000700 00012c58H .bss                    DATA
 0004:00000000 00000008H ForOnlyOne              DATA
 0005:00000000 00002a70H .rsrc$01                DATA
 0005:00002a70 001bd270H .rsrc$02                DATA

  Address         Publics by Value              Rva+Base       Lib:Object

 0000:00000000       __except_list              00000000     <absolute>
 0000:000000e8       ___safe_se_handler_count   000000e8     <absolute>
 0000:00009876       __fltused                  00009876     <absolute>
 0000:00009876       __ldused                   00009876     <absolute>
 0000:00000000       ___ImageBase               00400000     <linker-defined>
 0001:00000000       ??0CClearDlg@@QAE@XZ       00401000 f   ClearDlg.obj
 0001:00000030       ??1CClearDlg@@QAE@XZ       00401030 f   ClearDlg.obj
 0001:00000060       ?ThreadDlgProc@CClearDlg@@SGJPAUHWND__@@IIJ@Z 00401060 f   ClearDlg.obj
 0001:000001e0       ?MainDlgProc@CClearDlg@@SGJPAUHWND__@@IIJ@Z 004011e0 f   ClearDlg.obj
 0001:000016c0       ?InitMainDlg@CClearDlg@@SAXPAUHWND__@@@Z 004026c0 f   ClearDlg.obj
 0001:000025d0       ?IsInCheckedArray@@YAHH@Z  004035d0 f   ClearDlg.obj
 0001:00002640       ?NotSearchIP@CClearDlg@@SAHXZ 00403640 f   ClearDlg.obj
 0001:00002700       ?DoWork@CClearDlg@@SGKPAX@Z 00403700 f   ClearDlg.obj
 0001:00005ca0       ?EmptyDirectory@CClearDlg@@SAXPB_W@Z 00406ca0 f   ClearDlg.obj
 0001:00006020       ?IsWindows2k@CClearDlg@@SAHXZ 00407020 f   ClearDlg.obj
 0001:00006120       ?IsWindowsNT@CClearDlg@@SAHXZ 00407120 f   ClearDlg.obj
 0001:00006220       ?ClearForm@CClearDlg@@SAXXZ 00407220 f   ClearDlg.obj
 0001:00006620       ?CreateNewSD@CClearDlg@@SAHPAXPAU_SECURITY_DESCRIPTOR@@PAPAU_ACL@@@Z 00407620 f   ClearDlg.obj
 0001:000069d0       ?GetOldSD@CClearDlg@@SAHPAUHKEY__@@PB_WPAPAE@Z 004079d0 f   ClearDlg.obj
 0001:00006b60       ?GetUserSid@CClearDlg@@SAHPAPAX@Z 00407b60 f   ClearDlg.obj
 0001:00006d90       ?GetSidString@CClearDlg@@SAXPAXPA_W@Z 00407d90 f   ClearDlg.obj
 0001:00006ee0       ?swprintf@@YAHPA_WPB_WZZ   00407ee0 f i ClearDlg.obj
 0001:00006f50       ?RegSetPrivilege@CClearDlg@@SAHPAUHKEY__@@PB_WPAU_SECURITY_DESCRIPTOR@@H@Z 00407f50 f   ClearDlg.obj
 0001:00007220       ?EmptyRegKey@CClearDlg@@SAXPAUHKEY__@@PB_W1@Z 00408220 f   ClearDlg.obj
 0001:00007370       ?DeleteRegValue@CClearDlg@@SAXPAUHKEY__@@PB_W1@Z 00408370 f   ClearDlg.obj
 0001:00007420       ?GetTreeItemText@CClearDlg@@SAXPAUHWND__@@PA_WHPAU_TREEITEM@@@Z 00408420 f   ClearDlg.obj
 0001:00007500       ?DeleteSpecifyedLnkInOneDir@CClearDlg@@SAXPB_W0@Z 00408500 f   ClearDlg.obj
 0001:00007890       ?Create@CClearDlg@@QAEXPAUHWND__@@PAUHINSTANCE__@@@Z 00408890 f   ClearDlg.obj
 0001:00007920       ??0CppSQLite3Exception@@QAE@HPAD_N@Z 00408920 f   CppSQLite3.obj
 0001:000079d0       ??_GCppSQLite3Exception@@UAEPAXI@Z 004089d0 f i CppSQLite3.obj
 0001:000079d0       ??_ECppSQLite3Exception@@UAEPAXI@Z 004089d0 f i CppSQLite3.obj
 0001:00007a30       ??0CppSQLite3Exception@@QAE@ABV0@@Z 00408a30 f   CppSQLite3.obj
 0001:00007ab0       ?errorCodeAsString@CppSQLite3Exception@@SAPBDH@Z 00408ab0 f   CppSQLite3.obj
 0001:00007cf0       ??1CppSQLite3Exception@@UAE@XZ 00408cf0 f   CppSQLite3.obj
 0001:00007d60       ??0CppSQLite3Buffer@@QAE@XZ 00408d60 f   CppSQLite3.obj
 0001:00007da0       ??1CppSQLite3Buffer@@QAE@XZ 00408da0 f   CppSQLite3.obj
 0001:00007de0       ?clear@CppSQLite3Buffer@@QAEXXZ 00408de0 f   CppSQLite3.obj
 0001:00007e40       ?format@CppSQLite3Buffer@@QAAPBDPBDZZ 00408e40 f   CppSQLite3.obj
 0001:00007eb0       ??0CppSQLite3Binary@@QAE@XZ 00408eb0 f   CppSQLite3.obj
 0001:00007f10       ??1CppSQLite3Binary@@QAE@XZ 00408f10 f   CppSQLite3.obj
 0001:00007f50       ?setBinary@CppSQLite3Binary@@QAEXPBEH@Z 00408f50 f   CppSQLite3.obj
 0001:00007fb0       ?setEncoded@CppSQLite3Binary@@QAEXPBE@Z 00408fb0 f   CppSQLite3.obj
 0001:00008080       ?getEncoded@CppSQLite3Binary@@QAEPBEXZ 00409080 f   CppSQLite3.obj
 0001:00008140       ?getBinary@CppSQLite3Binary@@QAEPBEXZ 00409140 f   CppSQLite3.obj
 0001:000081e0       ?getBinaryLength@CppSQLite3Binary@@QAEHXZ 004091e0 f   CppSQLite3.obj
 0001:00008230       ?allocBuffer@CppSQLite3Binary@@QAEPAEH@Z 00409230 f   CppSQLite3.obj
 0001:000082f0       ?clear@CppSQLite3Binary@@QAEXXZ 004092f0 f   CppSQLite3.obj
 0001:00008370       ??0CppSQLite3Query@@QAE@XZ 00409370 f   CppSQLite3.obj
 0001:000083d0       ??_ECppSQLite3Query@@UAEPAXI@Z 004093d0 f i CppSQLite3.obj
 0001:000083d0       ??_GCppSQLite3Query@@UAEPAXI@Z 004093d0 f i CppSQLite3.obj
 0001:00008430       ??0CppSQLite3Query@@QAE@ABV0@@Z 00409430 f   CppSQLite3.obj
 0001:000084b0       ??0CppSQLite3Query@@QAE@PAUsqlite3@@PAUsqlite3_stmt@@_N2@Z 004094b0 f   CppSQLite3.obj
 0001:00008530       ??1CppSQLite3Query@@UAE@XZ 00409530 f   CppSQLite3.obj
 0001:000085d0       ??4CppSQLite3Query@@QAEAAV0@ABV0@@Z 004095d0 f   CppSQLite3.obj
 0001:000086a0       ?numFields@CppSQLite3Query@@QAEHXZ 004096a0 f   CppSQLite3.obj
 0001:000086f0       ?fieldValue@CppSQLite3Query@@QAEPBDH@Z 004096f0 f   CppSQLite3.obj
 0001:00008780       ?fieldValue@CppSQLite3Query@@QAEPBDPBD@Z 00409780 f   CppSQLite3.obj
 0001:000087e0       ?getIntField@CppSQLite3Query@@QAEHHH@Z 004097e0 f   CppSQLite3.obj
 0001:00008850       ?getIntField@CppSQLite3Query@@QAEHPBDH@Z 00409850 f   CppSQLite3.obj
 0001:000088b0       ?getFloatField@CppSQLite3Query@@QAENHN@Z 004098b0 f   CppSQLite3.obj
 0001:00008920       ?getFloatField@CppSQLite3Query@@QAENPBDN@Z 00409920 f   CppSQLite3.obj
 0001:00008980       ?getStringField@CppSQLite3Query@@QAEPBDHPBD@Z 00409980 f   CppSQLite3.obj
 0001:000089f0       ?getStringField@CppSQLite3Query@@QAEPBDPBD0@Z 004099f0 f   CppSQLite3.obj
 0001:00008a50       ?getBlobField@CppSQLite3Query@@QAEPBEHAAH@Z 00409a50 f   CppSQLite3.obj
 0001:00008b00       ?getBlobField@CppSQLite3Query@@QAEPBEPBDAAH@Z 00409b00 f   CppSQLite3.obj
 0001:00008b60       ?fieldIsNull@CppSQLite3Query@@QAE_NH@Z 00409b60 f   CppSQLite3.obj
 0001:00008bb0       ?fieldIsNull@CppSQLite3Query@@QAE_NPBD@Z 00409bb0 f   CppSQLite3.obj
 0001:00008c10       ?fieldIndex@CppSQLite3Query@@QAEHPBD@Z 00409c10 f   CppSQLite3.obj
 0001:00008cd0       ?fieldName@CppSQLite3Query@@QAEPBDH@Z 00409cd0 f   CppSQLite3.obj
 0001:00008d60       ?fieldDeclType@CppSQLite3Query@@QAEPBDH@Z 00409d60 f   CppSQLite3.obj
 0001:00008df0       ?fieldDataType@CppSQLite3Query@@QAEHH@Z 00409df0 f   CppSQLite3.obj
 0001:00008e80       ?eof@CppSQLite3Query@@QAE_NXZ 00409e80 f   CppSQLite3.obj
 0001:00008ed0       ?nextRow@CppSQLite3Query@@QAEXXZ 00409ed0 f   CppSQLite3.obj
 0001:00008f90       ?finalize@CppSQLite3Query@@QAEXXZ 00409f90 f   CppSQLite3.obj
 0001:00009040       ?checkVM@CppSQLite3Query@@AAEXXZ 0040a040 f   CppSQLite3.obj
 0001:000090b0       ??0CppSQLite3Table@@QAE@XZ 0040a0b0 f   CppSQLite3.obj
 0001:00009110       ??_GCppSQLite3Table@@UAEPAXI@Z 0040a110 f i CppSQLite3.obj
 0001:00009110       ??_ECppSQLite3Table@@UAEPAXI@Z 0040a110 f i CppSQLite3.obj
 0001:00009170       ??0CppSQLite3Table@@QAE@ABV0@@Z 0040a170 f   CppSQLite3.obj
 0001:000091f0       ??0CppSQLite3Table@@QAE@PAPADHH@Z 0040a1f0 f   CppSQLite3.obj
 0001:00009250       ??1CppSQLite3Table@@UAE@XZ 0040a250 f   CppSQLite3.obj
 0001:000092f0       ??4CppSQLite3Table@@QAEAAV0@ABV0@@Z 0040a2f0 f   CppSQLite3.obj
 0001:000093c0       ?finalize@CppSQLite3Table@@QAEXXZ 0040a3c0 f   CppSQLite3.obj
 0001:00009420       ?numFields@CppSQLite3Table@@QAEHXZ 0040a420 f   CppSQLite3.obj
 0001:00009470       ?numRows@CppSQLite3Table@@QAEHXZ 0040a470 f   CppSQLite3.obj
 0001:000094c0       ?fieldValue@CppSQLite3Table@@QAEPBDH@Z 0040a4c0 f   CppSQLite3.obj
 0001:00009570       ?fieldValue@CppSQLite3Table@@QAEPBDPBD@Z 0040a570 f   CppSQLite3.obj
 0001:00009650       ?getIntField@CppSQLite3Table@@QAEHHH@Z 0040a650 f   CppSQLite3.obj
 0001:000096d0       ?getIntField@CppSQLite3Table@@QAEHPBDH@Z 0040a6d0 f   CppSQLite3.obj
 0001:00009750       ?getFloatField@CppSQLite3Table@@QAENHN@Z 0040a750 f   CppSQLite3.obj
 0001:000097d0       ?getFloatField@CppSQLite3Table@@QAENPBDN@Z 0040a7d0 f   CppSQLite3.obj
 0001:00009850       ?getStringField@CppSQLite3Table@@QAEPBDHPBD@Z 0040a850 f   CppSQLite3.obj
 0001:000098b0       ?getStringField@CppSQLite3Table@@QAEPBDPBD0@Z 0040a8b0 f   CppSQLite3.obj
 0001:00009910       ?fieldIsNull@CppSQLite3Table@@QAE_NH@Z 0040a910 f   CppSQLite3.obj
 0001:00009970       ?fieldIsNull@CppSQLite3Table@@QAE_NPBD@Z 0040a970 f   CppSQLite3.obj
 0001:000099d0       ?fieldName@CppSQLite3Table@@QAEPBDH@Z 0040a9d0 f   CppSQLite3.obj
 0001:00009a60       ?setRow@CppSQLite3Table@@QAEXH@Z 0040aa60 f   CppSQLite3.obj
 0001:00009af0       ?checkResults@CppSQLite3Table@@AAEXXZ 0040aaf0 f   CppSQLite3.obj
 0001:00009b60       ??0CppSQLite3Statement@@QAE@XZ 0040ab60 f   CppSQLite3.obj
 0001:00009bb0       ??_ECppSQLite3Statement@@UAEPAXI@Z 0040abb0 f i CppSQLite3.obj
 0001:00009bb0       ??_GCppSQLite3Statement@@UAEPAXI@Z 0040abb0 f i CppSQLite3.obj
 0001:00009c10       ??0CppSQLite3Statement@@QAE@ABV0@@Z 0040ac10 f   CppSQLite3.obj
 0001:00009c70       ??0CppSQLite3Statement@@QAE@PAUsqlite3@@PAUsqlite3_stmt@@@Z 0040ac70 f   CppSQLite3.obj
 0001:00009cc0       ??1CppSQLite3Statement@@UAE@XZ 0040acc0 f   CppSQLite3.obj
 0001:00009d60       ??4CppSQLite3Statement@@QAEAAV0@ABV0@@Z 0040ad60 f   CppSQLite3.obj
 0001:00009dc0       ?execDML@CppSQLite3Statement@@QAEHXZ 0040adc0 f   CppSQLite3.obj
 0001:00009ee0       ?execQuery@CppSQLite3Statement@@QAE?AVCppSQLite3Query@@XZ 0040aee0 f   CppSQLite3.obj
 0001:0000a010       ?bind@CppSQLite3Statement@@QAEXHPBD@Z 0040b010 f   CppSQLite3.obj
 0001:0000a0a0       ?bind@CppSQLite3Statement@@QAEXHH@Z 0040b0a0 f   CppSQLite3.obj
 0001:0000a130       ?bind@CppSQLite3Statement@@QAEXHN@Z 0040b130 f   CppSQLite3.obj
 0001:0000a1c0       ?bind@CppSQLite3Statement@@QAEXHPBEH@Z 0040b1c0 f   CppSQLite3.obj
 0001:0000a250       ?bindNull@CppSQLite3Statement@@QAEXH@Z 0040b250 f   CppSQLite3.obj
 0001:0000a2e0       ?reset@CppSQLite3Statement@@QAEXXZ 0040b2e0 f   CppSQLite3.obj
 0001:0000a370       ?finalize@CppSQLite3Statement@@QAEXXZ 0040b370 f   CppSQLite3.obj
 0001:0000a410       ?checkDB@CppSQLite3Statement@@AAEXXZ 0040b410 f   CppSQLite3.obj
 0001:0000a480       ?checkVM@CppSQLite3Statement@@AAEXXZ 0040b480 f   CppSQLite3.obj
 0001:0000a4f0       ??0CppSQLite3DB@@QAE@XZ    0040b4f0 f   CppSQLite3.obj
 0001:0000a540       ??_GCppSQLite3DB@@UAEPAXI@Z 0040b540 f i CppSQLite3.obj
 0001:0000a540       ??_ECppSQLite3DB@@UAEPAXI@Z 0040b540 f i CppSQLite3.obj
 0001:0000a5a0       ??0CppSQLite3DB@@AAE@ABV0@@Z 0040b5a0 f   CppSQLite3.obj
 0001:0000a5f0       ??1CppSQLite3DB@@UAE@XZ    0040b5f0 f   CppSQLite3.obj
 0001:0000a640       ??4CppSQLite3DB@@AAEAAV0@ABV0@@Z 0040b640 f   CppSQLite3.obj
 0001:0000a690       ?open@CppSQLite3DB@@QAEXPBD@Z 0040b690 f   CppSQLite3.obj
 0001:0000a730       ?close@CppSQLite3DB@@QAEXXZ 0040b730 f   CppSQLite3.obj
 0001:0000a790       ?compileStatement@CppSQLite3DB@@QAE?AVCppSQLite3Statement@@PBD@Z 0040b790 f   CppSQLite3.obj
 0001:0000a810       ?tableExists@CppSQLite3DB@@QAE_NPBD@Z 0040b810 f   CppSQLite3.obj
 0001:0000a8d0       ?execDML@CppSQLite3DB@@QAEHPBD@Z 0040b8d0 f   CppSQLite3.obj
 0001:0000a9b0       ?execQuery@CppSQLite3DB@@QAE?AVCppSQLite3Query@@PBD@Z 0040b9b0 f   CppSQLite3.obj
 0001:0000aad0       ?execScalar@CppSQLite3DB@@QAEHPBD@Z 0040bad0 f   CppSQLite3.obj
 0001:0000abf0       ?getTable@CppSQLite3DB@@QAE?AVCppSQLite3Table@@PBD@Z 0040bbf0 f   CppSQLite3.obj
 0001:0000ad40       ?lastRowId@CppSQLite3DB@@QAE_JXZ 0040bd40 f   CppSQLite3.obj
 0001:0000ad90       ?setBusyTimeout@CppSQLite3DB@@QAEXH@Z 0040bd90 f   CppSQLite3.obj
 0001:0000adf0       ?checkDB@CppSQLite3DB@@AAEXXZ 0040bdf0 f   CppSQLite3.obj
 0001:0000ae60       ?compile@CppSQLite3DB@@AAEPAUsqlite3_stmt@@PBD@Z 0040be60 f   CppSQLite3.obj
 0001:0000af40       ?sqlite3_encode_binary@@YAHPBEHPAE@Z 0040bf40 f   CppSQLite3.obj
 0001:0000b190       ?sqlite3_decode_binary@@YAHPBEPAE@Z 0040c190 f   CppSQLite3.obj
 0001:0000b280       _Storage_QueryInterface@12 0040c280 f   CWebPage.obj
 0001:0000b2f0       _Storage_AddRef@4          0040c2f0 f   CWebPage.obj
 0001:0000b320       _Storage_Release@4         0040c320 f   CWebPage.obj
 0001:0000b350       _Storage_CreateStream@24   0040c350 f   CWebPage.obj
 0001:0000b3c0       _Storage_OpenStream@24     0040c3c0 f   CWebPage.obj
 0001:0000b430       _Storage_CreateStorage@24  0040c430 f   CWebPage.obj
 0001:0000b4a0       _Storage_OpenStorage@28    0040c4a0 f   CWebPage.obj
 0001:0000b510       _Storage_CopyTo@20         0040c510 f   CWebPage.obj
 0001:0000b580       _Storage_MoveElementTo@20  0040c580 f   CWebPage.obj
 0001:0000b5f0       _Storage_Commit@8          0040c5f0 f   CWebPage.obj
 0001:0000b660       _Storage_Revert@4          0040c660 f   CWebPage.obj
 0001:0000b6d0       _Storage_EnumElements@20   0040c6d0 f   CWebPage.obj
 0001:0000b740       _Storage_DestroyElement@8  0040c740 f   CWebPage.obj
 0001:0000b7b0       _Storage_RenameElement@12  0040c7b0 f   CWebPage.obj
 0001:0000b820       _Storage_SetElementTimes@20 0040c820 f   CWebPage.obj
 0001:0000b890       _Storage_SetClass@8        0040c890 f   CWebPage.obj
 0001:0000b8c0       _Storage_SetStateBits@12   0040c8c0 f   CWebPage.obj
 0001:0000b930       _Storage_Stat@12           0040c930 f   CWebPage.obj
 0001:0000b9a0       _Site_QueryInterface@12    0040c9a0 f   CWebPage.obj
 0001:0000ba50       _Site_AddRef@4             0040ca50 f   CWebPage.obj
 0001:0000ba80       _Site_Release@4            0040ca80 f   CWebPage.obj
 0001:0000bab0       _Site_SaveObject@4         0040cab0 f   CWebPage.obj
 0001:0000bb20       _Site_GetMoniker@16        0040cb20 f   CWebPage.obj
 0001:0000bb90       _Site_GetContainer@8       0040cb90 f   CWebPage.obj
 0001:0000bbd0       _Site_ShowObject@4         0040cbd0 f   CWebPage.obj
 0001:0000bc00       _Site_OnShowWindow@8       0040cc00 f   CWebPage.obj
 0001:0000bc70       _Site_RequestNewObjectLayout@4 0040cc70 f   CWebPage.obj
 0001:0000bce0       _Site_GetWindow@8          0040cce0 f   CWebPage.obj
 0001:0000bd20       _Site_ContextSensitiveHelp@8 0040cd20 f   CWebPage.obj
 0001:0000bd90       _Site_CanInPlaceActivate@4 0040cd90 f   CWebPage.obj
 0001:0000bdc0       _Site_OnInPlaceActivate@4  0040cdc0 f   CWebPage.obj
 0001:0000bdf0       _Site_OnUIActivate@4       0040cdf0 f   CWebPage.obj
 0001:0000be20       _Site_GetWindowContext@24  0040ce20 f   CWebPage.obj
 0001:0000bed0       _Site_Scroll@12            0040ced0 f   CWebPage.obj
 0001:0000bf40       _Site_OnUIDeactivate@8     0040cf40 f   CWebPage.obj
 0001:0000bf70       _Site_OnInPlaceDeactivate@4 0040cf70 f   CWebPage.obj
 0001:0000bfa0       _Site_DiscardUndoState@4   0040cfa0 f   CWebPage.obj
 0001:0000c010       _Site_DeactivateAndUndo@4  0040d010 f   CWebPage.obj
 0001:0000c080       _Site_OnPosRectChange@8    0040d080 f   CWebPage.obj
 0001:0000c0b0       _Frame_QueryInterface@12   0040d0b0 f   CWebPage.obj
 0001:0000c120       _Frame_AddRef@4            0040d120 f   CWebPage.obj
 0001:0000c150       _Frame_Release@4           0040d150 f   CWebPage.obj
 0001:0000c180       _Frame_GetWindow@8         0040d180 f   CWebPage.obj
 0001:0000c1c0       _Frame_ContextSensitiveHelp@8 0040d1c0 f   CWebPage.obj
 0001:0000c230       _Frame_GetBorder@8         0040d230 f   CWebPage.obj
 0001:0000c2a0       _Frame_RequestBorderSpace@8 0040d2a0 f   CWebPage.obj
 0001:0000c310       _Frame_SetBorderSpace@8    0040d310 f   CWebPage.obj
 0001:0000c380       _Frame_SetActiveObject@12  0040d380 f   CWebPage.obj
 0001:0000c3b0       _Frame_InsertMenus@12      0040d3b0 f   CWebPage.obj
 0001:0000c420       _Frame_SetMenu@16          0040d420 f   CWebPage.obj
 0001:0000c450       _Frame_RemoveMenus@8       0040d450 f   CWebPage.obj
 0001:0000c4c0       _Frame_SetStatusText@8     0040d4c0 f   CWebPage.obj
 0001:0000c4f0       _Frame_EnableModeless@8    0040d4f0 f   CWebPage.obj
 0001:0000c520       _Frame_TranslateAccelerator@12 0040d520 f   CWebPage.obj
 0001:0000c590       _UnEmbedBrowserObject      0040d590 f   CWebPage.obj
 0001:0000c660       _DisplayHTMLStr            0040d660 f   CWebPage.obj
 0001:0000c900       _DisplayHTMLPage           0040d900 f   CWebPage.obj
 0001:0000ca70       _EmbedBrowserObject        0040da70 f   CWebPage.obj
 0001:0000cd10       _SetBrowserRect            0040dd10 f   CWebPage.obj
 0001:0000cee0       ??0DBClass@@QAE@XZ         0040dee0 f   DBClass.obj
 0001:0000d0a0       ?errorMessage@CppSQLite3Exception@@QAEPBDXZ 0040e0a0 f i DBClass.obj
 0001:0000d0d0       ??_EDBClass@@UAEPAXI@Z     0040e0d0 f i DBClass.obj
 0001:0000d0d0       ??_GDBClass@@UAEPAXI@Z     0040e0d0 f i DBClass.obj
 0001:0000d130       ??1DBClass@@UAE@XZ         0040e130 f   DBClass.obj
 0001:0000d1c0       ?CreateARTable@DBClass@@QAEHXZ 0040e1c0 f   DBClass.obj
 0001:0000d2e0       ?CreateHMTable@DBClass@@QAEHXZ 0040e2e0 f   DBClass.obj
 0001:0000d400       ?CreateBKHKTable@DBClass@@QAEHXZ 0040e400 f   DBClass.obj
 0001:0000d520       ?CreateSizePosTable@DBClass@@QAEHXZ 0040e520 f   DBClass.obj
 0001:0000d680       ?CreateIconTitleTable@DBClass@@QAEHXZ 0040e680 f   DBClass.obj
 0001:0000d7a0       ?CreateAutoHideTable@DBClass@@QAEHXZ 0040e7a0 f   DBClass.obj
 0001:0000d8c0       ?AddAutoHideItem@DBClass@@QAEHPAUAutoHideItem@@@Z 0040e8c0 f   DBClass.obj
 0001:0000d920       ?InsertAutoHideItem@DBClass@@QAEHPAUAutoHideItem@@@Z 0040e920 f   DBClass.obj
 0001:0000dc30       ?DelAutoHideItem@DBClass@@QAEHPAUAutoHideItem@@@Z 0040ec30 f   DBClass.obj
 0001:0000de40       ?InsertARItem@DBClass@@QAEHPAUsFileItem@@@Z 0040ee40 f   DBClass.obj
 0001:0000e050       ?InsertSizePosItem@DBClass@@QAEHPAUSizePosItem@@@Z 0040f050 f   DBClass.obj
 0001:0000e240       ?InsertIconTitleItem@DBClass@@QAEHPAUIconTitleItem@@H@Z 0040f240 f   DBClass.obj
 0001:0000e6a0       ?UpdateSizePosItem@DBClass@@QAEHPAUSizePosItem@@@Z 0040f6a0 f   DBClass.obj
 0001:0000e880       ?SaveSizePos@DBClass@@QAEHPAUSizePosItem@@@Z 0040f880 f   DBClass.obj
 0001:0000e8e0       ?SaveChangedIconTitle@DBClass@@QAEHPAUIconTitleItem@@H@Z 0040f8e0 f   DBClass.obj
 0001:0000e940       ?InsertHMItem@DBClass@@QAEHPAUsHMF_Item@@@Z 0040f940 f   DBClass.obj
 0001:0000eb50       ?InsertBKHKItem@DBClass@@QAEHPAUsBKWHotkey@@@Z 0040fb50 f   DBClass.obj
 0001:0000f090       ?IsInARFL@DBClass@@QAEHPAUsFileItem@@@Z 00410090 f   DBClass.obj
 0001:0000f2f0       ?IsInHM@DBClass@@QAEHPAUsHMF_Item@@@Z 004102f0 f   DBClass.obj
 0001:0000f550       ?IsInBKHK@DBClass@@QAEHPAUsBKWHotkey@@@Z 00410550 f   DBClass.obj
 0001:0000f7b0       ?DelARItem@DBClass@@QAEHPAUsFileItem@@@Z 004107b0 f   DBClass.obj
 0001:0000f9b0       ?DeleteIconTitleItem@DBClass@@QAEHPAUIconTitleItem@@H@Z 004109b0 f   DBClass.obj
 0001:0000fe00       ?DelHMItem@DBClass@@QAEHPAUsHMF_Item@@@Z 00410e00 f   DBClass.obj
 0001:00010000       ?DelBKHKItem@DBClass@@QAEHPAUsBKWHotkey@@@Z 00411000 f   DBClass.obj
 0001:00010200       ?AddHMTime@DBClass@@QAEHPAUsHMF_Item@@@Z 00411200 f   DBClass.obj
 0001:00010540       ?ReadHK@DBClass@@QAEHPAUsBKWHotkey@@@Z 00411540 f   DBClass.obj
 0001:00010930       ?ReadSizePos@DBClass@@QAEHPAUSizePosItem@@@Z 00411930 f   DBClass.obj
 0001:00010bb0       ?ReadIconTitleItem@DBClass@@QAEHPAUIconTitleItem@@PAH@Z 00411bb0 f   DBClass.obj
 0001:00010f50       ?ReadAHItem@DBClass@@QAEHPAUAutoHideItem@@PAHP6AH0@Z@Z 00411f50 f   DBClass.obj
 0001:00011230       ?CreateUserNameTable@DBClass@@QAEHXZ 00412230 f   DBClass.obj
 0001:00011350       ?SaveUserName@DBClass@@QAEHPA_W@Z 00412350 f   DBClass.obj
 0001:00011630       ?ReadUserName@DBClass@@QAEHPA_W@Z 00412630 f   DBClass.obj
 0001:00011880       ??_Estringdispid@CComTypeInfoHolder@ATL@@QAEPAXI@Z 00412880 f i hd.obj
 0001:00011920       ??1stringdispid@CComTypeInfoHolder@ATL@@QAE@XZ 00412920 f i hd.obj
 0001:00011960       ??1CComBSTR@ATL@@QAE@XZ    00412960 f i hd.obj
 0001:000119b0       ?ReadVersionInfoFile@@YAHPAUVersionInfo@@@Z 004129b0 f   hd.obj
 0001:00011c80       _WinMain@16                00412c80 f   hd.obj
 0001:00012b20       ?wcschr@@YAPA_WPA_W_W@Z    00413b20 f i hd.obj
 0001:00012b70       ?MainProc1@@YGHPAUHWND__@@IIJ@Z 00413b70 f   hd.obj
 0001:00019df0       ??1?$_Iterator@$00@?$list@PAUsBKWHotkey@@V?$allocator@PAUsBKWHotkey@@@std@@@std@@QAE@XZ 0041adf0 f i hd.obj
 0001:00019e30       ??4?$_Iterator@$00@?$list@PAUsBKWHotkey@@V?$allocator@PAUsBKWHotkey@@@std@@@std@@QAEAAV012@ABV012@@Z 0041ae30 f i hd.obj
 0001:00019e80       ??1?$_Const_iterator@$00@?$list@PAUsBKWHotkey@@V?$allocator@PAUsBKWHotkey@@@std@@@std@@QAE@XZ 0041ae80 f i hd.obj
 0001:00019ec0       ??4?$_Const_iterator@$00@?$list@PAUsBKWHotkey@@V?$allocator@PAUsBKWHotkey@@@std@@@std@@QAEAAV012@ABV012@@Z 0041aec0 f i hd.obj
 0001:00019f20       ??1?$_Bidit@PAUsBKWHotkey@@HPBQAU1@ABQAU1@@std@@QAE@XZ 0041af20 f i hd.obj
 0001:00019f60       ??4?$_Bidit@PAUsBKWHotkey@@HPBQAU1@ABQAU1@@std@@QAEAAU01@ABU01@@Z 0041af60 f i hd.obj
 0001:00019fb0       ??1?$_Iterator_with_base@Ubidirectional_iterator_tag@std@@PAUsBKWHotkey@@HPBQAU3@ABQAU3@V_Iterator_base@2@@std@@QAE@XZ 0041afb0 f i hd.obj
 0001:00019ff0       ??1_Iterator_base@std@@QAE@XZ 0041aff0 f i hd.obj
 0001:0001a0c0       ?_Orphan_me@_Iterator_base@std@@QAEXXZ 0041b0c0 f i hd.obj
 0001:0001a170       ??4?$_Iterator_with_base@Ubidirectional_iterator_tag@std@@PAUsBKWHotkey@@HPBQAU3@ABQAU3@V_Iterator_base@2@@std@@QAEAAU01@ABU01@@Z 0041b170 f i hd.obj
 0001:0001a1c0       ??4_Iterator_base@std@@QAEAAV01@ABV01@@Z 0041b1c0 f i hd.obj
 0001:0001a2b0       ?_Adopt@_Iterator_base@std@@QAEXPBV_Container_base_secure@2@@Z 0041b2b0 f i hd.obj
 0001:0001a3b0       ?AboutProc@@YGHPAUHWND__@@IIJ@Z 0041b3b0 f   hd.obj
 0001:0001b140       ?FillList@@YAHXZ           0041c140 f   hd.obj
 0001:0001b7e0       ?EnumWindowsProc@@YGHPAUHWND__@@J@Z 0041c7e0 f   hd.obj
 0001:0001dc00       ?GetHideProcessName@@YAHKPA_W@Z 0041ec00 f   hd.obj
 0001:0001dc60       ?IsInListView@@YAHKPA_W@Z  0041ec60 f   hd.obj
 0001:0001dee0       ?IsEuqalExe@@YAHPAUHWND__@@PA_WH@Z 0041eee0 f   hd.obj
 0001:0001df80       ?DeleteAll@@YAHXZ          0041ef80 f   hd.obj
 0001:0001e000       ?HotKeyProc@@YGHPAUHWND__@@IIJ@Z 0041f000 f   hd.obj
 0001:0001f080       ?TimerProc@@YGXPAUHWND__@@IIK@Z 00420080 f   hd.obj
 0001:0001f210       ?SetTipTextProc@@YGXPAUHWND__@@IIK@Z 00420210 f   hd.obj
 0001:0001f290       ?CreateOptionProps@@YAHXZ  00420290 f   hd.obj
 0001:0001fbe0       ?OtherProc@@YGHPAUHWND__@@IIJ@Z 00420be0 f   hd.obj
 0001:00020c40       ?BKProc@@YGHPAUHWND__@@IIJ@Z 00421c40 f   hd.obj
 0001:00021250       ?CreateAboutProps@@YAHXZ   00422250 f   hd.obj
 0001:00021770       ?ReadMeProc@@YGHPAUHWND__@@IIJ@Z 00422770 f   hd.obj
 0001:00021ac0       ?HistoryProc@@YGHPAUHWND__@@IIJ@Z 00422ac0 f   hd.obj
 0001:00021d80       ?EditStreamCallback@@YGKKPAEJPAJ@Z 00422d80 f   hd.obj
 0001:00021de0       ?GetMsgProc@@YGJHIJ@Z      00422de0 f   hd.obj
 0001:00021fd0       ?WriteOptionFile@@YAHUOptionFile@@@Z 00422fd0 f   hd.obj
 0001:00022630       ?ReadOptionFile@@YAHPAUOptionFile@@@Z 00423630 f   hd.obj
 0001:00022d00       ?WriteRegThread@@YGKPAX@Z  00423d00 f   hd.obj
 0001:000232b0       ?NetworkThread@@YGKPAX@Z   004242b0 f   hd.obj
 0001:000233a0       ?GetFileFromServer@@YAHPAD@Z 004243a0 f   hd.obj
 0001:000242f0       ?wcsrchr@@YAPA_WPA_W_W@Z   004252f0 f i hd.obj
 0001:00024340       ?HD_Connect@@YAHIPADH@Z    00425340 f   hd.obj
 0001:00024450       ?HD_FormatRequestHeader@@YAHPAD0PAJ0@Z 00425450 f   hd.obj
 0001:000245a0       ?HD_SendRequest@@YAHIPAD@Z 004255a0 f   hd.obj
 0001:00024630       ?HD_RecvResponseHeader@@YAHIPADPAJ@Z 00425630 f   hd.obj
 0001:000247a0       ?HD_GetHeaderField@@YAHPAD00@Z 004257a0 f   hd.obj
 0001:00024860       ?strstr@@YAPADPADPBD@Z     00425860 f i hd.obj
 0001:000248b0       ?HD_GetState@@YAHPAD@Z     004258b0 f   hd.obj
 0001:00024960       ?RegisterProc@@YGHPAUHWND__@@IIJ@Z 00425960 f   hd.obj
 0001:00025e00       ?SaveUserName@@YAHPA_W@Z   00426e00 f   hd.obj
 0001:00025ec0       ?ScanWebProc@@YGXPAUHWND__@@IIK@Z 00426ec0 f   hd.obj
 0001:00025f60       ?GarbageRecycle@@YAHXZ     00426f60 f   hd.obj
 0001:00026260       ?HD_GarbageRecycle@@YAHXZ  00427260 f   hd.obj
 0001:000263f0       ?PasswordProc@@YGHPAUHWND__@@IIJ@Z 004273f0 f   hd.obj
 0001:00026bc0       ?FindTrayToolbarWindow@@YAPAUHWND__@@XZ 00427bc0 f   hd.obj
 0001:00026ca0       ?IsHaveTrayIcon@@YAHPAUWndAndHandle@@PAUTRAYDATA@@@Z 00427ca0 f   hd.obj
 0001:00027230       ?OpenBKWizard@@YAHXZ       00428230 f   hd.obj
 0001:00027600       ?SelWndIconProc@@YGHPAUHWND__@@IIJ@Z 00428600 f   hd.obj
 0001:00027f10       ?FinishProc@@YGHPAUHWND__@@IIJ@Z 00428f10 f   hd.obj
 0001:000285f0       ?BeginBKProc@@YGHPAUHWND__@@IIJ@Z 004295f0 f   hd.obj
 0001:00028990       ?AddSelListHeader@@YAHXZ   00429990 f   hd.obj
 0001:00028c20       ?UpdateSelList@@YAHXZ      00429c20 f   hd.obj
 0001:00029e60       ?AllocResourceForTrayList@@YAHXZ 0042ae60 f   hd.obj
 0001:00029f90       ?ReleaseResourceForTrayList@@YAHXZ 0042af90 f   hd.obj
 0001:0002a080       ?EnumAllVisibleTray@@YAHXZ 0042b080 f   hd.obj
 0001:0002a930       ?HideAllTray@@YAHXZ        0042b930 f   hd.obj
 0001:0002aad0       ?ShowAllTray@@YAHXZ        0042bad0 f   hd.obj
 0001:0002ad50       ?EnumWindowsForBKProc@@YGHPAUHWND__@@J@Z 0042bd50 f   hd.obj
 0001:0002b4c0       ?AddConfirmListHeader@@YAHXZ 0042c4c0 f   hd.obj
 0001:0002b750       ?UpdateConfirmList@@YAHXZ  0042c750 f   hd.obj
 0001:0002b9c0       ?IsProcessItem@@YAHPAUWndAndHandle@@@Z 0042c9c0 f   hd.obj
 0001:0002ba10       ?HideWindowInThread@@YAHPAPAUHWND__@@@Z 0042ca10 f   hd.obj
 0001:0002bab0       ?BeginBKMonitorThread@@YAHXZ 0042cab0 f   hd.obj
 0001:0002bb40       ?BKWindowThread@@YGIPAX@Z  0042cb40 f   hd.obj
 0001:0002bbd0       ?dbview@@YAHPA_W@Z         0042cbd0 f   hd.obj
 0001:0002bc20       ?MonitorBKProc@@YGIPAX@Z   0042cc20 f   hd.obj
 0001:0002bd90       ?HideSelected@@YAHPAPAUWndAndHandle@@HH@Z 0042cd90 f   hd.obj
 0001:0002caf0       ?ShowSelected@@YAHPAUWndAndHandle@@H@Z 0042daf0 f   hd.obj
 0001:0002cf70       ?AddBKListHeader@@YAHXZ    0042df70 f   hd.obj
 0001:0002d360       ?RestoreAllBK@@YAHH@Z      0042e360 f   hd.obj
 0001:0002d530       ?QuickHideProc@@YGHPAUHWND__@@IIJ@Z 0042e530 f   hd.obj
 0001:0002e610       ?MouseMotionProc@@YGHPAUHWND__@@IIJ@Z 0042f610 f   hd.obj
 0001:0002e660       ?AutoUpdateProc@@YGHPAUHWND__@@IIJ@Z 0042f660 f   hd.obj
 0001:0002e900       ?MultiLanguageProc@@YGHPAUHWND__@@IIJ@Z 0042f900 f   hd.obj
 0001:0002e950       ?RefreshThread@@YGIPAX@Z   0042f950 f   hd.obj
 0001:0002e9f0       ?ShowWindowNormal@@YAHPAUHWND__@@@Z 0042f9f0 f   hd.obj
 0001:0002eaf0       ?ExtendWindow@@YAHXZ       0042faf0 f   hd.obj
 0001:0002ebf0       ?ModifyAutoReserveMenu@@YAHPAUHMENU__@@H@Z 0042fbf0 f   hd.obj
 0001:0002f1b0       ?IsRegister@@YAHXZ         004301b0 f   hd.obj
 0001:0002f570       ?WriteRegCode@@YAHXZ       00430570 f   hd.obj
 0001:0002f690       ?FillNotExistWnd@@YAHH@Z   00430690 f   hd.obj
 0001:0002f960       ?PasswordDlgProc@@YGHPAUHWND__@@IIJ@Z 00430960 f   hd.obj
 0001:0002fba0       ?ShowPasswordDlg@@YAHXZ    00430ba0 f   hd.obj
 0001:0002fc20       ?begin@?$list@PAUsBKWHotkey@@V?$allocator@PAUsBKWHotkey@@@std@@@std@@QAE?AV?$_Iterator@$00@12@XZ 00430c20 f i hd.obj
 0001:0002fca0       ?end@?$list@PAUsBKWHotkey@@V?$allocator@PAUsBKWHotkey@@@std@@@std@@QAE?AV?$_Iterator@$00@12@XZ 00430ca0 f i hd.obj
 0001:0002fd10       ??0?$_Iterator@$00@?$list@PAUsBKWHotkey@@V?$allocator@PAUsBKWHotkey@@@std@@@std@@QAE@XZ 00430d10 f i hd.obj
 0001:0002fd60       ??D?$_Iterator@$00@?$list@PAUsBKWHotkey@@V?$allocator@PAUsBKWHotkey@@@std@@@std@@QBEAAPAUsBKWHotkey@@XZ 00430d60 f i hd.obj
 0001:0002fda0       ??E?$_Iterator@$00@?$list@PAUsBKWHotkey@@V?$allocator@PAUsBKWHotkey@@@std@@@std@@QAE?AV012@H@Z 00430da0 f i hd.obj
 0001:0002fe80       ??9?$_Const_iterator@$00@?$list@PAUsBKWHotkey@@V?$allocator@PAUsBKWHotkey@@@std@@@std@@QBE_NABV012@@Z 00430e80 f i hd.obj
 0001:0002fed0       ??0?$CProcessData@U_TBBUTTON@@@@QAE@KKKK@Z 00430ed0 f i hd.obj
 0001:0002ff90       ??1?$CProcessData@U_TBBUTTON@@@@QAE@XZ 00430f90 f i hd.obj
 0001:00030030       ?ReadData@?$CProcessData@U_TBBUTTON@@@@QAEHPAU_TBBUTTON@@@Z 00431030 f i hd.obj
 0001:000300c0       ?ReadData@?$CProcessData@U_TBBUTTON@@@@QAEHPAUTRAYDATA@@PAX@Z 004310c0 f i hd.obj
 0001:00030140       ?ReadData_Tip@?$CProcessData@U_TBBUTTON@@@@QAEHPA_WPAX@Z 00431140 f i hd.obj
 0001:000301c0       ?GetData@?$CProcessData@U_TBBUTTON@@@@QAEPBU_TBBUTTON@@XZ 004311c0 f i hd.obj
 0001:00030220       ??0?$_Iterator@$00@?$list@PAUsBKWHotkey@@V?$allocator@PAUsBKWHotkey@@@std@@@std@@QAE@ABV012@@Z 00431220 f i hd.obj
 0001:00030270       ??0?$_Const_iterator@$00@?$list@PAUsBKWHotkey@@V?$allocator@PAUsBKWHotkey@@@std@@@std@@QAE@ABV012@@Z 00431270 f i hd.obj
 0001:000302d0       ??0?$_Bidit@PAUsBKWHotkey@@HPBQAU1@ABQAU1@@std@@QAE@ABU01@@Z 004312d0 f i hd.obj
 0001:00030320       ??0?$_Iterator_with_base@Ubidirectional_iterator_tag@std@@PAUsBKWHotkey@@HPBQAU3@ABQAU3@V_Iterator_base@2@@std@@QAE@ABU01@@Z 00431320 f i hd.obj
 0001:00030370       ??0_Iterator_base@std@@QAE@ABV01@@Z 00431370 f i hd.obj
 0001:000303d0       ?_Nextnode@?$list@PAUsBKWHotkey@@V?$allocator@PAUsBKWHotkey@@@std@@@std@@KAAAPAU_Node@?$_List_nod@PAUsBKWHotkey@@V?$allocator@PAUsBKWHotkey@@@std@@@2@PAU342@@Z 004313d0 f i hd.obj
 0001:00030400       ??0?$_Iterator@$00@?$list@PAUsBKWHotkey@@V?$allocator@PAUsBKWHotkey@@@std@@@std@@QAE@PAU_Node@?$_List_nod@PAUsBKWHotkey@@V?$allocator@PAUsBKWHotkey@@@std@@@2@PBV12@@Z 00431400 f i hd.obj
 0001:00030450       ??E?$_Iterator@$00@?$list@PAUsBKWHotkey@@V?$allocator@PAUsBKWHotkey@@@std@@@std@@QAEAAV012@XZ 00431450 f i hd.obj
 0001:000304a0       ??0?$_Const_iterator@$00@?$list@PAUsBKWHotkey@@V?$allocator@PAUsBKWHotkey@@@std@@@std@@QAE@XZ 004314a0 f i hd.obj
 0001:000304f0       ??D?$_Const_iterator@$00@?$list@PAUsBKWHotkey@@V?$allocator@PAUsBKWHotkey@@@std@@@std@@QBEABQAUsBKWHotkey@@XZ 004314f0 f i hd.obj
 0001:000305e0       ??8?$_Const_iterator@$00@?$list@PAUsBKWHotkey@@V?$allocator@PAUsBKWHotkey@@@std@@@std@@QBE_NABV012@@Z 004315e0 f i hd.obj
 0001:00030640       ??0?$_Bidit@PAUsBKWHotkey@@HPBQAU1@ABQAU1@@std@@QAE@XZ 00431640 f i hd.obj
 0001:00030690       ??0?$_Iterator_with_base@Ubidirectional_iterator_tag@std@@PAUsBKWHotkey@@HPBQAU3@ABQAU3@V_Iterator_base@2@@std@@QAE@XZ 00431690 f i hd.obj
 0001:000306e0       ??0_Iterator_base@std@@QAE@XZ 004316e0 f i hd.obj
 0001:00030720       ?_Myval@?$list@PAUsBKWHotkey@@V?$allocator@PAUsBKWHotkey@@@std@@@std@@KAAAPAUsBKWHotkey@@PAU_Node@?$_List_nod@PAUsBKWHotkey@@V?$allocator@PAUsBKWHotkey@@@std@@@2@@Z 00431720 f i hd.obj
 0001:00030750       ??0?$_Const_iterator@$00@?$list@PAUsBKWHotkey@@V?$allocator@PAUsBKWHotkey@@@std@@@std@@QAE@PAU_Node@?$_List_nod@PAUsBKWHotkey@@V?$allocator@PAUsBKWHotkey@@@std@@@2@PBV12@@Z 00431750 f i hd.obj
 0001:000307f0       ??E?$_Const_iterator@$00@?$list@PAUsBKWHotkey@@V?$allocator@PAUsBKWHotkey@@@std@@@std@@QAEAAV012@XZ 004317f0 f i hd.obj
 0001:000308f0       ?_Compat@?$_Const_iterator@$00@?$list@PAUsBKWHotkey@@V?$allocator@PAUsBKWHotkey@@@std@@@std@@QBEXABV123@@Z 004318f0 f i hd.obj
 0001:000309d0       ??0Thank_you@Define_the_symbol__ATL_MIXED@@QAE@XZ 004319d0 f i hd.obj
 0001:00030a10       ?one@Thank_you@Define_the_symbol__ATL_MIXED@@UAEXXZ 00431a10 f i hd.obj
 0001:00030a40       ??0CComModule@ATL@@QAE@XZ  00431a40 f i hd.obj
 0001:00030ad0       ?Lock@CAtlModule@ATL@@UAEJXZ 00431ad0 f i hd.obj
 0001:00030b20       ?Increment@CComMultiThreadModel@ATL@@SGKPAJ@Z 00431b20 f i hd.obj
 0001:00030b70       ?Unlock@CAtlModule@ATL@@UAEJXZ 00431b70 f i hd.obj
 0001:00030bc0       ?Decrement@CComMultiThreadModel@ATL@@SGKPAJ@Z 00431bc0 f i hd.obj
 0001:00030c10       ?GetLockCount@CAtlModule@ATL@@UAEJXZ 00431c10 f i hd.obj
 0001:00030c40       ?GetGITPtr@CAtlModule@ATL@@UAEJPAPAUIGlobalInterfaceTable@@@Z 00431c40 f i hd.obj
 0001:00030d60       ?UpdateRegistryFromResourceD@CComModule@ATL@@UAGJPB_WHPAU_ATL_REGMAP_ENTRY@2@@Z 00431d60 f i hd.obj
 0001:00030d90       ?UpdateRegistryFromResourceD@CComModule@ATL@@UAGJIHPAU_ATL_REGMAP_ENTRY@2@@Z 00431d90 f i hd.obj
 0001:00030dc0       ?UpdateRegistryFromResourceS@CComModule@ATL@@UAGJPB_WHPAU_ATL_REGMAP_ENTRY@2@@Z 00431dc0 f i hd.obj
 0001:00030e10       ?UpdateRegistryFromResourceS@CComModule@ATL@@UAGJIHPAU_ATL_REGMAP_ENTRY@2@@Z 00431e10 f i hd.obj
 0001:00030e60       ??_ECComModule@ATL@@UAEPAXI@Z 00431e60 f i hd.obj
 0001:00030e60       ??_GCComModule@ATL@@UAEPAXI@Z 00431e60 f i hd.obj
 0001:00030ec0       ??1CComModule@ATL@@UAE@XZ  00431ec0 f i hd.obj
 0001:00030f10       ??1?$CAtlModuleT@VCComModule@ATL@@@ATL@@UAE@XZ 00431f10 f i hd.obj
 0001:00030f50       ??1CAtlModule@ATL@@UAE@XZ  00431f50 f i hd.obj
 0001:00030fa0       ?Term@CAtlModule@ATL@@QAEXXZ 00431fa0 f i hd.obj
 0001:00031060       ?Term@CComCriticalSection@ATL@@QAEJXZ 00432060 f i hd.obj
 0001:000310b0       ??1_ATL_MODULE70@ATL@@QAE@XZ 004320b0 f i hd.obj
 0001:00031100       ??1CComCriticalSection@ATL@@QAE@XZ 00432100 f i hd.obj
 0001:00031130       ?UpdateRegistryFromResourceS@CAtlModule@ATL@@QAGJPB_WHPAU_ATL_REGMAP_ENTRY@2@@Z 00432130 f i hd.obj
 0001:000315f0       _HRESULT_FROM_WIN32        004325f0 f i hd.obj
 0001:00031650       ?_AtlGetConversionACP@ATL@@YGIXZ 00432650 f i hd.obj
 0001:00031680       ?ocslen@@YAHPB_W@Z         00432680 f i hd.obj
 0001:000316d0       ?ocscpy_s@@YA_NPA_WIPB_W@Z 004326d0 f i hd.obj
 0001:00031740       ?T2COLE_EX@@YAPB_WPB_WI@Z  00432740 f i hd.obj
 0001:00031770       ?T2OLE_EX@@YAPA_WPA_WI@Z   00432770 f i hd.obj
 0001:000317a0       ?GetModuleInstance@CAtlBaseModule@ATL@@QAEPAUHINSTANCE__@@XZ 004327a0 f i hd.obj
 0001:000317d0       ?AtlHresultFromLastError@ATL@@YAJXZ 004327d0 f i hd.obj
 0001:00031820       ?EscapeSingleQuote@CAtlModule@ATL@@SAXPA_WIPB_W@Z 00432820 f i hd.obj
 0001:000318e0       ??1CRegObject@ATL@@UAE@XZ  004328e0 f i hd.obj
 0001:00031980       ??1CExpansionVector@ATL@@QAE@XZ 00432980 f i hd.obj
 0001:00031a00       ?ClearReplacements@CExpansionVector@ATL@@QAEJXZ 00432a00 f i hd.obj
 0001:00031ab0       ?QueryInterface@CRegObject@ATL@@UAGJABU_GUID@@PAPAX@Z 00432ab0 f i hd.obj
 0001:00031b20       ?AddRef@CRegObject@ATL@@UAGKXZ 00432b20 f i hd.obj
 0001:00031b90       ?Release@CRegObject@ATL@@UAGKXZ 00432b90 f i hd.obj
 0001:00031c00       ?FinalConstruct@CRegObject@ATL@@QAEJXZ 00432c00 f i hd.obj
 0001:00031c50       ?Init@CComSafeDeleteCriticalSection@ATL@@QAEJXZ 00432c50 f i hd.obj
 0001:00031ce0       ?Init@CComCriticalSection@ATL@@QAEJXZ 00432ce0 f i hd.obj
 0001:00031de0       ??_GCRegObject@ATL@@UAEPAXI@Z 00432de0 f i hd.obj
 0001:00031de0       ??_ECRegObject@ATL@@UAEPAXI@Z 00432de0 f i hd.obj
 0001:00031e40       ??1CComAutoDeleteCriticalSection@ATL@@QAE@XZ 00432e40 f i hd.obj
 0001:00031e80       ??1CComSafeDeleteCriticalSection@ATL@@QAE@XZ 00432e80 f i hd.obj
 0001:00031ee0       ?AddReplacement@CRegObject@ATL@@UAGJPB_W0@Z 00432ee0 f i hd.obj
 0001:00032030       ?OLE2CT_EX@@YAPB_WPB_WI@Z  00433030 f i hd.obj
 0001:00032060       ?Unlock@CComCriticalSection@ATL@@QAEJXZ 00433060 f i hd.obj
 0001:000320b0       ?Lock@CComSafeDeleteCriticalSection@ATL@@QAEJXZ 004330b0 f i hd.obj
 0001:00032130       ?Lock@CComCriticalSection@ATL@@QAEJXZ 00433130 f i hd.obj
 0001:00032180       ?Add@CExpansionVector@ATL@@QAEHPB_W0@Z 00433180 f i hd.obj
 0001:00032460       ?memcpy_s@Checked@ATL@@YAXPAXIPBXI@Z 00433460 f i hd.obj
 0001:000324c0       ?AtlCrtErrorCheck@ATL@@YAHH@Z 004334c0 f i hd.obj
 0001:000325b0       ?AtlThrowImpl@ATL@@YGXJ@Z  004335b0 f i hd.obj
 0001:00032650       ??0CTraceFileAndLineInfo@ATL@@QAE@PBDH@Z 00433650 f i hd.obj
 0001:00032690       ??RCTraceFileAndLineInfo@ATL@@QBAXKIPB_WZZ 00433690 f i hd.obj
 0001:00032700       ?TraceV@CTrace@ATL@@QBAXPBDHKIPB_WPAD@Z 00433700 f i hd.obj
 0001:00032760       ??BCTraceCategory@ATL@@QBEKXZ 00433760 f i hd.obj
 0001:00032790       ??0CAtlException@ATL@@QAE@J@Z 00433790 f i hd.obj
 0001:000327d0       ?ResourceRegisterSz@CRegObject@ATL@@QAGJPB_W00@Z 004337d0 f i hd.obj
 0001:00032920       ?RegisterFromResource@CRegObject@ATL@@IAEJPB_W00H@Z 00433920 f i hd.obj
 0001:00032d50       ?ResourceUnregisterSz@CRegObject@ATL@@QAGJPB_W00@Z 00433d50 f i hd.obj
 0001:00032ea0       ?ClearReplacements@CRegObject@ATL@@UAGJXZ 00433ea0 f i hd.obj
 0001:00032f00       ??0CRegParser@ATL@@QAE@PAVCRegObject@1@@Z 00433f00 f i hd.obj
 0001:00032f50       ?RegisterBuffer@CRegParser@ATL@@QAEJPA_WH@Z 00433f50 f i hd.obj
 0001:00033290       ?GenerateError@CRegParser@ATL@@IAEJI@Z 00434290 f i hd.obj
 0001:000332d0       ?HKeyFromString@CRegParser@ATL@@KAPAUHKEY__@@PA_W@Z 004342d0 f i hd.obj
 0001:00033350       ?SkipWhiteSpace@CRegParser@ATL@@IAEXXZ 00434350 f i hd.obj
 0001:000333c0       ?IsSpace@CRegParser@ATL@@IAEH_W@Z 004343c0 f i hd.obj
 0001:00033450       ?NextToken@CRegParser@ATL@@IAEJPA_W@Z 00434450 f i hd.obj
 0001:00033700       ?EndOfVar@CRegParser@ATL@@IAEHXZ 00434700 f i hd.obj
 0001:00033780       ?PreProcessBuffer@CRegParser@ATL@@QAEJPA_WPAPA_W@Z 00434780 f i hd.obj
 0001:00033d50       ?wcsstr@@YAPA_WPA_WPB_W@Z  00434d50 f i hd.obj
 0001:00033da0       ?tcsncpy_s@Checked@ATL@@YAHPA_WIPB_WI@Z 00434da0 f i hd.obj
 0001:00033e00       ??0CParseBuffer@CRegParser@ATL@@QAE@H@Z 00434e00 f i hd.obj
 0001:00033e90       ?AtlCoTaskMemCAlloc@ATL@@YAPAXKK@Z 00434e90 f i hd.obj
 0001:00033f30       ??$AtlMultiply@K@ATL@@YAJPAKKK@Z 00434f30 f i hd.obj
 0001:00033f80       ??1CParseBuffer@CRegParser@ATL@@QAE@XZ 00434f80 f i hd.obj
 0001:00033fd0       ?AddChar@CParseBuffer@CRegParser@ATL@@QAEHPB_W@Z 00434fd0 f i hd.obj
 0001:00034020       ?Append@CParseBuffer@CRegParser@ATL@@QAEHPB_WH@Z 00435020 f i hd.obj
 0001:000341a0       ?AtlCoTaskMemRecalloc@ATL@@YAPAXPAXKK@Z 004351a0 f i hd.obj
 0001:00034240       ?AddString@CParseBuffer@CRegParser@ATL@@QAEHPB_W@Z 00435240 f i hd.obj
 0001:00034390       ?Detach@CParseBuffer@CRegParser@ATL@@QAEPA_WXZ 00435390 f i hd.obj
 0001:000343f0       ?StrFromMap@CRegObject@ATL@@QAEPB_WPA_W@Z 004353f0 f i hd.obj
 0001:00034490       ?StrChrW@CRegParser@ATL@@KAPA_WPA_W_W@Z 00435490 f i hd.obj
 0001:00034510       ?RegisterSubkeys@CRegParser@ATL@@IAEJPA_WPAUHKEY__@@HH@Z 00435510 f i hd.obj
 0001:000350d0       ?AtlHresultFromWin32@ATL@@YAJK@Z 004360d0 f i hd.obj
 0001:00035110       ??0CRegKey@ATL@@QAE@XZ     00436110 f i hd.obj
 0001:00035150       ??1CRegKey@ATL@@QAE@XZ     00436150 f i hd.obj
 0001:00035190       ??BCRegKey@ATL@@QBEPAUHKEY__@@XZ 00436190 f i hd.obj
 0001:000351c0       ?Detach@CRegKey@ATL@@QAEPAUHKEY__@@XZ 004361c0 f i hd.obj
 0001:00035210       ?Attach@CRegKey@ATL@@QAEXPAUHKEY__@@@Z 00436210 f i hd.obj
 0001:000352a0       ?DeleteSubKey@CRegKey@ATL@@QAEJPB_W@Z 004362a0 f i hd.obj
 0001:000353b0       ?DeleteValue@CRegKey@ATL@@QAEJPB_W@Z 004363b0 f i hd.obj
 0001:00035450       ?Close@CRegKey@ATL@@QAEJXZ 00436450 f i hd.obj
 0001:000354d0       ?Create@CRegKey@ATL@@QAEJPAUHKEY__@@PB_WPA_WKKPAU_SECURITY_ATTRIBUTES@@PAK@Z 004364d0 f i hd.obj
 0001:000355f0       ?Open@CRegKey@ATL@@QAEJPAUHKEY__@@PB_WK@Z 004365f0 f i hd.obj
 0001:00035720       ?RecurseDeleteKey@CRegKey@ATL@@QAEJPB_W@Z 00436720 f i hd.obj
 0001:00035900       ?AddValue@CRegParser@ATL@@IAEJAAVCRegKey@2@PB_WPA_W@Z 00436900 f i hd.obj
 0001:00036100       ?SetDWORDValue@CRegKey@ATL@@QAEJPB_WK@Z 00437100 f i hd.obj
 0001:000361a0       ?SetStringValue@CRegKey@ATL@@QAEJPB_W0K@Z 004371a0 f i hd.obj
 0001:000362f0       ?SetMultiStringValue@CRegKey@ATL@@QAEJPB_W0@Z 004372f0 f i hd.obj
 0001:00036430       ?VTFromRegType@CRegParser@ATL@@KAHPB_WAAG@Z 00437430 f i hd.obj
 0001:00036530       ?ChToByte@CRegParser@ATL@@KAE_W@Z 00437530 f i hd.obj
 0001:00036670       ?CanForceRemoveKey@CRegParser@ATL@@IAEHPB_W@Z 00437670 f i hd.obj
 0001:000366f0       ?HasSubKeys@CRegParser@ATL@@IAEHPAUHKEY__@@@Z 004376f0 f i hd.obj
 0001:00036810       ?SkipAssignment@CRegParser@ATL@@IAEJPA_W@Z 00437810 f i hd.obj
 0001:00036900       ??0CRegObject@ATL@@QAE@XZ  00437900 f i hd.obj
 0001:000369a0       ??0IRegistrarBase@@QAE@XZ  004379a0 f i hd.obj
 0001:000369f0       ??0CExpansionVector@ATL@@QAE@XZ 004379f0 f i hd.obj
 0001:00036a40       ??0CComAutoDeleteCriticalSection@ATL@@QAE@XZ 00437a40 f i hd.obj
 0001:00036a90       ??0CComSafeDeleteCriticalSection@ATL@@QAE@XZ 00437a90 f i hd.obj
 0001:00036ae0       ??0CComCriticalSection@ATL@@QAE@XZ 00437ae0 f i hd.obj
 0001:00036b30       ??0IUnknown@@QAE@XZ        00437b30 f i hd.obj
 0001:00036b60       ?UpdateRegistryFromResourceS@CAtlModule@ATL@@QAGJIHPAU_ATL_REGMAP_ENTRY@2@@Z 00437b60 f i hd.obj
 0001:00037000       ?ResourceRegister@CRegObject@ATL@@QAGJPB_WI0@Z 00438000 f i hd.obj
 0001:00037110       ?ResourceUnregister@CRegObject@ATL@@QAGJPB_WI0@Z 00438110 f i hd.obj
 0001:00037220       ?AtlGetPerUserRegistration@ATL@@YGJPA_N@Z 00438220 f i hd.obj
 0001:00037270       ??0?$CAtlSafeAllocBufferManager@VCCRTAllocator@ATL@@@_ATL_SAFE_ALLOCA_IMPL@ATL@@QAE@XZ 00438270 f i hd.obj
 0001:000372b0       ??1?$CAtlSafeAllocBufferManager@VCCRTAllocator@ATL@@@_ATL_SAFE_ALLOCA_IMPL@ATL@@QAE@XZ 004382b0 f i hd.obj
 0001:00037320       ?Free@CCRTAllocator@ATL@@SAXPAX@Z 00438320 f i hd.obj
 0001:00037370       ??0?$CAtlModuleT@VCComModule@ATL@@@ATL@@QAE@XZ 00438370 f i hd.obj
 0001:000373c0       ??0CAtlModule@ATL@@QAE@XZ  004383c0 f i hd.obj
 0001:000374f0       ??0_ATL_MODULE70@ATL@@QAE@XZ 004384f0 f i hd.obj
 0001:00037540       ?AddCommonRGSReplacements@?$CAtlModuleT@VCComModule@ATL@@@ATL@@UAEJPAUIRegistrarBase@@@Z 00438540 f i hd.obj
 0001:000375a0       ??0?$CSimpleMap@PA_WPA_WVCExpansionVectorEqualHelper@ATL@@@ATL@@QAE@XZ 004385a0 f i hd.obj
 0001:000375f0       ??1?$CSimpleMap@PA_WPA_WVCExpansionVectorEqualHelper@ATL@@@ATL@@QAE@XZ 004385f0 f i hd.obj
 0001:00037630       ?GetSize@?$CSimpleMap@PA_WPA_WVCExpansionVectorEqualHelper@ATL@@@ATL@@QBEHXZ 00438630 f i hd.obj
 0001:00037660       ?Add@?$CSimpleMap@PA_WPA_WVCExpansionVectorEqualHelper@ATL@@@ATL@@QAEHABQA_W0@Z 00438660 f i hd.obj
 0001:00037740       ?RemoveAll@?$CSimpleMap@PA_WPA_WVCExpansionVectorEqualHelper@ATL@@@ATL@@QAEXXZ 00438740 f i hd.obj
 0001:00037800       ?Lookup@?$CSimpleMap@PA_WPA_WVCExpansionVectorEqualHelper@ATL@@@ATL@@QBEPA_WABQA_W@Z 00438800 f i hd.obj
 0001:00037860       ?GetKeyAt@?$CSimpleMap@PA_WPA_WVCExpansionVectorEqualHelper@ATL@@@ATL@@QBEAAPA_WH@Z 00438860 f i hd.obj
 0001:00037900       ?_AtlRaiseException@ATL@@YAXKK@Z 00438900 f i hd.obj
 0001:00037950       ?GetValueAt@?$CSimpleMap@PA_WPA_WVCExpansionVectorEqualHelper@ATL@@@ATL@@QBEAAPA_WH@Z 00438950 f i hd.obj
 0001:000379f0       ??0?$CAutoVectorPtr@_W@ATL@@QAE@XZ 004389f0 f i hd.obj
 0001:00037a30       ??1?$CAutoVectorPtr@_W@ATL@@QAE@XZ 00438a30 f i hd.obj
 0001:00037a70       ?Attach@?$CAutoVectorPtr@_W@ATL@@QAEXPA_W@Z 00438a70 f i hd.obj
 0001:00037af0       ?Detach@?$CAutoVectorPtr@_W@ATL@@QAEPA_WXZ 00438af0 f i hd.obj
 0001:00037b30       ??0?$CTempBuffer@_W$0EAA@VCCRTAllocator@ATL@@@ATL@@QAE@XZ 00438b30 f i hd.obj
 0001:00037b70       ??1?$CTempBuffer@_W$0EAA@VCCRTAllocator@ATL@@@ATL@@QAE@XZ 00438b70 f i hd.obj
 0001:00037bc0       ??B?$CTempBuffer@_W$0EAA@VCCRTAllocator@ATL@@@ATL@@QBEPA_WXZ 00438bc0 f i hd.obj
 0001:00037bf0       ?Allocate@?$CTempBuffer@_W$0EAA@VCCRTAllocator@ATL@@@ATL@@QAEPA_WI@Z 00438bf0 f i hd.obj
 0001:00037c40       ??0?$CTempBuffer@_W$0BAA@VCCRTAllocator@ATL@@@ATL@@QAE@XZ 00438c40 f i hd.obj
 0001:00037c80       ??1?$CTempBuffer@_W$0BAA@VCCRTAllocator@ATL@@@ATL@@QAE@XZ 00438c80 f i hd.obj
 0001:00037cd0       ??B?$CTempBuffer@_W$0BAA@VCCRTAllocator@ATL@@@ATL@@QBEPA_WXZ 00438cd0 f i hd.obj
 0001:00037d00       ?Allocate@?$CTempBuffer@_W$0BAA@VCCRTAllocator@ATL@@@ATL@@QAEPA_WI@Z 00438d00 f i hd.obj
 0001:00037d50       ??0?$CTempBuffer@E$0BAA@VCCRTAllocator@ATL@@@ATL@@QAE@XZ 00438d50 f i hd.obj
 0001:00037d90       ??1?$CTempBuffer@E$0BAA@VCCRTAllocator@ATL@@@ATL@@QAE@XZ 00438d90 f i hd.obj
 0001:00037de0       ??B?$CTempBuffer@E$0BAA@VCCRTAllocator@ATL@@@ATL@@QBEPAEXZ 00438de0 f i hd.obj
 0001:00037e10       ?Allocate@?$CTempBuffer@E$0BAA@VCCRTAllocator@ATL@@@ATL@@QAEPAEI@Z 00438e10 f i hd.obj
 0001:00037e60       ?InitLibId@?$CAtlModuleT@VCComModule@ATL@@@ATL@@SAXXZ 00438e60 f i hd.obj
 0001:00037e90       ?GetAppId@?$CAtlModuleT@VCComModule@ATL@@@ATL@@SAPB_WXZ 00438e90 f i hd.obj
 0001:00037ec0       ?FindKey@?$CSimpleMap@PA_WPA_WVCExpansionVectorEqualHelper@ATL@@@ATL@@QBEHABQA_W@Z 00438ec0 f i hd.obj
 0001:00037f50       ?IsEqualKey@CExpansionVectorEqualHelper@ATL@@SA_NQA_W0@Z 00438f50 f i hd.obj
 0001:00037fb0       ?InternalSetAtIndex@?$CSimpleMap@PA_WPA_WVCExpansionVectorEqualHelper@ATL@@@ATL@@QAEXHABQA_W0@Z 00438fb0 f i hd.obj
 0001:000380e0       ?Free@?$CAutoVectorPtr@_W@ATL@@QAEXXZ 004390e0 f i hd.obj
 0001:00038140       ?AllocateBytes@?$CTempBuffer@_W$0EAA@VCCRTAllocator@ATL@@@ATL@@QAEPA_WI@Z 00439140 f i hd.obj
 0001:000381e0       ?FreeHeap@?$CTempBuffer@_W$0EAA@VCCRTAllocator@ATL@@@ATL@@AAEXXZ 004391e0 f i hd.obj
 0001:00038230       ?AllocateBytes@?$CTempBuffer@_W$0BAA@VCCRTAllocator@ATL@@@ATL@@QAEPA_WI@Z 00439230 f i hd.obj
 0001:000382d0       ?FreeHeap@?$CTempBuffer@_W$0BAA@VCCRTAllocator@ATL@@@ATL@@AAEXXZ 004392d0 f i hd.obj
 0001:00038320       ?AllocateBytes@?$CTempBuffer@E$0BAA@VCCRTAllocator@ATL@@@ATL@@QAEPAEI@Z 00439320 f i hd.obj
 0001:000383c0       ?FreeHeap@?$CTempBuffer@E$0BAA@VCCRTAllocator@ATL@@@ATL@@AAEXXZ 004393c0 f i hd.obj
 0001:00038410       ?AllocateHeap@?$CTempBuffer@_W$0EAA@VCCRTAllocator@ATL@@@ATL@@AAEXI@Z 00439410 f i hd.obj
 0001:00038470       ?Allocate@CCRTAllocator@ATL@@SAPAXI@Z 00439470 f i hd.obj
 0001:000384c0       ?AllocateHeap@?$CTempBuffer@_W$0BAA@VCCRTAllocator@ATL@@@ATL@@AAEXI@Z 004394c0 f i hd.obj
 0001:00038520       ?AllocateHeap@?$CTempBuffer@E$0BAA@VCCRTAllocator@ATL@@@ATL@@AAEXI@Z 00439520 f i hd.obj
 0001:00038580       ??0?$Wrapper@PA_W@?$CSimpleMap@PA_WPA_WVCExpansionVectorEqualHelper@ATL@@@ATL@@QAE@ABQA_W@Z 00439580 f i hd.obj
 0001:000385c0       ??$AtlMultiplyThrow@I@ATL@@YAIII@Z 004395c0 f i hd.obj
 0001:00038650       ??$AtlMultiply@I@ATL@@YAJPAIII@Z 00439650 f i hd.obj
 0001:000386a0       ??$?2PA_W@?$Wrapper@PA_W@?$CSimpleMap@PA_WPA_WVCExpansionVectorEqualHelper@ATL@@@ATL@@SAPAXIPAPA_W@Z 004396a0 f i hd.obj
 0001:000386d0       ??$?3PA_W@?$Wrapper@PA_W@?$CSimpleMap@PA_WPA_WVCExpansionVectorEqualHelper@ATL@@@ATL@@SAXPAXPAPA_W@Z 004396d0 f i hd.obj
 0001:00038700       ?ShowBackTipDialog@@YAHXZ  00439700 f   hd2.obj
 0001:00038770       ?CloseBKTipDialog@@YAHXZ   00439770 f   hd2.obj
 0001:000387f0       ?BackTipDialog@@YGHPAUHWND__@@IIJ@Z 004397f0 f   hd2.obj
 0001:00038a10       ?DrawTitleBar@@YAHPAUHDC__@@@Z 00439a10 f   hd2.obj
 0001:000390f0       ?DrawExpandBtn@@YAHPAUtagDRAWITEMSTRUCT@@@Z 0043a0f0 f   hd2.obj
 0001:00039300       ?OnNCMouseMove@@YAHPAUHDC__@@J@Z 0043a300 f   hd2.obj
 0001:00039670       ?OnNCLBDown@@YAHPAUHDC__@@J@Z 0043a670 f   hd2.obj
 0001:00039970       ?OnNCLBUp@@YAHPAUHDC__@@J@Z 0043a970 f   hd2.obj
 0001:000399a0       ?CreateAutoReserveFile@@YAHXZ 0043a9a0 f   hd2.obj
 0001:00039b60       ?AddARFL@@YAHPAUsFileItem@@@Z 0043ab60 f   hd2.obj
 0001:00039f00       ?IsInARFL@@YAHPAUsFileItem@@@Z 0043af00 f   hd2.obj
 0001:0003a3c0       ?DelItem@@YAHPAUsFileItem@@@Z 0043b3c0 f   hd2.obj
 0001:0003a9d0       ?HMF_Create@@YAHXZ         0043b9d0 f   hd2.obj
 0001:0003ab90       ?HMF_Modify@@YAHPAUsHMF_Item@@G@Z 0043bb90 f   hd2.obj
 0001:0003b620       ?IsUseSkin@@YAHXZ          0043c620 f   hd2.obj
 0001:0003b710       ?GetOSVersion@@YAKXZ       0043c710 f   hd2.obj
 0001:0003b7c0       ?ChangeWindowStyle@@YAHPAUHWND__@@H@Z 0043c7c0 f   hd2.obj
 0001:0003b850       ?GetSysLangLoadLang@@YAHXZ 0043c850 f   hd2.obj
 0001:0003b8b0       ?SetCurrentLanguage@@YAHXZ 0043c8b0 f   hd2.obj
 0001:0003bc60       ?LoadLanguage@@YAHPA_W0@Z  0043cc60 f   hd2.obj
 0001:0003c120       ?SetDialogTextW@@YAHPAPAUHWND__@@I@Z 0043d120 f   hd2.obj
 0001:0003c3f0       ?EnumDlgChildProcW@@YGHPAUHWND__@@J@Z 0043d3f0 f   hd2.obj
 0001:0003c740       ?LoadItemStringW@@YAPA_WPA_W00@Z 0043d740 f   hd2.obj
 0001:0003c8f0       ?SetMenuString@@YAHXZ      0043d8f0 f   hd2.obj
 0001:0003dcc0       ?SetDlgItemStringW@@YAHPAUHWND__@@II@Z 0043ecc0 f   hd2.obj
 0001:0003df30       ?MakeLanguageMenu@@YAHXZ   0043ef30 f   hd2.obj
 0001:0003e500       ?HDMessageBoxW@@YAHPA_W0PAUHWND__@@I@Z 0043f500 f   hd2.obj
 0001:0003e620       ?LoadLanguageBaseID@@YAHG@Z 0043f620 f   hd2.obj
 0001:0003eba0       ?UpdateLanguagePack@@YAHXZ 0043fba0 f   hd2.obj
 0001:0003ec30       ?UpdateLangPack@@YGIPAX@Z  0043fc30 f   hd2.obj
 0001:0003f8a0       ?AutoUpdateThreadProc@@YGIPAX@Z 004408a0 f   hd2.obj
 0001:0003fed0       ?rarCallback@@YGHIJJJ@Z    00440ed0 f   hd2.obj
 0001:0003ff20       ?IsHaveUpdatedFile@@YAHXZ  00440f20 f   hd2.obj
 0001:00040150       ?IsHaveTempDirectory@@YAHXZ 00441150 f   hd2.obj
 0001:00040660       ?SetWindowTransparent@@YAHPAUHWND__@@H@Z 00441660 f   hd2.obj
 0001:00040860       ?SetTipText@@YAHPA_W0@Z    00441860 f   hd2.obj
 0001:00040900       ?ClearTipTextArray@@YAHXZ  00441900 f   hd2.obj
 0001:000409f0       ?AppendTipText@@YAHPA_W0@Z 004419f0 f   hd2.obj
 0001:00040b50       ?GetFunctionPointer@@YAHXZ 00441b50 f   hd2.obj
 0001:00040bf0       ?BKCurrentWindow@@YAHH@Z   00441bf0 f   hd2.obj
 0001:00040db0       ?Switch2BKTab@@YAHXZ       00441db0 f   hd2.obj
 0001:00040e10       ?ConstructBKSW@@YAHPA_W0PAUHWND__@@@Z 00441e10 f   hd2.obj
 0001:000416c0       ?SetBkWndHotkey@@YAHH@Z    004426c0 f   hd2.obj
 0001:00041b40       ?BkWndHotkeyProc@@YGHPAUHWND__@@IIJ@Z 00442b40 f   hd2.obj
 0001:00042870       ?UnRegisterHK@@YAHHPAUWndAndHandle@@@Z 00443870 f   hd2.obj
 0001:00042f90       ?BKRegistered@@YAHPAUsBKWHotkey@@@Z 00443f90 f   hd2.obj
 0001:00043300       ?ChangeWindowIcon@@YAHHPA_W@Z 00444300 f   hd2.obj
 0001:00045040       ??1?$_Iterator@$00@?$list@PAUsIconTitle@@V?$allocator@PAUsIconTitle@@@std@@@std@@QAE@XZ 00446040 f i hd2.obj
 0001:00045080       ??1?$_Iterator@$00@?$list@PAUsTitleWnd@@V?$allocator@PAUsTitleWnd@@@std@@@std@@QAE@XZ 00446080 f i hd2.obj
 0001:000450c0       ??0sIconTitle@@QAE@XZ      004460c0 f i hd2.obj
 0001:00045110       ??4?$_Iterator@$00@?$list@PAUsIconTitle@@V?$allocator@PAUsIconTitle@@@std@@@std@@QAEAAV012@ABV012@@Z 00446110 f i hd2.obj
 0001:00045160       ??4?$_Iterator@$00@?$list@PAUsTitleWnd@@V?$allocator@PAUsTitleWnd@@@std@@@std@@QAEAAV012@ABV012@@Z 00446160 f i hd2.obj
 0001:000451b0       ??_GsIconTitle@@QAEPAXI@Z  004461b0 f i hd2.obj
 0001:00045210       ??1?$_Const_iterator@$00@?$list@PAUsIconTitle@@V?$allocator@PAUsIconTitle@@@std@@@std@@QAE@XZ 00446210 f i hd2.obj
 0001:00045250       ??1?$_Const_iterator@$00@?$list@PAUsTitleWnd@@V?$allocator@PAUsTitleWnd@@@std@@@std@@QAE@XZ 00446250 f i hd2.obj
 0001:00045290       ??4?$_Const_iterator@$00@?$list@PAUsIconTitle@@V?$allocator@PAUsIconTitle@@@std@@@std@@QAEAAV012@ABV012@@Z 00446290 f i hd2.obj
 0001:000452f0       ??4?$_Const_iterator@$00@?$list@PAUsTitleWnd@@V?$allocator@PAUsTitleWnd@@@std@@@std@@QAEAAV012@ABV012@@Z 004462f0 f i hd2.obj
 0001:00045350       ??1sIconTitle@@QAE@XZ      00446350 f i hd2.obj
 0001:00045390       ??1?$_Bidit@PAUsIconTitle@@HPBQAU1@ABQAU1@@std@@QAE@XZ 00446390 f i hd2.obj
 0001:000453d0       ??1?$_Bidit@PAUsTitleWnd@@HPBQAU1@ABQAU1@@std@@QAE@XZ 004463d0 f i hd2.obj
 0001:00045410       ??4?$_Bidit@PAUsIconTitle@@HPBQAU1@ABQAU1@@std@@QAEAAU01@ABU01@@Z 00446410 f i hd2.obj
 0001:00045460       ??4?$_Bidit@PAUsTitleWnd@@HPBQAU1@ABQAU1@@std@@QAEAAU01@ABU01@@Z 00446460 f i hd2.obj
 0001:000454b0       ??1?$_Iterator_with_base@Ubidirectional_iterator_tag@std@@PAUsIconTitle@@HPBQAU3@ABQAU3@V_Iterator_base@2@@std@@QAE@XZ 004464b0 f i hd2.obj
 0001:000454f0       ??1?$_Iterator_with_base@Ubidirectional_iterator_tag@std@@PAUsTitleWnd@@HPBQAU3@ABQAU3@V_Iterator_base@2@@std@@QAE@XZ 004464f0 f i hd2.obj
 0001:00045530       ??4?$_Iterator_with_base@Ubidirectional_iterator_tag@std@@PAUsIconTitle@@HPBQAU3@ABQAU3@V_Iterator_base@2@@std@@QAEAAU01@ABU01@@Z 00446530 f i hd2.obj
 0001:00045580       ??4?$_Iterator_with_base@Ubidirectional_iterator_tag@std@@PAUsTitleWnd@@HPBQAU3@ABQAU3@V_Iterator_base@2@@std@@QAEAAU01@ABU01@@Z 00446580 f i hd2.obj
 0001:000455d0       ?ChangeWndTitle@@YAHHPA_W@Z 004465d0 f   hd2.obj
 0001:00045cf0       ?ChangeTitle@@YAHPA_WPAUsIconTitle@@@Z 00446cf0 f   hd2.obj
 0001:00046550       ??0?$_Const_iterator@$00@?$list@PAUsTitleWnd@@V?$allocator@PAUsTitleWnd@@@std@@@std@@QAE@ABV012@@Z 00447550 f i hd2.obj
 0001:000465b0       ??0?$_Bidit@PAUsTitleWnd@@HPBQAU1@ABQAU1@@std@@QAE@ABU01@@Z 004475b0 f i hd2.obj
 0001:00046600       ??0?$_Iterator_with_base@Ubidirectional_iterator_tag@std@@PAUsTitleWnd@@HPBQAU3@ABQAU3@V_Iterator_base@2@@std@@QAE@ABU01@@Z 00447600 f i hd2.obj
 0001:00046650       ?ChangeWndTitleProc@@YGHPAUHWND__@@IIJ@Z 00447650 f   hd2.obj
 0001:00047830       ?CheckTitleIconTimer@@YGXPAUHWND__@@IIK@Z 00448830 f   hd2.obj
 0001:00047d10       ?RestoreTitle@@YAHHH@Z     00448d10 f   hd2.obj
 0001:00048650       ??0?$_Const_iterator@$00@?$list@PAUsIconTitle@@V?$allocator@PAUsIconTitle@@@std@@@std@@QAE@ABV012@@Z 00449650 f i hd2.obj
 0001:000486b0       ??0?$_Bidit@PAUsIconTitle@@HPBQAU1@ABQAU1@@std@@QAE@ABU01@@Z 004496b0 f i hd2.obj
 0001:00048700       ??0?$_Iterator_with_base@Ubidirectional_iterator_tag@std@@PAUsIconTitle@@HPBQAU3@ABQAU3@V_Iterator_base@2@@std@@QAE@ABU01@@Z 00449700 f i hd2.obj
 0001:00048750       ?RestoreIcon@@YAHHKH@Z     00449750 f   hd2.obj
 0001:00049170       ?Save2AutoHideList@@YAHH@Z 0044a170 f   hd2.obj
 0001:00049530       ?SetWindowToTop@@YAHH@Z    0044a530 f   hd2.obj
 0001:00049760       ?Insert2AutoHideList@@YAHPAUAutoHideItem@@@Z 0044a760 f   hd2.obj
 0001:000498d0       ?ShowPropertyDialog@@YAHH@Z 0044a8d0 f   hd2.obj
 0001:0004afe0       ??0sProperty@@QAE@XZ       0044bfe0 f i hd2.obj
 0001:0004b030       ??_GsProperty@@QAEPAXI@Z   0044c030 f i hd2.obj
 0001:0004b090       ??1sProperty@@QAE@XZ       0044c090 f i hd2.obj
 0001:0004b0d0       ?PropertyProc@@YGHPAUHWND__@@IIJ@Z 0044c0d0 f   hd2.obj
 0001:0004b190       ?DelBKHotKeyNode@@YAHXZ    0044c190 f   hd2.obj
 0001:0004b750       ?IsInRegBKHK@@YAHPAUWndAndHandle@@@Z 0044c750 f   hd2.obj
 0001:0004b950       ?IsInBKList@@YAHPA_W@Z     0044c950 f   hd2.obj
 0001:0004bad0       ?DelTitleNode@@YAHXZ       0044cad0 f   hd2.obj
 0001:0004c2e0       ?DelIconNode@@YAHXZ        0044d2e0 f   hd2.obj
 0001:0004cae0       ?IsInITList@@YAHPA_W@Z     0044dae0 f   hd2.obj
 0001:0004cdb0       ?FillTitleHandleColumn@@YAHPAUHWND__@@@Z 0044ddb0 f   hd2.obj
 0001:0004d070       ?CreatePropertyDialog@@YAHPAUsProperty@@@Z 0044e070 f   hd2.obj
 0001:0004d440       ?GeneralPageProc@@YGHPAUHWND__@@IIJ@Z 0044e440 f   hd2.obj
 0001:0004db80       ?AddtionalPageProc@@YGHPAUHWND__@@IIJ@Z 0044eb80 f   hd2.obj
 0001:0004e380       ?SaveWindowInfo@@YAHPAUWndAndHandle@@H@Z 0044f380 f   hd2.obj
 0001:0004e8a0       ?ReadWndInfo@@YAHPAUWndAndHandle@@PAH@Z 0044f8a0 f   hd2.obj
 0001:0004ed50       ?ResumeTipProc@@YGHPAUHWND__@@IIJ@Z 0044fd50 f   hd2.obj
 0001:0004eed0       ?FillColumn@@YAHPAUHWND__@@@Z 0044fed0 f   hd2.obj
 0001:0004efa0       ?FillRow@@YAHPAUHWND__@@PAUWndAndHandle@@@Z 0044ffa0 f   hd2.obj
 0001:0004f0c0       ?TakeToBk@@YAHPAUWndAndHandle@@@Z 004500c0 f   hd2.obj
 0001:0004f480       ?BKHided@@YAHXZ            00450480 f   hd2.obj
 0001:0004f5c0       ?SetWindowListViewColumn@@YAHPAUHWND__@@@Z 004505c0 f   hd2.obj
 0001:0004f940       ?SetBKListColumn@@YAHPAUHWND__@@@Z 00450940 f   hd2.obj
 0001:0004fcc0       ?SetTrayListColumn@@YAHPAUHWND__@@@Z 00450cc0 f   hd2.obj
 0001:00050040       ?SetIPListColumn@@YAHPAUHWND__@@@Z 00451040 f   hd2.obj
 0001:00050100       ?SetProcessListColumn@@YAHPAUHWND__@@@Z 00451100 f   hd2.obj
 0001:000503a0       ?SetAHListColumn@@YAHPAUHWND__@@@Z 004513a0 f   hd2.obj
 0001:00050660       ?ResetPriTree@@YAHXZ       00451660 f   hd2.obj
 0001:00050730       ?TipIfExit@@YAHXZ          00451730 f   hd2.obj
 0001:000507a0       ?Compatible25@@YAHXZ       004517a0 f   hd2.obj
 0001:00050820       ?DeleteDir@@YAHPA_W@Z      00451820 f   hd2.obj
 0001:000508e0       ?RestoreAllIconTitle@@YAHXZ 004518e0 f   hd2.obj
 0001:00050980       ?GetCurrentDirectory_HD@@YAHHPA_W@Z 00451980 f   hd2.obj
 0001:00050a00       ?RegisterBKHotkey@@YAHPAUWndAndHandle@@@Z 00451a00 f   hd2.obj
 0001:00050dc0       ?GetProcessTrayIcon@@YAHKPAU_TBBUTTON@@PAUTRAYDATA@@@Z 00451dc0 f   hd2.obj
 0001:00051060       ?DelInvalidTrayIcon@@YAHXZ 00452060 f   hd2.obj
 0001:00051090       ?FindTaskbarWnd@@YAPAUHWND__@@XZ 00452090 f   hd2.obj
 0001:00051160       ?IsInSW@@YAHPAUHWND__@@@Z  00452160 f   hd2.obj
 0001:000511f0       ?IsInBKSW@@YAHPAUHWND__@@@Z 004521f0 f   hd2.obj
 0001:00051260       ?AppendSW@@YAHPAUHWND__@@@Z 00452260 f   hd2.obj
 0001:00051410       ?GetProcessName@@YAHKPA_W@Z 00452410 f   hd2.obj
 0001:000515d0       ?DoCreateTabControl@@YGPAUHWND__@@PAU1@@Z 004525d0 f   hd2.obj
 0001:00051990       ?CreateImageListForTab@@YAHXZ 00452990 f   hd2.obj
 0001:00051c40       ?DestroyImageListForTab@@YAHXZ 00452c40 f   hd2.obj
 0001:00051c90       ?SetTabLanguage@@YAHXZ     00452c90 f   hd2.obj
 0001:00051e70       ?DoCreateDisplayWindow@@YGPAUHWND__@@PAU1@@Z 00452e70 f   hd2.obj
 0001:00051ef0       ?OnTabSelChange@@YAHH@Z    00452ef0 f   hd2.obj
 0001:00052040       ?ShowAllWndPage@@YAHXZ     00453040 f   hd2.obj
 0001:00052160       ?ShowWebPage@@YAHXZ        00453160 f   hd2.obj
 0001:00052310       ?ShowTrayPage@@YAHXZ       00453310 f   hd2.obj
 0001:00052430       ?ShowBKPage@@YAHXZ         00453430 f   hd2.obj
 0001:00052550       ?ShowProcessPage@@YAHXZ    00453550 f   hd2.obj
 0001:00052670       ?ShowCleanPage@@YAHXZ      00453670 f   hd2.obj
 0001:000527c0       ?ShowHideIPPage@@YAHXZ     004537c0 f   hd2.obj
 0001:00052920       ?ShowAutoHidePage@@YAHXZ   00453920 f   hd2.obj
 0001:00052a40       ?HideOtherPage@@YAHH@Z     00453a40 f   hd2.obj
 0001:00052ac0       ?AllWndPageProc@@YGHPAUHWND__@@IIJ@Z 00453ac0 f   hd2.obj
 0001:00053910       ?WebPageProc@@YGHPAUHWND__@@IIJ@Z 00454910 f   hd2.obj
 0001:00053f40       ?TrayPageProc@@YGHPAUHWND__@@IIJ@Z 00454f40 f   hd2.obj
 0001:00054a90       ?AddTrayListHeader@@YAHXZ  00455a90 f   hd2.obj
 0001:00054e70       ?FillTrayList@@YAHXZ       00455e70 f   hd2.obj
 0001:00055110       ?FillAutoHideList@@YAHXZ   00456110 f   hd2.obj
 0001:000552b0       ?AddTrayAutoHide@@YAHXZ    004562b0 f   hd2.obj
 0001:00055630       ?BKTrayIcon@@YAHXZ         00456630 f   hd2.obj
 0001:00055790       ?CleanHistory@@YAHXZ       00456790 f   hd2.obj
 0001:000557f0       ?AddProcessListColumn@@YAHXZ 004567f0 f   hd2.obj
 0001:00055a90       ?AllocMemForProcessList@@YAHXZ 00456a90 f   hd2.obj
 0001:00055b90       ?FillProcessList@@YAHXZ    00456b90 f   hd2.obj
 0001:00055ed0       ?ProcessPageProc@@YGHPAUHWND__@@IIJ@Z 00456ed0 f   hd2.obj
 0001:00056750       ?HideIPPageProc@@YGHPAUHWND__@@IIJ@Z 00457750 f   hd2.obj
 0001:000567e0       ?AddAutoHideListHeader@@YAHXZ 004577e0 f   hd2.obj
 0001:00056a80       ?AutoHideProc@@YGHPAUHWND__@@IIJ@Z 00457a80 f   hd2.obj
 0001:00057290       ?OpenFileThreadProc@@YGIPAX@Z 00458290 f   hd2.obj
 0001:00057a70       ?AddAutoHideFromFile@@YAHXZ 00458a70 f   hd2.obj
 0001:00057af0       ?DelAutoHideItem@@YAHXZ    00458af0 f   hd2.obj
 0001:00057d80       ?BKPageProc@@YGHPAUHWND__@@IIJ@Z 00458d80 f   hd2.obj
 0001:00058720       ?CreateInfoPanel@@YAHXZ    00459720 f   hd2.obj
 0001:00058820       ?InfoPanelProc@@YGHPAUHWND__@@IIJ@Z 00459820 f   hd2.obj
 0001:00058b90       ?ExpendInfoPanel@@YAHH@Z   00459b90 f   hd2.obj
 0001:000590d0       ?ResizeInfoPanel@@YAHXZ    0045a0d0 f   hd2.obj
 0001:00059580       ?ResizeTabWnd@@YAHXZ       0045a580 f   hd2.obj
 0001:00059b80       ?InitTab@@YAHXZ            0045ab80 f   hd2.obj
 0001:00059c10       ?DoCreateStatusBar@@YAPAUHWND__@@XZ 0045ac10 f   hd2.obj
 0001:00059e60       ?SetStatusLanguage@@YAHXZ  0045ae60 f   hd2.obj
 0001:00059fb0       ?SavePosSize@@YAHXZ        0045afb0 f   hd2.obj
 0001:0005a0f0       ?SetWindowSizePos@@YAHXZ   0045b0f0 f   hd2.obj
 0001:0005a340       ?ChangeMenuState@@YAHH@Z   0045b340 f   hd2.obj
 0001:0005a7c0       ?CreateAutoChangeThread@@YAHXZ 0045b7c0 f   hd2.obj
 0001:0005a840       ?CreateAutoHideThread@@YAHXZ 0045b840 f   hd2.obj
 0001:0005a8d0       ?AllocProcessList@@YAHXZ   0045b8d0 f   hd2.obj
 0001:0005aaf0       ?ResetPorcessList@@YAHAAV?$list@PAUNewProcessInfo@@V?$allocator@PAUNewProcessInfo@@@std@@@std@@@Z 0045baf0 f   hd2.obj
 0001:0005ac90       ??1?$_Iterator@$00@?$list@PAUNewProcessInfo@@V?$allocator@PAUNewProcessInfo@@@std@@@std@@QAE@XZ 0045bc90 f i hd2.obj
 0001:0005acd0       ??4?$_Iterator@$00@?$list@PAUNewProcessInfo@@V?$allocator@PAUNewProcessInfo@@@std@@@std@@QAEAAV012@ABV012@@Z 0045bcd0 f i hd2.obj
 0001:0005ad20       ??1?$_Const_iterator@$00@?$list@PAUNewProcessInfo@@V?$allocator@PAUNewProcessInfo@@@std@@@std@@QAE@XZ 0045bd20 f i hd2.obj
 0001:0005ad60       ??4?$_Const_iterator@$00@?$list@PAUNewProcessInfo@@V?$allocator@PAUNewProcessInfo@@@std@@@std@@QAEAAV012@ABV012@@Z 0045bd60 f i hd2.obj
 0001:0005adc0       ??1?$_Bidit@PAUNewProcessInfo@@HPBQAU1@ABQAU1@@std@@QAE@XZ 0045bdc0 f i hd2.obj
 0001:0005ae00       ??4?$_Bidit@PAUNewProcessInfo@@HPBQAU1@ABQAU1@@std@@QAEAAU01@ABU01@@Z 0045be00 f i hd2.obj
 0001:0005ae50       ??1?$_Iterator_with_base@Ubidirectional_iterator_tag@std@@PAUNewProcessInfo@@HPBQAU3@ABQAU3@V_Iterator_base@2@@std@@QAE@XZ 0045be50 f i hd2.obj
 0001:0005ae90       ??4?$_Iterator_with_base@Ubidirectional_iterator_tag@std@@PAUNewProcessInfo@@HPBQAU3@ABQAU3@V_Iterator_base@2@@std@@QAEAAU01@ABU01@@Z 0045be90 f i hd2.obj
 0001:0005aee0       ?FreeProcessList@@YAHAAV?$list@PAUNewProcessInfo@@V?$allocator@PAUNewProcessInfo@@@std@@@std@@@Z 0045bee0 f   hd2.obj
 0001:0005b0f0       ??0?$_Const_iterator@$00@?$list@PAUNewProcessInfo@@V?$allocator@PAUNewProcessInfo@@@std@@@std@@QAE@ABV012@@Z 0045c0f0 f i hd2.obj
 0001:0005b150       ??0?$_Bidit@PAUNewProcessInfo@@HPBQAU1@ABQAU1@@std@@QAE@ABU01@@Z 0045c150 f i hd2.obj
 0001:0005b1a0       ??0?$_Iterator_with_base@Ubidirectional_iterator_tag@std@@PAUNewProcessInfo@@HPBQAU3@ABQAU3@V_Iterator_base@2@@std@@QAE@ABU01@@Z 0045c1a0 f i hd2.obj
 0001:0005b1f0       ?GetNewProcessName@@YAHAAV?$list@PAUNewProcessInfo@@V?$allocator@PAUNewProcessInfo@@@std@@@std@@@Z 0045c1f0 f   hd2.obj
 0001:0005b4b0       ?Add2NewProcessList@@YAHPAUNewProcessInfo@@@Z 0045c4b0 f   hd2.obj
 0001:0005b670       ?GetProcessList@@YAHAAV?$list@PAUNewProcessInfo@@V?$allocator@PAUNewProcessInfo@@@std@@@std@@@Z 0045c670 f   hd2.obj
 0001:0005b920       ?AutoHideThreadProc@@YGIPAX@Z 0045c920 f   hd2.obj
 0001:0005b9e0       ?ReadDBProcessList@@YAHXZ  0045c9e0 f   hd2.obj
 0001:0005bb60       ?Insert2DBProcessList@@YAHPAUAutoHideItem@@@Z 0045cb60 f   hd2.obj
 0001:0005bc60       ?AddDBPorcessList@@YAHPAUAutoHideItem@@@Z 0045cc60 f   hd2.obj
 0001:0005bd60       ?DelDBProcessList@@YAHPAUAutoHideItem@@@Z 0045cd60 f   hd2.obj
 0001:0005bfc0       ??1?$_Iterator@$00@?$list@PAUAutoHideItem@@V?$allocator@PAUAutoHideItem@@@std@@@std@@QAE@XZ 0045cfc0 f i hd2.obj
 0001:0005c000       ??4?$_Iterator@$00@?$list@PAUAutoHideItem@@V?$allocator@PAUAutoHideItem@@@std@@@std@@QAEAAV012@ABV012@@Z 0045d000 f i hd2.obj
 0001:0005c050       ??0?$_Const_iterator@$00@?$list@PAUAutoHideItem@@V?$allocator@PAUAutoHideItem@@@std@@@std@@QAE@ABV012@@Z 0045d050 f i hd2.obj
 0001:0005c0b0       ??1?$_Const_iterator@$00@?$list@PAUAutoHideItem@@V?$allocator@PAUAutoHideItem@@@std@@@std@@QAE@XZ 0045d0b0 f i hd2.obj
 0001:0005c0f0       ??4?$_Const_iterator@$00@?$list@PAUAutoHideItem@@V?$allocator@PAUAutoHideItem@@@std@@@std@@QAEAAV012@ABV012@@Z 0045d0f0 f i hd2.obj
 0001:0005c150       ??0?$_Bidit@PAUAutoHideItem@@HPBQAU1@ABQAU1@@std@@QAE@ABU01@@Z 0045d150 f i hd2.obj
 0001:0005c1a0       ??1?$_Bidit@PAUAutoHideItem@@HPBQAU1@ABQAU1@@std@@QAE@XZ 0045d1a0 f i hd2.obj
 0001:0005c1e0       ??4?$_Bidit@PAUAutoHideItem@@HPBQAU1@ABQAU1@@std@@QAEAAU01@ABU01@@Z 0045d1e0 f i hd2.obj
 0001:0005c230       ??0?$_Iterator_with_base@Ubidirectional_iterator_tag@std@@PAUAutoHideItem@@HPBQAU3@ABQAU3@V_Iterator_base@2@@std@@QAE@ABU01@@Z 0045d230 f i hd2.obj
 0001:0005c280       ??1?$_Iterator_with_base@Ubidirectional_iterator_tag@std@@PAUAutoHideItem@@HPBQAU3@ABQAU3@V_Iterator_base@2@@std@@QAE@XZ 0045d280 f i hd2.obj
 0001:0005c2c0       ??4?$_Iterator_with_base@Ubidirectional_iterator_tag@std@@PAUAutoHideItem@@HPBQAU3@ABQAU3@V_Iterator_base@2@@std@@QAEAAU01@ABU01@@Z 0045d2c0 f i hd2.obj
 0001:0005c310       ?ReleaseDBProcessList@@YAHXZ 0045d310 f   hd2.obj
 0001:0005c520       ?HideAutoHideItem@@YAHPAUAutoHideItem@@@Z 0045d520 f   hd2.obj
 0001:0005c9c0       ?AutoChangeIconTitle@@YGIPAX@Z 0045d9c0 f   hd2.obj
 0001:0005cdc0       ?SaveAutoChangeIconTitle@@YAHXZ 0045ddc0 f   hd2.obj
 0001:0005ce70       ?SaveChangedIconInfo@@YAHPAUIconTitleItem@@@Z 0045de70 f   hd2.obj
 0001:0005cf40       ?SaveChangedTitleInfo@@YAHPAUIconTitleItem@@@Z 0045df40 f   hd2.obj
 0001:0005d010       ?IsInIconTitleDB@@YAHPAUIconTitleItem@@@Z 0045e010 f   hd2.obj
 0001:0005d0f0       ?ChangeTitleIcon@@YAHKPAUIconTitleItem@@@Z 0045e0f0 f   hd2.obj
 0001:0005d2f0       ?IsInIconList@@YAHPAUIconTitleItem@@PA_W@Z 0045e2f0 f   hd2.obj
 0001:0005d740       ?IsInTitleList@@YAHPAUIconTitleItem@@PA_W@Z 0045e740 f   hd2.obj
 0001:0005db70       ?DeleteIconTitleFromDB@@YAHPA_WH@Z 0045eb70 f   hd2.obj
 0001:0005dcb0       ?WriteTimes@@YAHH@Z        0045ecb0 f   hd2.obj
 0001:0005de50       ?ReadTimes@@YAHPAH@Z       0045ee50 f   hd2.obj
 0001:0005e070       ?SetTrayTipLanguage@@YAHXZ 0045f070 f   hd2.obj
 0001:0005e0a0       ?CreateGetAdsLinkThread@@YAHXZ 0045f0a0 f   hd2.obj
 0001:0005e120       ?GetAdsLinkProc@@YGIPAX@Z  0045f120 f   hd2.obj
 0001:0005e500       ?ReconnectTimer@@YGXPAUHWND__@@IIK@Z 0045f500 f   hd2.obj
 0001:0005e540       ?SetStatusTextLink@@YGXPAUHWND__@@IIK@Z 0045f540 f   hd2.obj
 0001:0005e700       ?SetWndTextLink@@YGXPAUHWND__@@IIK@Z 0045f700 f   hd2.obj
 0001:0005e980       ?RestoreIP@@YAHXZ          0045f980 f   hd2.obj
 0001:0005ea40       ?ChangeLanguage@@YAHGPA_W@Z 0045fa40 f   hd2.obj
 0001:0005eb30       ?ChangeLanguageThreadProc@@YGIPAX@Z 0045fb30 f   hd2.obj
 0001:0005ed70       ??0?$list@PAUsTitleWnd@@V?$allocator@PAUsTitleWnd@@@std@@@std@@QAE@XZ 0045fd70 f i hd2.obj
 0001:0005ee10       ??1?$list@PAUsTitleWnd@@V?$allocator@PAUsTitleWnd@@@std@@@std@@QAE@XZ 0045fe10 f i hd2.obj
 0001:0005ee90       ?begin@?$list@PAUsTitleWnd@@V?$allocator@PAUsTitleWnd@@@std@@@std@@QAE?AV?$_Iterator@$00@12@XZ 0045fe90 f i hd2.obj
 0001:0005ef10       ?end@?$list@PAUsTitleWnd@@V?$allocator@PAUsTitleWnd@@@std@@@std@@QAE?AV?$_Iterator@$00@12@XZ 0045ff10 f i hd2.obj
 0001:0005ef80       ?size@?$list@PAUsTitleWnd@@V?$allocator@PAUsTitleWnd@@@std@@@std@@QBEIXZ 0045ff80 f i hd2.obj
 0001:0005efb0       ?push_back@?$list@PAUsTitleWnd@@V?$allocator@PAUsTitleWnd@@@std@@@std@@QAEXABQAUsTitleWnd@@@Z 0045ffb0 f i hd2.obj
 0001:0005f080       ?erase@?$list@PAUsTitleWnd@@V?$allocator@PAUsTitleWnd@@@std@@@std@@QAE?AV?$_Iterator@$00@12@V?$_Const_iterator@$00@12@@Z 00460080 f i hd2.obj
 0001:0005f260       ??A?$vector@PAUsGifUrl@@V?$allocator@PAUsGifUrl@@@std@@@std@@QAEAAPAUsGifUrl@@I@Z 00460260 f i hd2.obj
 0001:0005f3a0       ?size@?$list@PAUsBKWHotkey@@V?$allocator@PAUsBKWHotkey@@@std@@@std@@QBEIXZ 004603a0 f i hd2.obj
 0001:0005f3d0       ?push_back@?$list@PAUsBKWHotkey@@V?$allocator@PAUsBKWHotkey@@@std@@@std@@QAEXABQAUsBKWHotkey@@@Z 004603d0 f i hd2.obj
 0001:0005f4a0       ?erase@?$list@PAUsBKWHotkey@@V?$allocator@PAUsBKWHotkey@@@std@@@std@@QAE?AV?$_Iterator@$00@12@V?$_Const_iterator@$00@12@@Z 004604a0 f i hd2.obj
 0001:0005f680       ?begin@?$list@PAUsIconTitle@@V?$allocator@PAUsIconTitle@@@std@@@std@@QAE?AV?$_Iterator@$00@12@XZ 00460680 f i hd2.obj
 0001:0005f700       ?end@?$list@PAUsIconTitle@@V?$allocator@PAUsIconTitle@@@std@@@std@@QAE?AV?$_Iterator@$00@12@XZ 00460700 f i hd2.obj
 0001:0005f770       ?size@?$list@PAUsIconTitle@@V?$allocator@PAUsIconTitle@@@std@@@std@@QBEIXZ 00460770 f i hd2.obj
 0001:0005f7a0       ?push_back@?$list@PAUsIconTitle@@V?$allocator@PAUsIconTitle@@@std@@@std@@QAEXABQAUsIconTitle@@@Z 004607a0 f i hd2.obj
 0001:0005f870       ?erase@?$list@PAUsIconTitle@@V?$allocator@PAUsIconTitle@@@std@@@std@@QAE?AV?$_Iterator@$00@12@V?$_Const_iterator@$00@12@@Z 00460870 f i hd2.obj
 0001:0005fa50       ??0?$_Iterator@$00@?$list@PAUsIconTitle@@V?$allocator@PAUsIconTitle@@@std@@@std@@QAE@XZ 00460a50 f i hd2.obj
 0001:0005faa0       ??D?$_Iterator@$00@?$list@PAUsIconTitle@@V?$allocator@PAUsIconTitle@@@std@@@std@@QBEAAPAUsIconTitle@@XZ 00460aa0 f i hd2.obj
 0001:0005fae0       ??E?$_Iterator@$00@?$list@PAUsIconTitle@@V?$allocator@PAUsIconTitle@@@std@@@std@@QAE?AV012@H@Z 00460ae0 f i hd2.obj
 0001:0005fbc0       ??9?$_Const_iterator@$00@?$list@PAUsIconTitle@@V?$allocator@PAUsIconTitle@@@std@@@std@@QBE_NABV012@@Z 00460bc0 f i hd2.obj
 0001:0005fc10       ??0?$_Iterator@$00@?$list@PAUsTitleWnd@@V?$allocator@PAUsTitleWnd@@@std@@@std@@QAE@XZ 00460c10 f i hd2.obj
 0001:0005fc60       ??D?$_Iterator@$00@?$list@PAUsTitleWnd@@V?$allocator@PAUsTitleWnd@@@std@@@std@@QBEAAPAUsTitleWnd@@XZ 00460c60 f i hd2.obj
 0001:0005fca0       ??E?$_Iterator@$00@?$list@PAUsTitleWnd@@V?$allocator@PAUsTitleWnd@@@std@@@std@@QAE?AV012@H@Z 00460ca0 f i hd2.obj
 0001:0005fd80       ??9?$_Const_iterator@$00@?$list@PAUsTitleWnd@@V?$allocator@PAUsTitleWnd@@@std@@@std@@QBE_NABV012@@Z 00460d80 f i hd2.obj
 0001:0005fdd0       ?begin@?$list@PAUNewProcessInfo@@V?$allocator@PAUNewProcessInfo@@@std@@@std@@QAE?AV?$_Iterator@$00@12@XZ 00460dd0 f i hd2.obj
 0001:0005fe50       ?end@?$list@PAUNewProcessInfo@@V?$allocator@PAUNewProcessInfo@@@std@@@std@@QAE?AV?$_Iterator@$00@12@XZ 00460e50 f i hd2.obj
 0001:0005fec0       ?push_back@?$list@PAUNewProcessInfo@@V?$allocator@PAUNewProcessInfo@@@std@@@std@@QAEXABQAUNewProcessInfo@@@Z 00460ec0 f i hd2.obj
 0001:0005ff90       ?erase@?$list@PAUNewProcessInfo@@V?$allocator@PAUNewProcessInfo@@@std@@@std@@QAE?AV?$_Iterator@$00@12@V?$_Const_iterator@$00@12@@Z 00460f90 f i hd2.obj
 0001:00060170       ?begin@?$list@PAUAutoHideItem@@V?$allocator@PAUAutoHideItem@@@std@@@std@@QAE?AV?$_Iterator@$00@12@XZ 00461170 f i hd2.obj
 0001:000601f0       ?end@?$list@PAUAutoHideItem@@V?$allocator@PAUAutoHideItem@@@std@@@std@@QAE?AV?$_Iterator@$00@12@XZ 004611f0 f i hd2.obj
 0001:00060260       ?push_back@?$list@PAUAutoHideItem@@V?$allocator@PAUAutoHideItem@@@std@@@std@@QAEXABQAUAutoHideItem@@@Z 00461260 f i hd2.obj
 0001:00060330       ?erase@?$list@PAUAutoHideItem@@V?$allocator@PAUAutoHideItem@@@std@@@std@@QAE?AV?$_Iterator@$00@12@V?$_Const_iterator@$00@12@@Z 00461330 f i hd2.obj
 0001:00060510       ??0?$_Iterator@$00@?$list@PAUNewProcessInfo@@V?$allocator@PAUNewProcessInfo@@@std@@@std@@QAE@XZ 00461510 f i hd2.obj
 0001:00060560       ??D?$_Iterator@$00@?$list@PAUNewProcessInfo@@V?$allocator@PAUNewProcessInfo@@@std@@@std@@QBEAAPAUNewProcessInfo@@XZ 00461560 f i hd2.obj
 0001:000605a0       ??E?$_Iterator@$00@?$list@PAUNewProcessInfo@@V?$allocator@PAUNewProcessInfo@@@std@@@std@@QAE?AV012@H@Z 004615a0 f i hd2.obj
 0001:00060680       ??9?$_Const_iterator@$00@?$list@PAUNewProcessInfo@@V?$allocator@PAUNewProcessInfo@@@std@@@std@@QBE_NABV012@@Z 00461680 f i hd2.obj
 0001:000606d0       ??0?$_Iterator@$00@?$list@PAUAutoHideItem@@V?$allocator@PAUAutoHideItem@@@std@@@std@@QAE@XZ 004616d0 f i hd2.obj
 0001:00060720       ??D?$_Iterator@$00@?$list@PAUAutoHideItem@@V?$allocator@PAUAutoHideItem@@@std@@@std@@QBEAAPAUAutoHideItem@@XZ 00461720 f i hd2.obj
 0001:00060760       ??E?$_Iterator@$00@?$list@PAUAutoHideItem@@V?$allocator@PAUAutoHideItem@@@std@@@std@@QAE?AV012@H@Z 00461760 f i hd2.obj
 0001:00060840       ??9?$_Const_iterator@$00@?$list@PAUAutoHideItem@@V?$allocator@PAUAutoHideItem@@@std@@@std@@QBE_NABV012@@Z 00461840 f i hd2.obj
 0001:00060890       ??1?$_List_val@PAUsTitleWnd@@V?$allocator@PAUsTitleWnd@@@std@@@std@@QAE@XZ 00461890 f i hd2.obj
 0001:000608d0       ??0?$_Iterator@$00@?$list@PAUsIconTitle@@V?$allocator@PAUsIconTitle@@@std@@@std@@QAE@ABV012@@Z 004618d0 f i hd2.obj
 0001:00060920       ??0?$_Iterator@$00@?$list@PAUsTitleWnd@@V?$allocator@PAUsTitleWnd@@@std@@@std@@QAE@ABV012@@Z 00461920 f i hd2.obj
 0001:00060970       ??0?$_Iterator@$00@?$list@PAUNewProcessInfo@@V?$allocator@PAUNewProcessInfo@@@std@@@std@@QAE@ABV012@@Z 00461970 f i hd2.obj
 0001:000609c0       ??0?$_Iterator@$00@?$list@PAUAutoHideItem@@V?$allocator@PAUAutoHideItem@@@std@@@std@@QAE@ABV012@@Z 004619c0 f i hd2.obj
 0001:00060a10       ??1?$_List_ptr@PAUsTitleWnd@@V?$allocator@PAUsTitleWnd@@@std@@@std@@QAE@XZ 00461a10 f i hd2.obj
 0001:00060a50       ??1?$_List_nod@PAUsTitleWnd@@V?$allocator@PAUsTitleWnd@@@std@@@std@@QAE@XZ 00461a50 f i hd2.obj
 0001:00060a90       ?_Nextnode@?$list@PAUsTitleWnd@@V?$allocator@PAUsTitleWnd@@@std@@@std@@KAAAPAU_Node@?$_List_nod@PAUsTitleWnd@@V?$allocator@PAUsTitleWnd@@@std@@@2@PAU342@@Z 00461a90 f i hd2.obj
 0001:00060ac0       ?_Prevnode@?$list@PAUsTitleWnd@@V?$allocator@PAUsTitleWnd@@@std@@@std@@KAAAPAU_Node@?$_List_nod@PAUsTitleWnd@@V?$allocator@PAUsTitleWnd@@@std@@@2@PAU342@@Z 00461ac0 f i hd2.obj
 0001:00060af0       ?_Make_iter@?$list@PAUsTitleWnd@@V?$allocator@PAUsTitleWnd@@@std@@@std@@QBE?AV?$_Iterator@$00@12@V?$_Const_iterator@$00@12@@Z 00461af0 f i hd2.obj
 0001:00060ba0       ?_Insert@?$list@PAUsTitleWnd@@V?$allocator@PAUsTitleWnd@@@std@@@std@@QAEXV?$_Const_iterator@$00@12@ABQAUsTitleWnd@@@Z 00461ba0 f i hd2.obj
 0001:00060cb0       ?_Buynode@?$list@PAUsTitleWnd@@V?$allocator@PAUsTitleWnd@@@std@@@std@@IAEPAU_Node@?$_List_nod@PAUsTitleWnd@@V?$allocator@PAUsTitleWnd@@@std@@@2@XZ 00461cb0 f i hd2.obj
 0001:00060e10       ?_Tidy@?$list@PAUsTitleWnd@@V?$allocator@PAUsTitleWnd@@@std@@@std@@IAEXXZ 00461e10 f i hd2.obj
 0001:00060eb0       ?_Orphan_ptr@?$list@PAUsTitleWnd@@V?$allocator@PAUsTitleWnd@@@std@@@std@@IBEXAAV12@PAU_Node@?$_List_nod@PAUsTitleWnd@@V?$allocator@PAUsTitleWnd@@@std@@@2@@Z 00461eb0 f i hd2.obj
 0001:00060fa0       ??0?$_List_val@PAUsTitleWnd@@V?$allocator@PAUsTitleWnd@@@std@@@std@@QAE@V?$allocator@PAUsTitleWnd@@@1@@Z 00461fa0 f i hd2.obj
 0001:00061010       ??1?$_Container_base_aux_alloc_empty@V?$allocator@PAUsTitleWnd@@@std@@@std@@IAE@XZ 00462010 f i hd2.obj
 0001:00061060       ??0?$allocator@PAUsTitleWnd@@@std@@QAE@XZ 00462060 f i hd2.obj
 0001:00061090       ?deallocate@?$allocator@U_Node@?$_List_nod@PAUsTitleWnd@@V?$allocator@PAUsTitleWnd@@@std@@@std@@@std@@QAEXPAU_Node@?$_List_nod@PAUsTitleWnd@@V?$allocator@PAUsTitleWnd@@@std@@@2@I@Z 00462090 f i hd2.obj
 0001:000610e0       ?destroy@?$allocator@U_Node@?$_List_nod@PAUsTitleWnd@@V?$allocator@PAUsTitleWnd@@@std@@@std@@@std@@QAEXPAU_Node@?$_List_nod@PAUsTitleWnd@@V?$allocator@PAUsTitleWnd@@@std@@@2@@Z 004620e0 f i hd2.obj
 0001:00061130       ?size@?$vector@PAUsGifUrl@@V?$allocator@PAUsGifUrl@@@std@@@std@@QBEIXZ 00462130 f i hd2.obj
 0001:00061170       ?_Prevnode@?$list@PAUsBKWHotkey@@V?$allocator@PAUsBKWHotkey@@@std@@@std@@KAAAPAU_Node@?$_List_nod@PAUsBKWHotkey@@V?$allocator@PAUsBKWHotkey@@@std@@@2@PAU342@@Z 00462170 f i hd2.obj
 0001:000611a0       ?_Make_iter@?$list@PAUsBKWHotkey@@V?$allocator@PAUsBKWHotkey@@@std@@@std@@QBE?AV?$_Iterator@$00@12@V?$_Const_iterator@$00@12@@Z 004621a0 f i hd2.obj
 0001:00061250       ?_Insert@?$list@PAUsBKWHotkey@@V?$allocator@PAUsBKWHotkey@@@std@@@std@@QAEXV?$_Const_iterator@$00@12@ABQAUsBKWHotkey@@@Z 00462250 f i hd2.obj
 0001:00061360       ?_Orphan_ptr@?$list@PAUsBKWHotkey@@V?$allocator@PAUsBKWHotkey@@@std@@@std@@IBEXAAV12@PAU_Node@?$_List_nod@PAUsBKWHotkey@@V?$allocator@PAUsBKWHotkey@@@std@@@2@@Z 00462360 f i hd2.obj
 0001:00061450       ?deallocate@?$allocator@U_Node@?$_List_nod@PAUsBKWHotkey@@V?$allocator@PAUsBKWHotkey@@@std@@@std@@@std@@QAEXPAU_Node@?$_List_nod@PAUsBKWHotkey@@V?$allocator@PAUsBKWHotkey@@@std@@@2@I@Z 00462450 f i hd2.obj
 0001:000614a0       ?destroy@?$allocator@U_Node@?$_List_nod@PAUsBKWHotkey@@V?$allocator@PAUsBKWHotkey@@@std@@@std@@@std@@QAEXPAU_Node@?$_List_nod@PAUsBKWHotkey@@V?$allocator@PAUsBKWHotkey@@@std@@@2@@Z 004624a0 f i hd2.obj
 0001:000614f0       ?_Nextnode@?$list@PAUsIconTitle@@V?$allocator@PAUsIconTitle@@@std@@@std@@KAAAPAU_Node@?$_List_nod@PAUsIconTitle@@V?$allocator@PAUsIconTitle@@@std@@@2@PAU342@@Z 004624f0 f i hd2.obj
 0001:00061520       ?_Prevnode@?$list@PAUsIconTitle@@V?$allocator@PAUsIconTitle@@@std@@@std@@KAAAPAU_Node@?$_List_nod@PAUsIconTitle@@V?$allocator@PAUsIconTitle@@@std@@@2@PAU342@@Z 00462520 f i hd2.obj
 0001:00061550       ?_Make_iter@?$list@PAUsIconTitle@@V?$allocator@PAUsIconTitle@@@std@@@std@@QBE?AV?$_Iterator@$00@12@V?$_Const_iterator@$00@12@@Z 00462550 f i hd2.obj
 0001:00061600       ?_Insert@?$list@PAUsIconTitle@@V?$allocator@PAUsIconTitle@@@std@@@std@@QAEXV?$_Const_iterator@$00@12@ABQAUsIconTitle@@@Z 00462600 f i hd2.obj
 0001:00061710       ?_Orphan_ptr@?$list@PAUsIconTitle@@V?$allocator@PAUsIconTitle@@@std@@@std@@IBEXAAV12@PAU_Node@?$_List_nod@PAUsIconTitle@@V?$allocator@PAUsIconTitle@@@std@@@2@@Z 00462710 f i hd2.obj
 0001:00061800       ?deallocate@?$allocator@U_Node@?$_List_nod@PAUsIconTitle@@V?$allocator@PAUsIconTitle@@@std@@@std@@@std@@QAEXPAU_Node@?$_List_nod@PAUsIconTitle@@V?$allocator@PAUsIconTitle@@@std@@@2@I@Z 00462800 f i hd2.obj
 0001:00061850       ?destroy@?$allocator@U_Node@?$_List_nod@PAUsIconTitle@@V?$allocator@PAUsIconTitle@@@std@@@std@@@std@@QAEXPAU_Node@?$_List_nod@PAUsIconTitle@@V?$allocator@PAUsIconTitle@@@std@@@2@@Z 00462850 f i hd2.obj
 0001:000618a0       ??E?$_Const_iterator@$00@?$list@PAUsBKWHotkey@@V?$allocator@PAUsBKWHotkey@@@std@@@std@@QAE?AV012@H@Z 004628a0 f i hd2.obj
 0001:00061980       ?_Mynode@?$_Const_iterator@$00@?$list@PAUsBKWHotkey@@V?$allocator@PAUsBKWHotkey@@@std@@@std@@QBEPAU_Node@?$_List_nod@PAUsBKWHotkey@@V?$allocator@PAUsBKWHotkey@@@std@@@3@XZ 00462980 f i hd2.obj
 0001:000619b0       ??0?$_Iterator@$00@?$list@PAUsIconTitle@@V?$allocator@PAUsIconTitle@@@std@@@std@@QAE@PAU_Node@?$_List_nod@PAUsIconTitle@@V?$allocator@PAUsIconTitle@@@std@@@2@PBV12@@Z 004629b0 f i hd2.obj
 0001:00061a00       ??E?$_Iterator@$00@?$list@PAUsIconTitle@@V?$allocator@PAUsIconTitle@@@std@@@std@@QAEAAV012@XZ 00462a00 f i hd2.obj
 0001:00061a50       ??0?$_Const_iterator@$00@?$list@PAUsIconTitle@@V?$allocator@PAUsIconTitle@@@std@@@std@@QAE@XZ 00462a50 f i hd2.obj
 0001:00061aa0       ??D?$_Const_iterator@$00@?$list@PAUsIconTitle@@V?$allocator@PAUsIconTitle@@@std@@@std@@QBEABQAUsIconTitle@@XZ 00462aa0 f i hd2.obj
 0001:00061b90       ??E?$_Const_iterator@$00@?$list@PAUsIconTitle@@V?$allocator@PAUsIconTitle@@@std@@@std@@QAE?AV012@H@Z 00462b90 f i hd2.obj
 0001:00061c70       ??8?$_Const_iterator@$00@?$list@PAUsIconTitle@@V?$allocator@PAUsIconTitle@@@std@@@std@@QBE_NABV012@@Z 00462c70 f i hd2.obj
 0001:00061cd0       ?_Mynode@?$_Const_iterator@$00@?$list@PAUsIconTitle@@V?$allocator@PAUsIconTitle@@@std@@@std@@QBEPAU_Node@?$_List_nod@PAUsIconTitle@@V?$allocator@PAUsIconTitle@@@std@@@3@XZ 00462cd0 f i hd2.obj
 0001:00061d00       ??0?$_Iterator@$00@?$list@PAUsTitleWnd@@V?$allocator@PAUsTitleWnd@@@std@@@std@@QAE@PAU_Node@?$_List_nod@PAUsTitleWnd@@V?$allocator@PAUsTitleWnd@@@std@@@2@PBV12@@Z 00462d00 f i hd2.obj
 0001:00061d50       ??E?$_Iterator@$00@?$list@PAUsTitleWnd@@V?$allocator@PAUsTitleWnd@@@std@@@std@@QAEAAV012@XZ 00462d50 f i hd2.obj
 0001:00061da0       ??0?$_Const_iterator@$00@?$list@PAUsTitleWnd@@V?$allocator@PAUsTitleWnd@@@std@@@std@@QAE@XZ 00462da0 f i hd2.obj
 0001:00061df0       ??D?$_Const_iterator@$00@?$list@PAUsTitleWnd@@V?$allocator@PAUsTitleWnd@@@std@@@std@@QBEABQAUsTitleWnd@@XZ 00462df0 f i hd2.obj
 0001:00061ee0       ??E?$_Const_iterator@$00@?$list@PAUsTitleWnd@@V?$allocator@PAUsTitleWnd@@@std@@@std@@QAE?AV012@H@Z 00462ee0 f i hd2.obj
 0001:00061fc0       ??8?$_Const_iterator@$00@?$list@PAUsTitleWnd@@V?$allocator@PAUsTitleWnd@@@std@@@std@@QBE_NABV012@@Z 00462fc0 f i hd2.obj
 0001:00062020       ?_Mynode@?$_Const_iterator@$00@?$list@PAUsTitleWnd@@V?$allocator@PAUsTitleWnd@@@std@@@std@@QBEPAU_Node@?$_List_nod@PAUsTitleWnd@@V?$allocator@PAUsTitleWnd@@@std@@@3@XZ 00463020 f i hd2.obj
 0001:00062050       ?_Nextnode@?$list@PAUNewProcessInfo@@V?$allocator@PAUNewProcessInfo@@@std@@@std@@KAAAPAU_Node@?$_List_nod@PAUNewProcessInfo@@V?$allocator@PAUNewProcessInfo@@@std@@@2@PAU342@@Z 00463050 f i hd2.obj
 0001:00062080       ?_Prevnode@?$list@PAUNewProcessInfo@@V?$allocator@PAUNewProcessInfo@@@std@@@std@@KAAAPAU_Node@?$_List_nod@PAUNewProcessInfo@@V?$allocator@PAUNewProcessInfo@@@std@@@2@PAU342@@Z 00463080 f i hd2.obj
 0001:000620b0       ?_Make_iter@?$list@PAUNewProcessInfo@@V?$allocator@PAUNewProcessInfo@@@std@@@std@@QBE?AV?$_Iterator@$00@12@V?$_Const_iterator@$00@12@@Z 004630b0 f i hd2.obj
 0001:00062160       ?_Insert@?$list@PAUNewProcessInfo@@V?$allocator@PAUNewProcessInfo@@@std@@@std@@QAEXV?$_Const_iterator@$00@12@ABQAUNewProcessInfo@@@Z 00463160 f i hd2.obj
 0001:00062270       ?_Orphan_ptr@?$list@PAUNewProcessInfo@@V?$allocator@PAUNewProcessInfo@@@std@@@std@@IBEXAAV12@PAU_Node@?$_List_nod@PAUNewProcessInfo@@V?$allocator@PAUNewProcessInfo@@@std@@@2@@Z 00463270 f i hd2.obj
 0001:00062360       ?deallocate@?$allocator@U_Node@?$_List_nod@PAUNewProcessInfo@@V?$allocator@PAUNewProcessInfo@@@std@@@std@@@std@@QAEXPAU_Node@?$_List_nod@PAUNewProcessInfo@@V?$allocator@PAUNewProcessInfo@@@std@@@2@I@Z 00463360 f i hd2.obj
 0001:000623b0       ?destroy@?$allocator@U_Node@?$_List_nod@PAUNewProcessInfo@@V?$allocator@PAUNewProcessInfo@@@std@@@std@@@std@@QAEXPAU_Node@?$_List_nod@PAUNewProcessInfo@@V?$allocator@PAUNewProcessInfo@@@std@@@2@@Z 004633b0 f i hd2.obj
 0001:00062400       ?_Nextnode@?$list@PAUAutoHideItem@@V?$allocator@PAUAutoHideItem@@@std@@@std@@KAAAPAU_Node@?$_List_nod@PAUAutoHideItem@@V?$allocator@PAUAutoHideItem@@@std@@@2@PAU342@@Z 00463400 f i hd2.obj
 0001:00062430       ?_Prevnode@?$list@PAUAutoHideItem@@V?$allocator@PAUAutoHideItem@@@std@@@std@@KAAAPAU_Node@?$_List_nod@PAUAutoHideItem@@V?$allocator@PAUAutoHideItem@@@std@@@2@PAU342@@Z 00463430 f i hd2.obj
 0001:00062460       ?_Make_iter@?$list@PAUAutoHideItem@@V?$allocator@PAUAutoHideItem@@@std@@@std@@QBE?AV?$_Iterator@$00@12@V?$_Const_iterator@$00@12@@Z 00463460 f i hd2.obj
 0001:00062510       ?_Insert@?$list@PAUAutoHideItem@@V?$allocator@PAUAutoHideItem@@@std@@@std@@QAEXV?$_Const_iterator@$00@12@ABQAUAutoHideItem@@@Z 00463510 f i hd2.obj
 0001:00062620       ?_Orphan_ptr@?$list@PAUAutoHideItem@@V?$allocator@PAUAutoHideItem@@@std@@@std@@IBEXAAV12@PAU_Node@?$_List_nod@PAUAutoHideItem@@V?$allocator@PAUAutoHideItem@@@std@@@2@@Z 00463620 f i hd2.obj
 0001:00062710       ?deallocate@?$allocator@U_Node@?$_List_nod@PAUAutoHideItem@@V?$allocator@PAUAutoHideItem@@@std@@@std@@@std@@QAEXPAU_Node@?$_List_nod@PAUAutoHideItem@@V?$allocator@PAUAutoHideItem@@@std@@@2@I@Z 00463710 f i hd2.obj
 0001:00062760       ?destroy@?$allocator@U_Node@?$_List_nod@PAUAutoHideItem@@V?$allocator@PAUAutoHideItem@@@std@@@std@@@std@@QAEXPAU_Node@?$_List_nod@PAUAutoHideItem@@V?$allocator@PAUAutoHideItem@@@std@@@2@@Z 00463760 f i hd2.obj
 0001:000627b0       ??0?$_Iterator@$00@?$list@PAUNewProcessInfo@@V?$allocator@PAUNewProcessInfo@@@std@@@std@@QAE@PAU_Node@?$_List_nod@PAUNewProcessInfo@@V?$allocator@PAUNewProcessInfo@@@std@@@2@PBV12@@Z 004637b0 f i hd2.obj
 0001:00062800       ??E?$_Iterator@$00@?$list@PAUNewProcessInfo@@V?$allocator@PAUNewProcessInfo@@@std@@@std@@QAEAAV012@XZ 00463800 f i hd2.obj
 0001:00062850       ??0?$_Const_iterator@$00@?$list@PAUNewProcessInfo@@V?$allocator@PAUNewProcessInfo@@@std@@@std@@QAE@XZ 00463850 f i hd2.obj
 0001:000628a0       ??D?$_Const_iterator@$00@?$list@PAUNewProcessInfo@@V?$allocator@PAUNewProcessInfo@@@std@@@std@@QBEABQAUNewProcessInfo@@XZ 004638a0 f i hd2.obj
 0001:00062990       ??E?$_Const_iterator@$00@?$list@PAUNewProcessInfo@@V?$allocator@PAUNewProcessInfo@@@std@@@std@@QAE?AV012@H@Z 00463990 f i hd2.obj
 0001:00062a70       ??8?$_Const_iterator@$00@?$list@PAUNewProcessInfo@@V?$allocator@PAUNewProcessInfo@@@std@@@std@@QBE_NABV012@@Z 00463a70 f i hd2.obj
 0001:00062ad0       ?_Mynode@?$_Const_iterator@$00@?$list@PAUNewProcessInfo@@V?$allocator@PAUNewProcessInfo@@@std@@@std@@QBEPAU_Node@?$_List_nod@PAUNewProcessInfo@@V?$allocator@PAUNewProcessInfo@@@std@@@3@XZ 00463ad0 f i hd2.obj
 0001:00062b00       ??0?$_Iterator@$00@?$list@PAUAutoHideItem@@V?$allocator@PAUAutoHideItem@@@std@@@std@@QAE@PAU_Node@?$_List_nod@PAUAutoHideItem@@V?$allocator@PAUAutoHideItem@@@std@@@2@PBV12@@Z 00463b00 f i hd2.obj
 0001:00062b50       ??E?$_Iterator@$00@?$list@PAUAutoHideItem@@V?$allocator@PAUAutoHideItem@@@std@@@std@@QAEAAV012@XZ 00463b50 f i hd2.obj
 0001:00062ba0       ??0?$_Const_iterator@$00@?$list@PAUAutoHideItem@@V?$allocator@PAUAutoHideItem@@@std@@@std@@QAE@XZ 00463ba0 f i hd2.obj
 0001:00062bf0       ??D?$_Const_iterator@$00@?$list@PAUAutoHideItem@@V?$allocator@PAUAutoHideItem@@@std@@@std@@QBEABQAUAutoHideItem@@XZ 00463bf0 f i hd2.obj
 0001:00062ce0       ??E?$_Const_iterator@$00@?$list@PAUAutoHideItem@@V?$allocator@PAUAutoHideItem@@@std@@@std@@QAE?AV012@H@Z 00463ce0 f i hd2.obj
 0001:00062dc0       ??8?$_Const_iterator@$00@?$list@PAUAutoHideItem@@V?$allocator@PAUAutoHideItem@@@std@@@std@@QBE_NABV012@@Z 00463dc0 f i hd2.obj
 0001:00062e20       ?_Mynode@?$_Const_iterator@$00@?$list@PAUAutoHideItem@@V?$allocator@PAUAutoHideItem@@@std@@@std@@QBEPAU_Node@?$_List_nod@PAUAutoHideItem@@V?$allocator@PAUAutoHideItem@@@std@@@3@XZ 00463e20 f i hd2.obj
 0001:00062e50       ??0?$_Bidit@PAUsIconTitle@@HPBQAU1@ABQAU1@@std@@QAE@XZ 00463e50 f i hd2.obj
 0001:00062ea0       ??0?$_Bidit@PAUsTitleWnd@@HPBQAU1@ABQAU1@@std@@QAE@XZ 00463ea0 f i hd2.obj
 0001:00062ef0       ??0?$_Bidit@PAUNewProcessInfo@@HPBQAU1@ABQAU1@@std@@QAE@XZ 00463ef0 f i hd2.obj
 0001:00062f40       ??0?$_Bidit@PAUAutoHideItem@@HPBQAU1@ABQAU1@@std@@QAE@XZ 00463f40 f i hd2.obj
 0001:00062f90       ??0?$_Iterator_with_base@Ubidirectional_iterator_tag@std@@PAUsIconTitle@@HPBQAU3@ABQAU3@V_Iterator_base@2@@std@@QAE@XZ 00463f90 f i hd2.obj
 0001:00062fe0       ??0?$_Iterator_with_base@Ubidirectional_iterator_tag@std@@PAUsTitleWnd@@HPBQAU3@ABQAU3@V_Iterator_base@2@@std@@QAE@XZ 00463fe0 f i hd2.obj
 0001:00063030       ??0?$_Iterator_with_base@Ubidirectional_iterator_tag@std@@PAUNewProcessInfo@@HPBQAU3@ABQAU3@V_Iterator_base@2@@std@@QAE@XZ 00464030 f i hd2.obj
 0001:00063080       ??0?$_Iterator_with_base@Ubidirectional_iterator_tag@std@@PAUAutoHideItem@@HPBQAU3@ABQAU3@V_Iterator_base@2@@std@@QAE@XZ 00464080 f i hd2.obj
 0001:000630d0       ?_Myval@?$list@PAUsTitleWnd@@V?$allocator@PAUsTitleWnd@@@std@@@std@@KAAAPAUsTitleWnd@@PAU_Node@?$_List_nod@PAUsTitleWnd@@V?$allocator@PAUsTitleWnd@@@std@@@2@@Z 004640d0 f i hd2.obj
 0001:00063100       ?clear@?$list@PAUsTitleWnd@@V?$allocator@PAUsTitleWnd@@@std@@@std@@QAEXXZ 00464100 f i hd2.obj
 0001:000631e0       ?_Buynode@?$list@PAUsTitleWnd@@V?$allocator@PAUsTitleWnd@@@std@@@std@@IAEPAU_Node@?$_List_nod@PAUsTitleWnd@@V?$allocator@PAUsTitleWnd@@@std@@@2@PAU342@0ABQAUsTitleWnd@@@Z 004641e0 f i hd2.obj
 0001:00063360       ?_Incsize@?$list@PAUsTitleWnd@@V?$allocator@PAUsTitleWnd@@@std@@@std@@IAEXI@Z 00464360 f i hd2.obj
 0001:00063450       ??0length_error@std@@QAE@ABV?$basic_string@DU?$char_traits@D@std@@V?$allocator@D@2@@1@@Z 00464450 f i hd2.obj
 0001:000634b0       ??0logic_error@std@@QAE@ABV?$basic_string@DU?$char_traits@D@std@@V?$allocator@D@2@@1@@Z 004644b0 f i hd2.obj
 0001:00063560       ?what@logic_error@std@@UBEPBDXZ 00464560 f i hd2.obj
 0001:000635b0       ??_Glogic_error@std@@UAEPAXI@Z 004645b0 f i hd2.obj
 0001:000635b0       ??_Elogic_error@std@@UAEPAXI@Z 004645b0 f i hd2.obj
 0001:00063610       ??1logic_error@std@@UAE@XZ 00464610 f i hd2.obj
 0001:00063680       ??1length_error@std@@UAE@XZ 00464680 f i hd2.obj
 0001:000636d0       ??_Elength_error@std@@UAEPAXI@Z 004646d0 f i hd2.obj
 0001:000636d0       ??_Glength_error@std@@UAEPAXI@Z 004646d0 f i hd2.obj
 0001:00063730       ??0?$_List_ptr@PAUsTitleWnd@@V?$allocator@PAUsTitleWnd@@@std@@@std@@IAE@V?$allocator@PAUsTitleWnd@@@1@@Z 00464730 f i hd2.obj
 0001:000637a0       ??0?$allocator@PAUsTitleWnd@@@std@@QAE@ABV01@@Z 004647a0 f i hd2.obj
 0001:000637d0       ?allocate@?$allocator@U_Node@?$_List_nod@PAUsTitleWnd@@V?$allocator@PAUsTitleWnd@@@std@@@std@@@std@@QAEPAU_Node@?$_List_nod@PAUsTitleWnd@@V?$allocator@PAUsTitleWnd@@@std@@@2@I@Z 004647d0 f i hd2.obj
 0001:00063820       ?construct@?$allocator@PAU_Node@?$_List_nod@PAUsTitleWnd@@V?$allocator@PAUsTitleWnd@@@std@@@std@@@std@@QAEXPAPAU_Node@?$_List_nod@PAUsTitleWnd@@V?$allocator@PAUsTitleWnd@@@std@@@2@ABQAU342@@Z 00464820 f i hd2.obj
 0001:00063870       ?destroy@?$allocator@PAU_Node@?$_List_nod@PAUsTitleWnd@@V?$allocator@PAUsTitleWnd@@@std@@@std@@@std@@QAEXPAPAU_Node@?$_List_nod@PAUsTitleWnd@@V?$allocator@PAUsTitleWnd@@@std@@@2@@Z 00464870 f i hd2.obj
 0001:000638c0       ?_Buynode@?$list@PAUsBKWHotkey@@V?$allocator@PAUsBKWHotkey@@@std@@@std@@IAEPAU_Node@?$_List_nod@PAUsBKWHotkey@@V?$allocator@PAUsBKWHotkey@@@std@@@2@PAU342@0ABQAUsBKWHotkey@@@Z 004648c0 f i hd2.obj
 0001:00063a40       ?_Incsize@?$list@PAUsBKWHotkey@@V?$allocator@PAUsBKWHotkey@@@std@@@std@@IAEXI@Z 00464a40 f i hd2.obj
 0001:00063b30       ?allocate@?$allocator@U_Node@?$_List_nod@PAUsBKWHotkey@@V?$allocator@PAUsBKWHotkey@@@std@@@std@@@std@@QAEPAU_Node@?$_List_nod@PAUsBKWHotkey@@V?$allocator@PAUsBKWHotkey@@@std@@@2@I@Z 00464b30 f i hd2.obj
 0001:00063b80       ?construct@?$allocator@PAU_Node@?$_List_nod@PAUsBKWHotkey@@V?$allocator@PAUsBKWHotkey@@@std@@@std@@@std@@QAEXPAPAU_Node@?$_List_nod@PAUsBKWHotkey@@V?$allocator@PAUsBKWHotkey@@@std@@@2@ABQAU342@@Z 00464b80 f i hd2.obj
 0001:00063bd0       ?destroy@?$allocator@PAU_Node@?$_List_nod@PAUsBKWHotkey@@V?$allocator@PAUsBKWHotkey@@@std@@@std@@@std@@QAEXPAPAU_Node@?$_List_nod@PAUsBKWHotkey@@V?$allocator@PAUsBKWHotkey@@@std@@@2@@Z 00464bd0 f i hd2.obj
 0001:00063c20       ?_Myval@?$list@PAUsIconTitle@@V?$allocator@PAUsIconTitle@@@std@@@std@@KAAAPAUsIconTitle@@PAU_Node@?$_List_nod@PAUsIconTitle@@V?$allocator@PAUsIconTitle@@@std@@@2@@Z 00464c20 f i hd2.obj
 0001:00063c50       ?_Buynode@?$list@PAUsIconTitle@@V?$allocator@PAUsIconTitle@@@std@@@std@@IAEPAU_Node@?$_List_nod@PAUsIconTitle@@V?$allocator@PAUsIconTitle@@@std@@@2@PAU342@0ABQAUsIconTitle@@@Z 00464c50 f i hd2.obj
 0001:00063dd0       ?_Incsize@?$list@PAUsIconTitle@@V?$allocator@PAUsIconTitle@@@std@@@std@@IAEXI@Z 00464dd0 f i hd2.obj
 0001:00063ec0       ?allocate@?$allocator@U_Node@?$_List_nod@PAUsIconTitle@@V?$allocator@PAUsIconTitle@@@std@@@std@@@std@@QAEPAU_Node@?$_List_nod@PAUsIconTitle@@V?$allocator@PAUsIconTitle@@@std@@@2@I@Z 00464ec0 f i hd2.obj
 0001:00063f10       ?construct@?$allocator@PAU_Node@?$_List_nod@PAUsIconTitle@@V?$allocator@PAUsIconTitle@@@std@@@std@@@std@@QAEXPAPAU_Node@?$_List_nod@PAUsIconTitle@@V?$allocator@PAUsIconTitle@@@std@@@2@ABQAU342@@Z 00464f10 f i hd2.obj
 0001:00063f60       ?destroy@?$allocator@PAU_Node@?$_List_nod@PAUsIconTitle@@V?$allocator@PAUsIconTitle@@@std@@@std@@@std@@QAEXPAPAU_Node@?$_List_nod@PAUsIconTitle@@V?$allocator@PAUsIconTitle@@@std@@@2@@Z 00464f60 f i hd2.obj
 0001:00063fb0       ??0?$_Const_iterator@$00@?$list@PAUsIconTitle@@V?$allocator@PAUsIconTitle@@@std@@@std@@QAE@PAU_Node@?$_List_nod@PAUsIconTitle@@V?$allocator@PAUsIconTitle@@@std@@@2@PBV12@@Z 00464fb0 f i hd2.obj
 0001:00064050       ??E?$_Const_iterator@$00@?$list@PAUsIconTitle@@V?$allocator@PAUsIconTitle@@@std@@@std@@QAEAAV012@XZ 00465050 f i hd2.obj
 0001:00064150       ?_Compat@?$_Const_iterator@$00@?$list@PAUsIconTitle@@V?$allocator@PAUsIconTitle@@@std@@@std@@QBEXABV123@@Z 00465150 f i hd2.obj
 0001:00064230       ??0?$_Const_iterator@$00@?$list@PAUsTitleWnd@@V?$allocator@PAUsTitleWnd@@@std@@@std@@QAE@PAU_Node@?$_List_nod@PAUsTitleWnd@@V?$allocator@PAUsTitleWnd@@@std@@@2@PBV12@@Z 00465230 f i hd2.obj
 0001:000642d0       ??E?$_Const_iterator@$00@?$list@PAUsTitleWnd@@V?$allocator@PAUsTitleWnd@@@std@@@std@@QAEAAV012@XZ 004652d0 f i hd2.obj
 0001:000643d0       ?_Compat@?$_Const_iterator@$00@?$list@PAUsTitleWnd@@V?$allocator@PAUsTitleWnd@@@std@@@std@@QBEXABV123@@Z 004653d0 f i hd2.obj
 0001:000644b0       ?_Myval@?$list@PAUNewProcessInfo@@V?$allocator@PAUNewProcessInfo@@@std@@@std@@KAAAPAUNewProcessInfo@@PAU_Node@?$_List_nod@PAUNewProcessInfo@@V?$allocator@PAUNewProcessInfo@@@std@@@2@@Z 004654b0 f i hd2.obj
 0001:000644e0       ?_Buynode@?$list@PAUNewProcessInfo@@V?$allocator@PAUNewProcessInfo@@@std@@@std@@IAEPAU_Node@?$_List_nod@PAUNewProcessInfo@@V?$allocator@PAUNewProcessInfo@@@std@@@2@PAU342@0ABQAUNewProcessInfo@@@Z 004654e0 f i hd2.obj
 0001:00064660       ?_Incsize@?$list@PAUNewProcessInfo@@V?$allocator@PAUNewProcessInfo@@@std@@@std@@IAEXI@Z 00465660 f i hd2.obj
 0001:00064750       ?allocate@?$allocator@U_Node@?$_List_nod@PAUNewProcessInfo@@V?$allocator@PAUNewProcessInfo@@@std@@@std@@@std@@QAEPAU_Node@?$_List_nod@PAUNewProcessInfo@@V?$allocator@PAUNewProcessInfo@@@std@@@2@I@Z 00465750 f i hd2.obj
 0001:000647a0       ?construct@?$allocator@PAU_Node@?$_List_nod@PAUNewProcessInfo@@V?$allocator@PAUNewProcessInfo@@@std@@@std@@@std@@QAEXPAPAU_Node@?$_List_nod@PAUNewProcessInfo@@V?$allocator@PAUNewProcessInfo@@@std@@@2@ABQAU342@@Z 004657a0 f i hd2.obj
 0001:000647f0       ?destroy@?$allocator@PAU_Node@?$_List_nod@PAUNewProcessInfo@@V?$allocator@PAUNewProcessInfo@@@std@@@std@@@std@@QAEXPAPAU_Node@?$_List_nod@PAUNewProcessInfo@@V?$allocator@PAUNewProcessInfo@@@std@@@2@@Z 004657f0 f i hd2.obj
 0001:00064840       ?_Myval@?$list@PAUAutoHideItem@@V?$allocator@PAUAutoHideItem@@@std@@@std@@KAAAPAUAutoHideItem@@PAU_Node@?$_List_nod@PAUAutoHideItem@@V?$allocator@PAUAutoHideItem@@@std@@@2@@Z 00465840 f i hd2.obj
 0001:00064870       ?_Buynode@?$list@PAUAutoHideItem@@V?$allocator@PAUAutoHideItem@@@std@@@std@@IAEPAU_Node@?$_List_nod@PAUAutoHideItem@@V?$allocator@PAUAutoHideItem@@@std@@@2@PAU342@0ABQAUAutoHideItem@@@Z 00465870 f i hd2.obj
 0001:000649f0       ?_Incsize@?$list@PAUAutoHideItem@@V?$allocator@PAUAutoHideItem@@@std@@@std@@IAEXI@Z 004659f0 f i hd2.obj
 0001:00064ae0       ?allocate@?$allocator@U_Node@?$_List_nod@PAUAutoHideItem@@V?$allocator@PAUAutoHideItem@@@std@@@std@@@std@@QAEPAU_Node@?$_List_nod@PAUAutoHideItem@@V?$allocator@PAUAutoHideItem@@@std@@@2@I@Z 00465ae0 f i hd2.obj
 0001:00064b30       ?construct@?$allocator@PAU_Node@?$_List_nod@PAUAutoHideItem@@V?$allocator@PAUAutoHideItem@@@std@@@std@@@std@@QAEXPAPAU_Node@?$_List_nod@PAUAutoHideItem@@V?$allocator@PAUAutoHideItem@@@std@@@2@ABQAU342@@Z 00465b30 f i hd2.obj
 0001:00064b80       ?destroy@?$allocator@PAU_Node@?$_List_nod@PAUAutoHideItem@@V?$allocator@PAUAutoHideItem@@@std@@@std@@@std@@QAEXPAPAU_Node@?$_List_nod@PAUAutoHideItem@@V?$allocator@PAUAutoHideItem@@@std@@@2@@Z 00465b80 f i hd2.obj
 0001:00064bd0       ??0?$_Const_iterator@$00@?$list@PAUNewProcessInfo@@V?$allocator@PAUNewProcessInfo@@@std@@@std@@QAE@PAU_Node@?$_List_nod@PAUNewProcessInfo@@V?$allocator@PAUNewProcessInfo@@@std@@@2@PBV12@@Z 00465bd0 f i hd2.obj
 0001:00064c70       ??E?$_Const_iterator@$00@?$list@PAUNewProcessInfo@@V?$allocator@PAUNewProcessInfo@@@std@@@std@@QAEAAV012@XZ 00465c70 f i hd2.obj
 0001:00064d70       ?_Compat@?$_Const_iterator@$00@?$list@PAUNewProcessInfo@@V?$allocator@PAUNewProcessInfo@@@std@@@std@@QBEXABV123@@Z 00465d70 f i hd2.obj
 0001:00064e50       ??0?$_Const_iterator@$00@?$list@PAUAutoHideItem@@V?$allocator@PAUAutoHideItem@@@std@@@std@@QAE@PAU_Node@?$_List_nod@PAUAutoHideItem@@V?$allocator@PAUAutoHideItem@@@std@@@2@PBV12@@Z 00465e50 f i hd2.obj
 0001:00064ef0       ??E?$_Const_iterator@$00@?$list@PAUAutoHideItem@@V?$allocator@PAUAutoHideItem@@@std@@@std@@QAEAAV012@XZ 00465ef0 f i hd2.obj
 0001:00064ff0       ?_Compat@?$_Const_iterator@$00@?$list@PAUAutoHideItem@@V?$allocator@PAUAutoHideItem@@@std@@@std@@QBEXABV123@@Z 00465ff0 f i hd2.obj
 0001:000650d0       ??0length_error@std@@QAE@ABV01@@Z 004660d0 f i hd2.obj
 0001:00065130       ??0logic_error@std@@QAE@ABV01@@Z 00466130 f i hd2.obj
 0001:000651e0       ?max_size@?$list@PAUsTitleWnd@@V?$allocator@PAUsTitleWnd@@@std@@@std@@QBEIXZ 004661e0 f i hd2.obj
 0001:00065230       ??0?$_List_nod@PAUsTitleWnd@@V?$allocator@PAUsTitleWnd@@@std@@@std@@IAE@V?$allocator@PAUsTitleWnd@@@1@@Z 00466230 f i hd2.obj
 0001:000652a0       ?construct@?$allocator@PAUsTitleWnd@@@std@@QAEXPAPAUsTitleWnd@@ABQAU3@@Z 004662a0 f i hd2.obj
 0001:000652f0       ?max_size@?$list@PAUsBKWHotkey@@V?$allocator@PAUsBKWHotkey@@@std@@@std@@QBEIXZ 004662f0 f i hd2.obj
 0001:00065340       ?construct@?$allocator@PAUsBKWHotkey@@@std@@QAEXPAPAUsBKWHotkey@@ABQAU3@@Z 00466340 f i hd2.obj
 0001:00065390       ?max_size@?$list@PAUsIconTitle@@V?$allocator@PAUsIconTitle@@@std@@@std@@QBEIXZ 00466390 f i hd2.obj
 0001:000653e0       ?construct@?$allocator@PAUsIconTitle@@@std@@QAEXPAPAUsIconTitle@@ABQAU3@@Z 004663e0 f i hd2.obj
 0001:00065430       ?max_size@?$list@PAUNewProcessInfo@@V?$allocator@PAUNewProcessInfo@@@std@@@std@@QBEIXZ 00466430 f i hd2.obj
 0001:00065480       ?construct@?$allocator@PAUNewProcessInfo@@@std@@QAEXPAPAUNewProcessInfo@@ABQAU3@@Z 00466480 f i hd2.obj
 0001:000654d0       ?max_size@?$list@PAUAutoHideItem@@V?$allocator@PAUAutoHideItem@@@std@@@std@@QBEIXZ 004664d0 f i hd2.obj
 0001:00065520       ?construct@?$allocator@PAUAutoHideItem@@@std@@QAEXPAPAUAutoHideItem@@ABQAU3@@Z 00466520 f i hd2.obj
 0001:00065570       ??0?$_Container_base_aux_alloc_empty@V?$allocator@PAUsTitleWnd@@@std@@@std@@IAE@V?$allocator@PAUsTitleWnd@@@1@@Z 00466570 f i hd2.obj
 0001:000655c0       ?max_size@?$allocator@PAUsTitleWnd@@@std@@QBEIXZ 004665c0 f i hd2.obj
 0001:00065620       ?max_size@?$allocator@PAUsBKWHotkey@@@std@@QBEIXZ 00466620 f i hd2.obj
 0001:00065680       ?max_size@?$allocator@PAUsIconTitle@@@std@@QBEIXZ 00466680 f i hd2.obj
 0001:000656e0       ?max_size@?$allocator@PAUNewProcessInfo@@@std@@QBEIXZ 004666e0 f i hd2.obj
 0001:00065740       ?max_size@?$allocator@PAUAutoHideItem@@@std@@QBEIXZ 00466740 f i hd2.obj
 0001:000657a0       ??$_Destroy@U_Node@?$_List_nod@PAUsTitleWnd@@V?$allocator@PAUsTitleWnd@@@std@@@std@@@std@@YAXPAU_Node@?$_List_nod@PAUsTitleWnd@@V?$allocator@PAUsTitleWnd@@@std@@@0@@Z 004667a0 f i hd2.obj
 0001:000657d0       ??$_Destroy@U_Node@?$_List_nod@PAUsBKWHotkey@@V?$allocator@PAUsBKWHotkey@@@std@@@std@@@std@@YAXPAU_Node@?$_List_nod@PAUsBKWHotkey@@V?$allocator@PAUsBKWHotkey@@@std@@@0@@Z 004667d0 f i hd2.obj
 0001:00065800       ??$_Destroy@U_Node@?$_List_nod@PAUsIconTitle@@V?$allocator@PAUsIconTitle@@@std@@@std@@@std@@YAXPAU_Node@?$_List_nod@PAUsIconTitle@@V?$allocator@PAUsIconTitle@@@std@@@0@@Z 00466800 f i hd2.obj
 0001:00065830       ??$_Destroy@U_Node@?$_List_nod@PAUNewProcessInfo@@V?$allocator@PAUNewProcessInfo@@@std@@@std@@@std@@YAXPAU_Node@?$_List_nod@PAUNewProcessInfo@@V?$allocator@PAUNewProcessInfo@@@std@@@0@@Z 00466830 f i hd2.obj
 0001:00065860       ??$_Destroy@U_Node@?$_List_nod@PAUAutoHideItem@@V?$allocator@PAUAutoHideItem@@@std@@@std@@@std@@YAXPAU_Node@?$_List_nod@PAUAutoHideItem@@V?$allocator@PAUAutoHideItem@@@std@@@0@@Z 00466860 f i hd2.obj
 0001:00065890       ??$?0PAUsTitleWnd@@@?$allocator@PAU_Node@?$_List_nod@PAUsTitleWnd@@V?$allocator@PAUsTitleWnd@@@std@@@std@@@std@@QAE@ABV?$allocator@PAUsTitleWnd@@@1@@Z 00466890 f i hd2.obj
 0001:000658c0       ??$_Allocate@U_Node@?$_List_nod@PAUsTitleWnd@@V?$allocator@PAUsTitleWnd@@@std@@@std@@@std@@YAPAU_Node@?$_List_nod@PAUsTitleWnd@@V?$allocator@PAUsTitleWnd@@@std@@@0@IPAU120@@Z 004668c0 f i hd2.obj
 0001:00065940       ??0bad_alloc@std@@QAE@PBD@Z 00466940 f i hd2.obj
 0001:000659a0       ??1bad_alloc@std@@UAE@XZ   004669a0 f i hd2.obj
 0001:00065a00       ??_Ebad_alloc@std@@UAEPAXI@Z 00466a00 f i hd2.obj
 0001:00065a00       ??_Gbad_alloc@std@@UAEPAXI@Z 00466a00 f i hd2.obj
 0001:00065a60       ??$_Construct@PAU_Node@?$_List_nod@PAUsTitleWnd@@V?$allocator@PAUsTitleWnd@@@std@@@std@@PAU123@@std@@YAXPAPAU_Node@?$_List_nod@PAUsTitleWnd@@V?$allocator@PAUsTitleWnd@@@std@@@0@ABQAU120@@Z 00466a60 f i hd2.obj
 0001:00065ae0       ??2@YAPAXIPAX@Z            00466ae0 f i hd2.obj
 0001:00065b10       ??$_Destroy@PAU_Node@?$_List_nod@PAUsTitleWnd@@V?$allocator@PAUsTitleWnd@@@std@@@std@@@std@@YAXPAPAU_Node@?$_List_nod@PAUsTitleWnd@@V?$allocator@PAUsTitleWnd@@@std@@@0@@Z 00466b10 f i hd2.obj
 0001:00065b40       ??$_Allocate@U_Node@?$_List_nod@PAUsBKWHotkey@@V?$allocator@PAUsBKWHotkey@@@std@@@std@@@std@@YAPAU_Node@?$_List_nod@PAUsBKWHotkey@@V?$allocator@PAUsBKWHotkey@@@std@@@0@IPAU120@@Z 00466b40 f i hd2.obj
 0001:00065bc0       ??$_Construct@PAU_Node@?$_List_nod@PAUsBKWHotkey@@V?$allocator@PAUsBKWHotkey@@@std@@@std@@PAU123@@std@@YAXPAPAU_Node@?$_List_nod@PAUsBKWHotkey@@V?$allocator@PAUsBKWHotkey@@@std@@@0@ABQAU120@@Z 00466bc0 f i hd2.obj
 0001:00065c40       ??$_Destroy@PAU_Node@?$_List_nod@PAUsBKWHotkey@@V?$allocator@PAUsBKWHotkey@@@std@@@std@@@std@@YAXPAPAU_Node@?$_List_nod@PAUsBKWHotkey@@V?$allocator@PAUsBKWHotkey@@@std@@@0@@Z 00466c40 f i hd2.obj
 0001:00065c70       ??$_Allocate@U_Node@?$_List_nod@PAUsIconTitle@@V?$allocator@PAUsIconTitle@@@std@@@std@@@std@@YAPAU_Node@?$_List_nod@PAUsIconTitle@@V?$allocator@PAUsIconTitle@@@std@@@0@IPAU120@@Z 00466c70 f i hd2.obj
 0001:00065cf0       ??$_Construct@PAU_Node@?$_List_nod@PAUsIconTitle@@V?$allocator@PAUsIconTitle@@@std@@@std@@PAU123@@std@@YAXPAPAU_Node@?$_List_nod@PAUsIconTitle@@V?$allocator@PAUsIconTitle@@@std@@@0@ABQAU120@@Z 00466cf0 f i hd2.obj
 0001:00065d70       ??$_Destroy@PAU_Node@?$_List_nod@PAUsIconTitle@@V?$allocator@PAUsIconTitle@@@std@@@std@@@std@@YAXPAPAU_Node@?$_List_nod@PAUsIconTitle@@V?$allocator@PAUsIconTitle@@@std@@@0@@Z 00466d70 f i hd2.obj
 0001:00065da0       ??$_Allocate@U_Node@?$_List_nod@PAUNewProcessInfo@@V?$allocator@PAUNewProcessInfo@@@std@@@std@@@std@@YAPAU_Node@?$_List_nod@PAUNewProcessInfo@@V?$allocator@PAUNewProcessInfo@@@std@@@0@IPAU120@@Z 00466da0 f i hd2.obj
 0001:00065e20       ??$_Construct@PAU_Node@?$_List_nod@PAUNewProcessInfo@@V?$allocator@PAUNewProcessInfo@@@std@@@std@@PAU123@@std@@YAXPAPAU_Node@?$_List_nod@PAUNewProcessInfo@@V?$allocator@PAUNewProcessInfo@@@std@@@0@ABQAU120@@Z 00466e20 f i hd2.obj
 0001:00065ea0       ??$_Destroy@PAU_Node@?$_List_nod@PAUNewProcessInfo@@V?$allocator@PAUNewProcessInfo@@@std@@@std@@@std@@YAXPAPAU_Node@?$_List_nod@PAUNewProcessInfo@@V?$allocator@PAUNewProcessInfo@@@std@@@0@@Z 00466ea0 f i hd2.obj
 0001:00065ed0       ??$_Allocate@U_Node@?$_List_nod@PAUAutoHideItem@@V?$allocator@PAUAutoHideItem@@@std@@@std@@@std@@YAPAU_Node@?$_List_nod@PAUAutoHideItem@@V?$allocator@PAUAutoHideItem@@@std@@@0@IPAU120@@Z 00466ed0 f i hd2.obj
 0001:00065f50       ??$_Construct@PAU_Node@?$_List_nod@PAUAutoHideItem@@V?$allocator@PAUAutoHideItem@@@std@@@std@@PAU123@@std@@YAXPAPAU_Node@?$_List_nod@PAUAutoHideItem@@V?$allocator@PAUAutoHideItem@@@std@@@0@ABQAU120@@Z 00466f50 f i hd2.obj
 0001:00065fd0       ??$_Destroy@PAU_Node@?$_List_nod@PAUAutoHideItem@@V?$allocator@PAUAutoHideItem@@@std@@@std@@@std@@YAXPAPAU_Node@?$_List_nod@PAUAutoHideItem@@V?$allocator@PAUAutoHideItem@@@std@@@0@@Z 00466fd0 f i hd2.obj
 0001:00066000       ??$?0PAUsTitleWnd@@@?$allocator@U_Node@?$_List_nod@PAUsTitleWnd@@V?$allocator@PAUsTitleWnd@@@std@@@std@@@std@@QAE@ABV?$allocator@PAUsTitleWnd@@@1@@Z 00467000 f i hd2.obj
 0001:00066030       ??$_Construct@PAUsTitleWnd@@PAU1@@std@@YAXPAPAUsTitleWnd@@ABQAU1@@Z 00467030 f i hd2.obj
 0001:000660b0       ??$_Construct@PAUsBKWHotkey@@PAU1@@std@@YAXPAPAUsBKWHotkey@@ABQAU1@@Z 004670b0 f i hd2.obj
 0001:00066130       ??$_Construct@PAUsIconTitle@@PAU1@@std@@YAXPAPAUsIconTitle@@ABQAU1@@Z 00467130 f i hd2.obj
 0001:000661b0       ??$_Construct@PAUNewProcessInfo@@PAU1@@std@@YAXPAPAUNewProcessInfo@@ABQAU1@@Z 004671b0 f i hd2.obj
 0001:00066230       ??$_Construct@PAUAutoHideItem@@PAU1@@std@@YAXPAPAUAutoHideItem@@ABQAU1@@Z 00467230 f i hd2.obj
 0001:000662b0       ??0bad_alloc@std@@QAE@ABV01@@Z 004672b0 f i hd2.obj
 0001:00066310       ??0?$list@PAUsBKWHotkey@@V?$allocator@PAUsBKWHotkey@@@std@@@std@@QAE@XZ 00467310 f i hd2.obj
 0001:000663b0       ??1?$_List_val@PAUsBKWHotkey@@V?$allocator@PAUsBKWHotkey@@@std@@@std@@QAE@XZ 004673b0 f i hd2.obj
 0001:000663f0       ??1?$_List_ptr@PAUsBKWHotkey@@V?$allocator@PAUsBKWHotkey@@@std@@@std@@QAE@XZ 004673f0 f i hd2.obj
 0001:00066430       ??1?$_List_nod@PAUsBKWHotkey@@V?$allocator@PAUsBKWHotkey@@@std@@@std@@QAE@XZ 00467430 f i hd2.obj
 0001:00066470       ?_Buynode@?$list@PAUsBKWHotkey@@V?$allocator@PAUsBKWHotkey@@@std@@@std@@IAEPAU_Node@?$_List_nod@PAUsBKWHotkey@@V?$allocator@PAUsBKWHotkey@@@std@@@2@XZ 00467470 f i hd2.obj
 0001:000665d0       ??0?$_List_val@PAUsBKWHotkey@@V?$allocator@PAUsBKWHotkey@@@std@@@std@@QAE@V?$allocator@PAUsBKWHotkey@@@1@@Z 004675d0 f i hd2.obj
 0001:00066640       ??1?$_Container_base_aux_alloc_empty@V?$allocator@PAUsBKWHotkey@@@std@@@std@@IAE@XZ 00467640 f i hd2.obj
 0001:00066690       ??0?$allocator@PAUsBKWHotkey@@@std@@QAE@XZ 00467690 f i hd2.obj
 0001:000666c0       ??0?$_List_ptr@PAUsBKWHotkey@@V?$allocator@PAUsBKWHotkey@@@std@@@std@@IAE@V?$allocator@PAUsBKWHotkey@@@1@@Z 004676c0 f i hd2.obj
 0001:00066730       ??0?$allocator@PAUsBKWHotkey@@@std@@QAE@ABV01@@Z 00467730 f i hd2.obj
 0001:00066760       ??0?$_List_nod@PAUsBKWHotkey@@V?$allocator@PAUsBKWHotkey@@@std@@@std@@IAE@V?$allocator@PAUsBKWHotkey@@@1@@Z 00467760 f i hd2.obj
 0001:000667d0       ??0?$_Container_base_aux_alloc_empty@V?$allocator@PAUsBKWHotkey@@@std@@@std@@IAE@V?$allocator@PAUsBKWHotkey@@@1@@Z 004677d0 f i hd2.obj
 0001:00066820       ??$?0PAUsBKWHotkey@@@?$allocator@PAU_Node@?$_List_nod@PAUsBKWHotkey@@V?$allocator@PAUsBKWHotkey@@@std@@@std@@@std@@QAE@ABV?$allocator@PAUsBKWHotkey@@@1@@Z 00467820 f i hd2.obj
 0001:00066850       ??$?0PAUsBKWHotkey@@@?$allocator@U_Node@?$_List_nod@PAUsBKWHotkey@@V?$allocator@PAUsBKWHotkey@@@std@@@std@@@std@@QAE@ABV?$allocator@PAUsBKWHotkey@@@1@@Z 00467850 f i hd2.obj
 0001:00066880       ??0?$list@PAUsIconTitle@@V?$allocator@PAUsIconTitle@@@std@@@std@@QAE@XZ 00467880 f i hd2.obj
 0001:00066920       ??1?$_List_val@PAUsIconTitle@@V?$allocator@PAUsIconTitle@@@std@@@std@@QAE@XZ 00467920 f i hd2.obj
 0001:00066960       ??1?$_List_ptr@PAUsIconTitle@@V?$allocator@PAUsIconTitle@@@std@@@std@@QAE@XZ 00467960 f i hd2.obj
 0001:000669a0       ??1?$_List_nod@PAUsIconTitle@@V?$allocator@PAUsIconTitle@@@std@@@std@@QAE@XZ 004679a0 f i hd2.obj
 0001:000669e0       ?_Buynode@?$list@PAUsIconTitle@@V?$allocator@PAUsIconTitle@@@std@@@std@@IAEPAU_Node@?$_List_nod@PAUsIconTitle@@V?$allocator@PAUsIconTitle@@@std@@@2@XZ 004679e0 f i hd2.obj
 0001:00066b40       ??0?$_List_val@PAUsIconTitle@@V?$allocator@PAUsIconTitle@@@std@@@std@@QAE@V?$allocator@PAUsIconTitle@@@1@@Z 00467b40 f i hd2.obj
 0001:00066bb0       ??1?$_Container_base_aux_alloc_empty@V?$allocator@PAUsIconTitle@@@std@@@std@@IAE@XZ 00467bb0 f i hd2.obj
 0001:00066c00       ??0?$allocator@PAUsIconTitle@@@std@@QAE@XZ 00467c00 f i hd2.obj
 0001:00066c30       ??0?$_List_ptr@PAUsIconTitle@@V?$allocator@PAUsIconTitle@@@std@@@std@@IAE@V?$allocator@PAUsIconTitle@@@1@@Z 00467c30 f i hd2.obj
 0001:00066ca0       ??0?$allocator@PAUsIconTitle@@@std@@QAE@ABV01@@Z 00467ca0 f i hd2.obj
 0001:00066cd0       ??0?$_List_nod@PAUsIconTitle@@V?$allocator@PAUsIconTitle@@@std@@@std@@IAE@V?$allocator@PAUsIconTitle@@@1@@Z 00467cd0 f i hd2.obj
 0001:00066d40       ??0?$_Container_base_aux_alloc_empty@V?$allocator@PAUsIconTitle@@@std@@@std@@IAE@V?$allocator@PAUsIconTitle@@@1@@Z 00467d40 f i hd2.obj
 0001:00066d90       ??$?0PAUsIconTitle@@@?$allocator@PAU_Node@?$_List_nod@PAUsIconTitle@@V?$allocator@PAUsIconTitle@@@std@@@std@@@std@@QAE@ABV?$allocator@PAUsIconTitle@@@1@@Z 00467d90 f i hd2.obj
 0001:00066dc0       ??$?0PAUsIconTitle@@@?$allocator@U_Node@?$_List_nod@PAUsIconTitle@@V?$allocator@PAUsIconTitle@@@std@@@std@@@std@@QAE@ABV?$allocator@PAUsIconTitle@@@1@@Z 00467dc0 f i hd2.obj
 0001:00066df0       ??0?$list@PAUNewProcessInfo@@V?$allocator@PAUNewProcessInfo@@@std@@@std@@QAE@XZ 00467df0 f i hd2.obj
 0001:00066e90       ??1?$_List_val@PAUNewProcessInfo@@V?$allocator@PAUNewProcessInfo@@@std@@@std@@QAE@XZ 00467e90 f i hd2.obj
 0001:00066ed0       ??1?$_List_ptr@PAUNewProcessInfo@@V?$allocator@PAUNewProcessInfo@@@std@@@std@@QAE@XZ 00467ed0 f i hd2.obj
 0001:00066f10       ??1?$_List_nod@PAUNewProcessInfo@@V?$allocator@PAUNewProcessInfo@@@std@@@std@@QAE@XZ 00467f10 f i hd2.obj
 0001:00066f50       ?_Buynode@?$list@PAUNewProcessInfo@@V?$allocator@PAUNewProcessInfo@@@std@@@std@@IAEPAU_Node@?$_List_nod@PAUNewProcessInfo@@V?$allocator@PAUNewProcessInfo@@@std@@@2@XZ 00467f50 f i hd2.obj
 0001:000670b0       ??0?$_List_val@PAUNewProcessInfo@@V?$allocator@PAUNewProcessInfo@@@std@@@std@@QAE@V?$allocator@PAUNewProcessInfo@@@1@@Z 004680b0 f i hd2.obj
 0001:00067120       ??1?$_Container_base_aux_alloc_empty@V?$allocator@PAUNewProcessInfo@@@std@@@std@@IAE@XZ 00468120 f i hd2.obj
 0001:00067170       ??0?$allocator@PAUNewProcessInfo@@@std@@QAE@XZ 00468170 f i hd2.obj
 0001:000671a0       ??0?$_List_ptr@PAUNewProcessInfo@@V?$allocator@PAUNewProcessInfo@@@std@@@std@@IAE@V?$allocator@PAUNewProcessInfo@@@1@@Z 004681a0 f i hd2.obj
 0001:00067210       ??0?$allocator@PAUNewProcessInfo@@@std@@QAE@ABV01@@Z 00468210 f i hd2.obj
 0001:00067240       ??0?$_List_nod@PAUNewProcessInfo@@V?$allocator@PAUNewProcessInfo@@@std@@@std@@IAE@V?$allocator@PAUNewProcessInfo@@@1@@Z 00468240 f i hd2.obj
 0001:000672b0       ??0?$_Container_base_aux_alloc_empty@V?$allocator@PAUNewProcessInfo@@@std@@@std@@IAE@V?$allocator@PAUNewProcessInfo@@@1@@Z 004682b0 f i hd2.obj
 0001:00067300       ??$?0PAUNewProcessInfo@@@?$allocator@PAU_Node@?$_List_nod@PAUNewProcessInfo@@V?$allocator@PAUNewProcessInfo@@@std@@@std@@@std@@QAE@ABV?$allocator@PAUNewProcessInfo@@@1@@Z 00468300 f i hd2.obj
 0001:00067330       ??$?0PAUNewProcessInfo@@@?$allocator@U_Node@?$_List_nod@PAUNewProcessInfo@@V?$allocator@PAUNewProcessInfo@@@std@@@std@@@std@@QAE@ABV?$allocator@PAUNewProcessInfo@@@1@@Z 00468330 f i hd2.obj
 0001:00067360       ??0?$list@PAUAutoHideItem@@V?$allocator@PAUAutoHideItem@@@std@@@std@@QAE@XZ 00468360 f i hd2.obj
 0001:00067400       ??1?$_List_val@PAUAutoHideItem@@V?$allocator@PAUAutoHideItem@@@std@@@std@@QAE@XZ 00468400 f i hd2.obj
 0001:00067440       ??1?$_List_ptr@PAUAutoHideItem@@V?$allocator@PAUAutoHideItem@@@std@@@std@@QAE@XZ 00468440 f i hd2.obj
 0001:00067480       ??1?$_List_nod@PAUAutoHideItem@@V?$allocator@PAUAutoHideItem@@@std@@@std@@QAE@XZ 00468480 f i hd2.obj
 0001:000674c0       ?_Buynode@?$list@PAUAutoHideItem@@V?$allocator@PAUAutoHideItem@@@std@@@std@@IAEPAU_Node@?$_List_nod@PAUAutoHideItem@@V?$allocator@PAUAutoHideItem@@@std@@@2@XZ 004684c0 f i hd2.obj
 0001:00067620       ??0?$_List_val@PAUAutoHideItem@@V?$allocator@PAUAutoHideItem@@@std@@@std@@QAE@V?$allocator@PAUAutoHideItem@@@1@@Z 00468620 f i hd2.obj
 0001:00067690       ??1?$_Container_base_aux_alloc_empty@V?$allocator@PAUAutoHideItem@@@std@@@std@@IAE@XZ 00468690 f i hd2.obj
 0001:000676e0       ??0?$allocator@PAUAutoHideItem@@@std@@QAE@XZ 004686e0 f i hd2.obj
 0001:00067710       ??0?$_List_ptr@PAUAutoHideItem@@V?$allocator@PAUAutoHideItem@@@std@@@std@@IAE@V?$allocator@PAUAutoHideItem@@@1@@Z 00468710 f i hd2.obj
 0001:00067780       ??0?$allocator@PAUAutoHideItem@@@std@@QAE@ABV01@@Z 00468780 f i hd2.obj
 0001:000677b0       ??0?$_List_nod@PAUAutoHideItem@@V?$allocator@PAUAutoHideItem@@@std@@@std@@IAE@V?$allocator@PAUAutoHideItem@@@1@@Z 004687b0 f i hd2.obj
 0001:00067820       ??0?$_Container_base_aux_alloc_empty@V?$allocator@PAUAutoHideItem@@@std@@@std@@IAE@V?$allocator@PAUAutoHideItem@@@1@@Z 00468820 f i hd2.obj
 0001:00067870       ??$?0PAUAutoHideItem@@@?$allocator@PAU_Node@?$_List_nod@PAUAutoHideItem@@V?$allocator@PAUAutoHideItem@@@std@@@std@@@std@@QAE@ABV?$allocator@PAUAutoHideItem@@@1@@Z 00468870 f i hd2.obj
 0001:000678a0       ??$?0PAUAutoHideItem@@@?$allocator@U_Node@?$_List_nod@PAUAutoHideItem@@V?$allocator@PAUAutoHideItem@@@std@@@std@@@std@@QAE@ABV?$allocator@PAUAutoHideItem@@@1@@Z 004688a0 f i hd2.obj
 0001:000678d0       ??1?$list@PAUsBKWHotkey@@V?$allocator@PAUsBKWHotkey@@@std@@@std@@QAE@XZ 004688d0 f i hd2.obj
 0001:00067950       ?_Tidy@?$list@PAUsBKWHotkey@@V?$allocator@PAUsBKWHotkey@@@std@@@std@@IAEXXZ 00468950 f i hd2.obj
 0001:000679f0       ?clear@?$list@PAUsBKWHotkey@@V?$allocator@PAUsBKWHotkey@@@std@@@std@@QAEXXZ 004689f0 f i hd2.obj
 0001:00067ad0       ??1?$list@PAUsIconTitle@@V?$allocator@PAUsIconTitle@@@std@@@std@@QAE@XZ 00468ad0 f i hd2.obj
 0001:00067b50       ?_Tidy@?$list@PAUsIconTitle@@V?$allocator@PAUsIconTitle@@@std@@@std@@IAEXXZ 00468b50 f i hd2.obj
 0001:00067bf0       ?clear@?$list@PAUsIconTitle@@V?$allocator@PAUsIconTitle@@@std@@@std@@QAEXXZ 00468bf0 f i hd2.obj
 0001:00067cd0       ??1?$list@PAUNewProcessInfo@@V?$allocator@PAUNewProcessInfo@@@std@@@std@@QAE@XZ 00468cd0 f i hd2.obj
 0001:00067d50       ?_Tidy@?$list@PAUNewProcessInfo@@V?$allocator@PAUNewProcessInfo@@@std@@@std@@IAEXXZ 00468d50 f i hd2.obj
 0001:00067df0       ?clear@?$list@PAUNewProcessInfo@@V?$allocator@PAUNewProcessInfo@@@std@@@std@@QAEXXZ 00468df0 f i hd2.obj
 0001:00067ed0       ??1?$list@PAUAutoHideItem@@V?$allocator@PAUAutoHideItem@@@std@@@std@@QAE@XZ 00468ed0 f i hd2.obj
 0001:00067f50       ?_Tidy@?$list@PAUAutoHideItem@@V?$allocator@PAUAutoHideItem@@@std@@@std@@IAEXXZ 00468f50 f i hd2.obj
 0001:00067ff0       ?clear@?$list@PAUAutoHideItem@@V?$allocator@PAUAutoHideItem@@@std@@@std@@QAEXXZ 00468ff0 f i hd2.obj
 0001:000680d0       ?AllocResourceForTrayList_au@@YAHXZ 004690d0 f   hd3.obj
 0001:000681f0       ?ReleaseResourceForTrayList_au@@YAHXZ 004691f0 f   hd3.obj
 0001:00068290       ?EnumAllVisibleTray_au@@YAHXZ 00469290 f   hd3.obj
 0001:00068c30       ?EnumAllVisibleWindow_au@@YAHXZ 00469c30 f   hd3.obj
 0001:00068c90       ?AllocAutoHideWindow@@YAHXZ 00469c90 f   hd3.obj
 0001:00068e00       ?ResetAutoHideWindow@@YAHXZ 00469e00 f   hd3.obj
 0001:00068f80       ?ReleaseAutoHideWindow@@YAHXZ 00469f80 f   hd3.obj
 0001:00069080       ?EnumWindowsForAU@@YGHPAUHWND__@@J@Z 0046a080 f   hd3.obj
 0001:00069560       ?BKCurrentWindow_au@@YAHPAUWndAndHandle@@@Z 0046a560 f   hd3.obj
 0001:00069710       ?ConstructBKSW_au@@YAHPA_W0PAUHWND__@@@Z 0046a710 f   hd3.obj
 0001:00069fc0       ?BKThisIcon@@YAHPAUWndAndHandle@@@Z 0046afc0 f   hd3.obj
 0001:0006a0e0       ?ReleaseTrayHidedList@@YAHXZ 0046b0e0 f   hd3.obj
 0001:0006a310       ??1?$_Iterator@$00@?$list@PAUWndAndHandle@@V?$allocator@PAUWndAndHandle@@@std@@@std@@QAE@XZ 0046b310 f i hd3.obj
 0001:0006a350       ??4?$_Iterator@$00@?$list@PAUWndAndHandle@@V?$allocator@PAUWndAndHandle@@@std@@@std@@QAEAAV012@ABV012@@Z 0046b350 f i hd3.obj
 0001:0006a3a0       ??0?$_Const_iterator@$00@?$list@PAUWndAndHandle@@V?$allocator@PAUWndAndHandle@@@std@@@std@@QAE@ABV012@@Z 0046b3a0 f i hd3.obj
 0001:0006a400       ??1?$_Const_iterator@$00@?$list@PAUWndAndHandle@@V?$allocator@PAUWndAndHandle@@@std@@@std@@QAE@XZ 0046b400 f i hd3.obj
 0001:0006a440       ??4?$_Const_iterator@$00@?$list@PAUWndAndHandle@@V?$allocator@PAUWndAndHandle@@@std@@@std@@QAEAAV012@ABV012@@Z 0046b440 f i hd3.obj
 0001:0006a4a0       ??0?$_Bidit@PAUWndAndHandle@@HPBQAU1@ABQAU1@@std@@QAE@ABU01@@Z 0046b4a0 f i hd3.obj
 0001:0006a4f0       ??1?$_Bidit@PAUWndAndHandle@@HPBQAU1@ABQAU1@@std@@QAE@XZ 0046b4f0 f i hd3.obj
 0001:0006a530       ??4?$_Bidit@PAUWndAndHandle@@HPBQAU1@ABQAU1@@std@@QAEAAU01@ABU01@@Z 0046b530 f i hd3.obj
 0001:0006a580       ??0?$_Iterator_with_base@Ubidirectional_iterator_tag@std@@PAUWndAndHandle@@HPBQAU3@ABQAU3@V_Iterator_base@2@@std@@QAE@ABU01@@Z 0046b580 f i hd3.obj
 0001:0006a5d0       ??1?$_Iterator_with_base@Ubidirectional_iterator_tag@std@@PAUWndAndHandle@@HPBQAU3@ABQAU3@V_Iterator_base@2@@std@@QAE@XZ 0046b5d0 f i hd3.obj
 0001:0006a610       ??4?$_Iterator_with_base@Ubidirectional_iterator_tag@std@@PAUWndAndHandle@@HPBQAU3@ABQAU3@V_Iterator_base@2@@std@@QAEAAU01@ABU01@@Z 0046b610 f i hd3.obj
 0001:0006a660       ?IsInHidedList@@YAHPAUWndAndHandle@@@Z 0046b660 f   hd3.obj
 0001:0006a850       ?IsInHidedWndList@@YAHPAUWndAndHandle@@@Z 0046b850 f   hd3.obj
 0001:0006aa40       ?ReleaseHidedWndList@@YAHXZ 0046ba40 f   hd3.obj
 0001:0006ac80       ?IsInAutoHideList@@YAHPA_WH@Z 0046bc80 f   hd3.obj
 0001:0006aec0       ?GetGifLink@@YAHXZ         0046bec0 f   hd3.obj
 0001:0006b000       ?GetGifFile@@YAHXZ         0046c000 f   hd3.obj
 0001:0006b500       ?ReloadGif@@YAHXZ          0046c500 f   hd3.obj
 0001:0006bb30       ?IfNotExitDbCopy@@YAHXZ    0046cb30 f   hd3.obj
 0001:0006bcb0       ?ReleaseUrlArray@@YAHAAV?$vector@PAUsGifUrl@@V?$allocator@PAUsGifUrl@@@std@@@std@@@Z 0046ccb0 f   hd3.obj
 0001:0006beb0       ??1?$_Vector_iterator@PAUsGifUrl@@V?$allocator@PAUsGifUrl@@@std@@@std@@QAE@XZ 0046ceb0 f i hd3.obj
 0001:0006bef0       ??0?$_Vector_const_iterator@PAUsGifUrl@@V?$allocator@PAUsGifUrl@@@std@@@std@@QAE@ABV01@@Z 0046cef0 f i hd3.obj
 0001:0006bf50       ??1?$_Vector_const_iterator@PAUsGifUrl@@V?$allocator@PAUsGifUrl@@@std@@@std@@QAE@XZ 0046cf50 f i hd3.obj
 0001:0006bf90       ??0?$_Ranit@PAUsGifUrl@@HPBQAU1@ABQAU1@@std@@QAE@ABU01@@Z 0046cf90 f i hd3.obj
 0001:0006bfe0       ??1?$_Ranit@PAUsGifUrl@@HPBQAU1@ABQAU1@@std@@QAE@XZ 0046cfe0 f i hd3.obj
 0001:0006c020       ??0?$_Iterator_with_base@Urandom_access_iterator_tag@std@@PAUsGifUrl@@HPBQAU3@ABQAU3@V_Iterator_base@2@@std@@QAE@ABU01@@Z 0046d020 f i hd3.obj
 0001:0006c070       ??1?$_Iterator_with_base@Urandom_access_iterator_tag@std@@PAUsGifUrl@@HPBQAU3@ABQAU3@V_Iterator_base@2@@std@@QAE@XZ 0046d070 f i hd3.obj
 0001:0006c0b0       ?ReadGifLinkToList@@YAHAAV?$vector@PAUsGifUrl@@V?$allocator@PAUsGifUrl@@@std@@@std@@@Z 0046d0b0 f   hd3.obj
 0001:0006c2b0       ?begin@?$vector@PAUsGifUrl@@V?$allocator@PAUsGifUrl@@@std@@@std@@QAE?AV?$_Vector_iterator@PAUsGifUrl@@V?$allocator@PAUsGifUrl@@@std@@@2@XZ 0046d2b0 f i hd3.obj
 0001:0006c320       ?push_back@?$vector@PAUsGifUrl@@V?$allocator@PAUsGifUrl@@@std@@@std@@QAEXABQAUsGifUrl@@@Z 0046d320 f i hd3.obj
 0001:0006c450       ?erase@?$vector@PAUsGifUrl@@V?$allocator@PAUsGifUrl@@@std@@@std@@QAE?AV?$_Vector_iterator@PAUsGifUrl@@V?$allocator@PAUsGifUrl@@@std@@@2@V?$_Vector_const_iterator@PAUsGifUrl@@V?$allocator@PAUsGifUrl@@@std@@@2@@Z 0046d450 f i hd3.obj
 0001:0006c590       ?begin@?$list@PAUWndAndHandle@@V?$allocator@PAUWndAndHandle@@@std@@@std@@QAE?AV?$_Iterator@$00@12@XZ 0046d590 f i hd3.obj
 0001:0006c610       ?end@?$list@PAUWndAndHandle@@V?$allocator@PAUWndAndHandle@@@std@@@std@@QAE?AV?$_Iterator@$00@12@XZ 0046d610 f i hd3.obj
 0001:0006c680       ?size@?$list@PAUWndAndHandle@@V?$allocator@PAUWndAndHandle@@@std@@@std@@QBEIXZ 0046d680 f i hd3.obj
 0001:0006c6b0       ?push_back@?$list@PAUWndAndHandle@@V?$allocator@PAUWndAndHandle@@@std@@@std@@QAEXABQAUWndAndHandle@@@Z 0046d6b0 f i hd3.obj
 0001:0006c780       ?erase@?$list@PAUWndAndHandle@@V?$allocator@PAUWndAndHandle@@@std@@@std@@QAE?AV?$_Iterator@$00@12@V?$_Const_iterator@$00@12@@Z 0046d780 f i hd3.obj
 0001:0006c960       ??0?$_Iterator@$00@?$list@PAUWndAndHandle@@V?$allocator@PAUWndAndHandle@@@std@@@std@@QAE@XZ 0046d960 f i hd3.obj
 0001:0006c9b0       ??D?$_Iterator@$00@?$list@PAUWndAndHandle@@V?$allocator@PAUWndAndHandle@@@std@@@std@@QBEAAPAUWndAndHandle@@XZ 0046d9b0 f i hd3.obj
 0001:0006c9f0       ??E?$_Iterator@$00@?$list@PAUWndAndHandle@@V?$allocator@PAUWndAndHandle@@@std@@@std@@QAE?AV012@H@Z 0046d9f0 f i hd3.obj
 0001:0006cad0       ??9?$_Const_iterator@$00@?$list@PAUWndAndHandle@@V?$allocator@PAUWndAndHandle@@@std@@@std@@QBE_NABV012@@Z 0046dad0 f i hd3.obj
 0001:0006cb20       ??D?$_Vector_iterator@PAUsGifUrl@@V?$allocator@PAUsGifUrl@@@std@@@std@@QBEAAPAUsGifUrl@@XZ 0046db20 f i hd3.obj
 0001:0006cb60       ??H?$_Vector_iterator@PAUsGifUrl@@V?$allocator@PAUsGifUrl@@@std@@@std@@QBE?AV01@H@Z 0046db60 f i hd3.obj
 0001:0006cc40       ??0?$_Iterator@$00@?$list@PAUWndAndHandle@@V?$allocator@PAUWndAndHandle@@@std@@@std@@QAE@ABV012@@Z 0046dc40 f i hd3.obj
 0001:0006cc90       ??0?$_Vector_iterator@PAUsGifUrl@@V?$allocator@PAUsGifUrl@@@std@@@std@@QAE@ABV01@@Z 0046dc90 f i hd3.obj
 0001:0006cce0       ?capacity@?$vector@PAUsGifUrl@@V?$allocator@PAUsGifUrl@@@std@@@std@@QBEIXZ 0046dce0 f i hd3.obj
 0001:0006cd40       ?end@?$vector@PAUsGifUrl@@V?$allocator@PAUsGifUrl@@@std@@@std@@QAE?AV?$_Vector_iterator@PAUsGifUrl@@V?$allocator@PAUsGifUrl@@@std@@@2@XZ 0046dd40 f i hd3.obj
 0001:0006cdb0       ?insert@?$vector@PAUsGifUrl@@V?$allocator@PAUsGifUrl@@@std@@@std@@QAE?AV?$_Vector_iterator@PAUsGifUrl@@V?$allocator@PAUsGifUrl@@@std@@@2@V?$_Vector_const_iterator@PAUsGifUrl@@V?$allocator@PAUsGifUrl@@@std@@@2@ABQAUsGifUrl@@@Z 0046ddb0 f i hd3.obj
 0001:0006cf40       ?_Destroy@?$vector@PAUsGifUrl@@V?$allocator@PAUsGifUrl@@@std@@@std@@IAEXPAPAUsGifUrl@@0@Z 0046df40 f i hd3.obj
 0001:0006cf90       ?_Ufill@?$vector@PAUsGifUrl@@V?$allocator@PAUsGifUrl@@@std@@@std@@IAEPAPAUsGifUrl@@PAPAU3@IABQAU3@@Z 0046df90 f i hd3.obj
 0001:0006cff0       ?_Orphan_range@?$vector@PAUsGifUrl@@V?$allocator@PAUsGifUrl@@@std@@@std@@IBEXPAPAUsGifUrl@@0@Z 0046dff0 f i hd3.obj
 0001:0006d0d0       ?_Nextnode@?$list@PAUWndAndHandle@@V?$allocator@PAUWndAndHandle@@@std@@@std@@KAAAPAU_Node@?$_List_nod@PAUWndAndHandle@@V?$allocator@PAUWndAndHandle@@@std@@@2@PAU342@@Z 0046e0d0 f i hd3.obj
 0001:0006d100       ?_Prevnode@?$list@PAUWndAndHandle@@V?$allocator@PAUWndAndHandle@@@std@@@std@@KAAAPAU_Node@?$_List_nod@PAUWndAndHandle@@V?$allocator@PAUWndAndHandle@@@std@@@2@PAU342@@Z 0046e100 f i hd3.obj
 0001:0006d130       ?_Make_iter@?$list@PAUWndAndHandle@@V?$allocator@PAUWndAndHandle@@@std@@@std@@QBE?AV?$_Iterator@$00@12@V?$_Const_iterator@$00@12@@Z 0046e130 f i hd3.obj
 0001:0006d1e0       ?_Insert@?$list@PAUWndAndHandle@@V?$allocator@PAUWndAndHandle@@@std@@@std@@QAEXV?$_Const_iterator@$00@12@ABQAUWndAndHandle@@@Z 0046e1e0 f i hd3.obj
 0001:0006d2f0       ?_Orphan_ptr@?$list@PAUWndAndHandle@@V?$allocator@PAUWndAndHandle@@@std@@@std@@IBEXAAV12@PAU_Node@?$_List_nod@PAUWndAndHandle@@V?$allocator@PAUWndAndHandle@@@std@@@2@@Z 0046e2f0 f i hd3.obj
 0001:0006d3e0       ?deallocate@?$allocator@U_Node@?$_List_nod@PAUWndAndHandle@@V?$allocator@PAUWndAndHandle@@@std@@@std@@@std@@QAEXPAU_Node@?$_List_nod@PAUWndAndHandle@@V?$allocator@PAUWndAndHandle@@@std@@@2@I@Z 0046e3e0 f i hd3.obj
 0001:0006d430       ?destroy@?$allocator@U_Node@?$_List_nod@PAUWndAndHandle@@V?$allocator@PAUWndAndHandle@@@std@@@std@@@std@@QAEXPAU_Node@?$_List_nod@PAUWndAndHandle@@V?$allocator@PAUWndAndHandle@@@std@@@2@@Z 0046e430 f i hd3.obj
 0001:0006d480       ??0?$_Iterator@$00@?$list@PAUWndAndHandle@@V?$allocator@PAUWndAndHandle@@@std@@@std@@QAE@PAU_Node@?$_List_nod@PAUWndAndHandle@@V?$allocator@PAUWndAndHandle@@@std@@@2@PBV12@@Z 0046e480 f i hd3.obj
 0001:0006d4d0       ??E?$_Iterator@$00@?$list@PAUWndAndHandle@@V?$allocator@PAUWndAndHandle@@@std@@@std@@QAEAAV012@XZ 0046e4d0 f i hd3.obj
 0001:0006d520       ??0?$_Const_iterator@$00@?$list@PAUWndAndHandle@@V?$allocator@PAUWndAndHandle@@@std@@@std@@QAE@XZ 0046e520 f i hd3.obj
 0001:0006d570       ??D?$_Const_iterator@$00@?$list@PAUWndAndHandle@@V?$allocator@PAUWndAndHandle@@@std@@@std@@QBEABQAUWndAndHandle@@XZ 0046e570 f i hd3.obj
 0001:0006d660       ??E?$_Const_iterator@$00@?$list@PAUWndAndHandle@@V?$allocator@PAUWndAndHandle@@@std@@@std@@QAE?AV012@H@Z 0046e660 f i hd3.obj
 0001:0006d740       ??8?$_Const_iterator@$00@?$list@PAUWndAndHandle@@V?$allocator@PAUWndAndHandle@@@std@@@std@@QBE_NABV012@@Z 0046e740 f i hd3.obj
 0001:0006d7a0       ?_Mynode@?$_Const_iterator@$00@?$list@PAUWndAndHandle@@V?$allocator@PAUWndAndHandle@@@std@@@std@@QBEPAU_Node@?$_List_nod@PAUWndAndHandle@@V?$allocator@PAUWndAndHandle@@@std@@@3@XZ 0046e7a0 f i hd3.obj
 0001:0006d7d0       ??0?$_Vector_iterator@PAUsGifUrl@@V?$allocator@PAUsGifUrl@@@std@@@std@@QAE@PAPAUsGifUrl@@PBV_Container_base_secure@1@@Z 0046e7d0 f i hd3.obj
 0001:0006d820       ??Y?$_Vector_iterator@PAUsGifUrl@@V?$allocator@PAUsGifUrl@@@std@@@std@@QAEAAV01@H@Z 0046e820 f i hd3.obj
 0001:0006d870       ??D?$_Vector_const_iterator@PAUsGifUrl@@V?$allocator@PAUsGifUrl@@@std@@@std@@QBEABQAUsGifUrl@@XZ 0046e870 f i hd3.obj
 0001:0006d950       ??0?$_Bidit@PAUWndAndHandle@@HPBQAU1@ABQAU1@@std@@QAE@XZ 0046e950 f i hd3.obj
 0001:0006d9a0       ??0?$_Iterator_with_base@Ubidirectional_iterator_tag@std@@PAUWndAndHandle@@HPBQAU3@ABQAU3@V_Iterator_base@2@@std@@QAE@XZ 0046e9a0 f i hd3.obj
 0001:0006d9f0       ?_Insert_n@?$vector@PAUsGifUrl@@V?$allocator@PAUsGifUrl@@@std@@@std@@IAEXV?$_Vector_const_iterator@PAUsGifUrl@@V?$allocator@PAUsGifUrl@@@std@@@2@IABQAUsGifUrl@@@Z 0046e9f0 f i hd3.obj
 0001:0006de90       ?max_size@?$vector@PAUsGifUrl@@V?$allocator@PAUsGifUrl@@@std@@@std@@QBEIXZ 0046ee90 f i hd3.obj
 0001:0006dee0       ?_Xlen@?$vector@PAUsGifUrl@@V?$allocator@PAUsGifUrl@@@std@@@std@@KAXXZ 0046eee0 f i hd3.obj
 0001:0006dfa0       ?deallocate@?$allocator@PAUsGifUrl@@@std@@QAEXPAPAUsGifUrl@@I@Z 0046efa0 f i hd3.obj
 0001:0006dff0       ?allocate@?$allocator@PAUsGifUrl@@@std@@QAEPAPAUsGifUrl@@I@Z 0046eff0 f i hd3.obj
 0001:0006e040       ?_Myval@?$list@PAUWndAndHandle@@V?$allocator@PAUWndAndHandle@@@std@@@std@@KAAAPAUWndAndHandle@@PAU_Node@?$_List_nod@PAUWndAndHandle@@V?$allocator@PAUWndAndHandle@@@std@@@2@@Z 0046f040 f i hd3.obj
 0001:0006e070       ?_Buynode@?$list@PAUWndAndHandle@@V?$allocator@PAUWndAndHandle@@@std@@@std@@IAEPAU_Node@?$_List_nod@PAUWndAndHandle@@V?$allocator@PAUWndAndHandle@@@std@@@2@PAU342@0ABQAUWndAndHandle@@@Z 0046f070 f i hd3.obj
 0001:0006e1f0       ?_Incsize@?$list@PAUWndAndHandle@@V?$allocator@PAUWndAndHandle@@@std@@@std@@IAEXI@Z 0046f1f0 f i hd3.obj
 0001:0006e2e0       ?allocate@?$allocator@U_Node@?$_List_nod@PAUWndAndHandle@@V?$allocator@PAUWndAndHandle@@@std@@@std@@@std@@QAEPAU_Node@?$_List_nod@PAUWndAndHandle@@V?$allocator@PAUWndAndHandle@@@std@@@2@I@Z 0046f2e0 f i hd3.obj
 0001:0006e330       ?construct@?$allocator@PAU_Node@?$_List_nod@PAUWndAndHandle@@V?$allocator@PAUWndAndHandle@@@std@@@std@@@std@@QAEXPAPAU_Node@?$_List_nod@PAUWndAndHandle@@V?$allocator@PAUWndAndHandle@@@std@@@2@ABQAU342@@Z 0046f330 f i hd3.obj
 0001:0006e380       ?destroy@?$allocator@PAU_Node@?$_List_nod@PAUWndAndHandle@@V?$allocator@PAUWndAndHandle@@@std@@@std@@@std@@QAEXPAPAU_Node@?$_List_nod@PAUWndAndHandle@@V?$allocator@PAUWndAndHandle@@@std@@@2@@Z 0046f380 f i hd3.obj
 0001:0006e3d0       ??0?$_Const_iterator@$00@?$list@PAUWndAndHandle@@V?$allocator@PAUWndAndHandle@@@std@@@std@@QAE@PAU_Node@?$_List_nod@PAUWndAndHandle@@V?$allocator@PAUWndAndHandle@@@std@@@2@PBV12@@Z 0046f3d0 f i hd3.obj
 0001:0006e470       ??E?$_Const_iterator@$00@?$list@PAUWndAndHandle@@V?$allocator@PAUWndAndHandle@@@std@@@std@@QAEAAV012@XZ 0046f470 f i hd3.obj
 0001:0006e570       ?_Compat@?$_Const_iterator@$00@?$list@PAUWndAndHandle@@V?$allocator@PAUWndAndHandle@@@std@@@std@@QBEXABV123@@Z 0046f570 f i hd3.obj
 0001:0006e650       ??0?$_Vector_const_iterator@PAUsGifUrl@@V?$allocator@PAUsGifUrl@@@std@@@std@@QAE@PAPAUsGifUrl@@PBV_Container_base_secure@1@@Z 0046f650 f i hd3.obj
 0001:0006e760       ??Y?$_Vector_const_iterator@PAUsGifUrl@@V?$allocator@PAUsGifUrl@@@std@@@std@@QAEAAV01@H@Z 0046f760 f i hd3.obj
 0001:0006e8b0       ?_Getmycont@_Iterator_base@std@@QBEPBV_Container_base_secure@2@XZ 0046f8b0 f i hd3.obj
 0001:0006e8e0       ?_Has_container@_Iterator_base@std@@QBE_NXZ 0046f8e0 f i hd3.obj
 0001:0006e920       ??G?$_Vector_const_iterator@PAUsGifUrl@@V?$allocator@PAUsGifUrl@@@std@@@std@@QBEHABV01@@Z 0046f920 f i hd3.obj
 0001:0006e980       ??0?$_Ranit@PAUsGifUrl@@HPBQAU1@ABQAU1@@std@@QAE@XZ 0046f980 f i hd3.obj
 0001:0006e9d0       ??0?$_Iterator_with_base@Urandom_access_iterator_tag@std@@PAUsGifUrl@@HPBQAU3@ABQAU3@V_Iterator_base@2@@std@@QAE@XZ 0046f9d0 f i hd3.obj
 0001:0006ea20       ?max_size@?$allocator@PAUsGifUrl@@@std@@QBEIXZ 0046fa20 f i hd3.obj
 0001:0006ea80       ?max_size@?$list@PAUWndAndHandle@@V?$allocator@PAUWndAndHandle@@@std@@@std@@QBEIXZ 0046fa80 f i hd3.obj
 0001:0006ead0       ?construct@?$allocator@PAUWndAndHandle@@@std@@QAEXPAPAUWndAndHandle@@ABQAU3@@Z 0046fad0 f i hd3.obj
 0001:0006eb20       ?_Compat@?$_Vector_const_iterator@PAUsGifUrl@@V?$allocator@PAUsGifUrl@@@std@@@std@@QBEXABV12@@Z 0046fb20 f i hd3.obj
 0001:0006ebf0       ?max_size@?$allocator@PAUWndAndHandle@@@std@@QBEIXZ 0046fbf0 f i hd3.obj
 0001:0006ec50       ??$unchecked_copy@PAPAUsGifUrl@@PAPAU1@@stdext@@YAPAPAUsGifUrl@@PAPAU1@00@Z 0046fc50 f i hd3.obj
 0001:0006ed00       ??$_Destroy_range@V?$allocator@PAUsGifUrl@@@std@@@std@@YAXPAPAUsGifUrl@@0AAV?$allocator@PAUsGifUrl@@@0@@Z 0046fd00 f i hd3.obj
 0001:0006ed70       ??$unchecked_uninitialized_fill_n@PAPAUsGifUrl@@IPAU1@V?$allocator@PAUsGifUrl@@@std@@@stdext@@YAXPAPAUsGifUrl@@IABQAU1@AAV?$allocator@PAUsGifUrl@@@std@@@Z 0046fd70 f i hd3.obj
 0001:0006edf0       ??$_Destroy@U_Node@?$_List_nod@PAUWndAndHandle@@V?$allocator@PAUWndAndHandle@@@std@@@std@@@std@@YAXPAU_Node@?$_List_nod@PAUWndAndHandle@@V?$allocator@PAUWndAndHandle@@@std@@@0@@Z 0046fdf0 f i hd3.obj
 0001:0006ee20       ??$_Umove@PAPAUsGifUrl@@@?$vector@PAUsGifUrl@@V?$allocator@PAUsGifUrl@@@std@@@std@@IAEPAPAUsGifUrl@@PAPAU2@00@Z 0046fe20 f i hd3.obj
 0001:0006ee80       ??$fill@PAPAUsGifUrl@@PAU1@@std@@YAXPAPAUsGifUrl@@0ABQAU1@@Z 0046fe80 f i hd3.obj
 0001:0006eee0       ??$_Unchecked_move_backward@PAPAUsGifUrl@@PAPAU1@@stdext@@YAPAPAUsGifUrl@@PAPAU1@00@Z 0046fee0 f i hd3.obj
 0001:0006ef80       ??$_Allocate@PAUsGifUrl@@@std@@YAPAPAUsGifUrl@@IPAPAU1@@Z 0046ff80 f i hd3.obj
 0001:0006f000       ??$_Allocate@U_Node@?$_List_nod@PAUWndAndHandle@@V?$allocator@PAUWndAndHandle@@@std@@@std@@@std@@YAPAU_Node@?$_List_nod@PAUWndAndHandle@@V?$allocator@PAUWndAndHandle@@@std@@@0@IPAU120@@Z 00470000 f i hd3.obj
 0001:0006f080       ??$_Construct@PAU_Node@?$_List_nod@PAUWndAndHandle@@V?$allocator@PAUWndAndHandle@@@std@@@std@@PAU123@@std@@YAXPAPAU_Node@?$_List_nod@PAUWndAndHandle@@V?$allocator@PAUWndAndHandle@@@std@@@0@ABQAU120@@Z 00470080 f i hd3.obj
 0001:0006f100       ??$_Destroy@PAU_Node@?$_List_nod@PAUWndAndHandle@@V?$allocator@PAUWndAndHandle@@@std@@@std@@@std@@YAXPAPAU_Node@?$_List_nod@PAUWndAndHandle@@V?$allocator@PAUWndAndHandle@@@std@@@0@@Z 00470100 f i hd3.obj
 0001:0006f130       ??$_Construct@PAUWndAndHandle@@PAU1@@std@@YAXPAPAUWndAndHandle@@ABQAU1@@Z 00470130 f i hd3.obj
 0001:0006f1b0       ??$_Checked_base@PAPAUsGifUrl@@@std@@YAPAPAUsGifUrl@@AAPAPAU1@@Z 004701b0 f i hd3.obj
 0001:0006f230       ??$_Iter_random@PAPAUsGifUrl@@PAPAU1@@std@@YA?AUrandom_access_iterator_tag@0@ABQAPAUsGifUrl@@0@Z 00470230 f i hd3.obj
 0001:0006f290       ??$_Ptr_cat@PAPAUsGifUrl@@PAPAU1@@std@@YA?AU_Scalar_ptr_iterator_tag@0@AAPAPAUsGifUrl@@0@Z 00470290 f i hd3.obj
 0001:0006f2f0       ??$_Copy_opt@PAPAUsGifUrl@@PAPAU1@Urandom_access_iterator_tag@std@@@std@@YAPAPAUsGifUrl@@PAPAU1@00Urandom_access_iterator_tag@0@U_Scalar_ptr_iterator_tag@0@U_Range_checked_iterator_tag@0@@Z 004702f0 f i hd3.obj
 0001:0006f3b0       ??$_Destroy_range@V?$allocator@PAUsGifUrl@@@std@@@std@@YAXPAPAUsGifUrl@@0AAV?$allocator@PAUsGifUrl@@@0@U_Scalar_ptr_iterator_tag@0@@Z 004703b0 f i hd3.obj
 0001:0006f3e0       ??$_Uninit_fill_n@PAPAUsGifUrl@@IPAU1@V?$allocator@PAUsGifUrl@@@std@@@std@@YAXPAPAUsGifUrl@@IABQAU1@AAV?$allocator@PAUsGifUrl@@@0@U_Scalar_ptr_iterator_tag@0@U_Range_checked_iterator_tag@0@@Z 004703e0 f i hd3.obj
 0001:0006f430       ??$_Unchecked_uninitialized_move@PAPAUsGifUrl@@PAPAU1@V?$allocator@PAUsGifUrl@@@std@@@stdext@@YAPAPAUsGifUrl@@PAPAU1@00AAV?$allocator@PAUsGifUrl@@@std@@@Z 00470430 f i hd3.obj
 0001:0006f4c0       ??$_Fill@PAPAUsGifUrl@@PAU1@@std@@YAXPAPAUsGifUrl@@0ABQAU1@@Z 004704c0 f i hd3.obj
 0001:0006f530       ??$_Move_cat@PAPAUsGifUrl@@@std@@YA?AU_Undefined_move_tag@0@ABQAPAUsGifUrl@@@Z 00470530 f i hd3.obj
 0001:0006f590       ??$_Move_backward_opt@PAPAUsGifUrl@@PAPAU1@Urandom_access_iterator_tag@std@@U_Undefined_move_tag@3@@std@@YAPAPAUsGifUrl@@PAPAU1@00Urandom_access_iterator_tag@0@U_Undefined_move_tag@0@U_Range_checked_iterator_tag@0@@Z 00470590 f i hd3.obj
 0001:0006f610       ??$_Checked_base@PAPAUsGifUrl@@@std@@YAPAPAUsGifUrl@@AAPAPAU1@U_Unchanged_checked_iterator_base_type_tag@0@@Z 00470610 f i hd3.obj
 0001:0006f640       ??$_Debug_range@PAPAUsGifUrl@@@std@@YAXPAPAUsGifUrl@@0PB_WI@Z 00470640 f i hd3.obj
 0001:0006f6b0       ??$_Debug_pointer@PAUsGifUrl@@@std@@YAXPAPAUsGifUrl@@PB_WI@Z 004706b0 f i hd3.obj
 0001:0006f710       ??$unchecked_fill_n@PAPAUsGifUrl@@IPAU1@@stdext@@YAXPAPAUsGifUrl@@IABQAU1@@Z 00470710 f i hd3.obj
 0001:0006f780       ??$_Uninit_move@PAPAUsGifUrl@@PAPAU1@V?$allocator@PAUsGifUrl@@@std@@U_Undefined_move_tag@3@@std@@YAPAPAUsGifUrl@@PAPAU1@00AAV?$allocator@PAUsGifUrl@@@0@U_Undefined_move_tag@0@U_Range_checked_iterator_tag@0@@Z 00470780 f i hd3.obj
 0001:0006f7d0       ??$_Copy_backward_opt@PAPAUsGifUrl@@PAPAU1@Urandom_access_iterator_tag@std@@@std@@YAPAPAUsGifUrl@@PAPAU1@00Urandom_access_iterator_tag@0@U_Scalar_ptr_iterator_tag@0@U_Range_checked_iterator_tag@0@@Z 004707d0 f i hd3.obj
 0001:0006f890       ??$_Iter_cat@PAPAUsGifUrl@@@std@@YA?AUrandom_access_iterator_tag@0@ABQAPAUsGifUrl@@@Z 00470890 f i hd3.obj
 0001:0006f8f0       ??$_Debug_range2@PAPAUsGifUrl@@@std@@YAXPAPAUsGifUrl@@0PB_WIUrandom_access_iterator_tag@0@@Z 004708f0 f i hd3.obj
 0001:0006f980       ??$_Fill_n@PAPAUsGifUrl@@IPAU1@@std@@YAXPAPAUsGifUrl@@IABQAU1@Urandom_access_iterator_tag@0@U_Range_checked_iterator_tag@0@@Z 00470980 f i hd3.obj
 0001:0006f9f0       ??$unchecked_uninitialized_copy@PAPAUsGifUrl@@PAPAU1@V?$allocator@PAUsGifUrl@@@std@@@stdext@@YAPAPAUsGifUrl@@PAPAU1@00AAV?$allocator@PAUsGifUrl@@@std@@@Z 004709f0 f i hd3.obj
 0001:0006fa80       ??$_Fill_n@PAPAUsGifUrl@@IPAU1@@std@@YAXPAPAUsGifUrl@@IABQAU1@U_Range_checked_iterator_tag@0@@Z 00470a80 f i hd3.obj
 0001:0006fad0       ??$_Uninit_copy@PAPAUsGifUrl@@PAPAU1@V?$allocator@PAUsGifUrl@@@std@@@std@@YAPAPAUsGifUrl@@PAPAU1@00AAV?$allocator@PAUsGifUrl@@@0@U_Scalar_ptr_iterator_tag@0@U_Range_checked_iterator_tag@0@@Z 00470ad0 f i hd3.obj
 0001:0006fb80       ??0?$vector@PAUsGifUrl@@V?$allocator@PAUsGifUrl@@@std@@@std@@QAE@XZ 00470b80 f i hd3.obj
 0001:0006fc20       ??1?$_Vector_val@PAUsGifUrl@@V?$allocator@PAUsGifUrl@@@std@@@std@@QAE@XZ 00470c20 f i hd3.obj
 0001:0006fc60       ?_Buy@?$vector@PAUsGifUrl@@V?$allocator@PAUsGifUrl@@@std@@@std@@IAE_NI@Z 00470c60 f i hd3.obj
 0001:0006fd10       ??0?$_Vector_val@PAUsGifUrl@@V?$allocator@PAUsGifUrl@@@std@@@std@@IAE@V?$allocator@PAUsGifUrl@@@1@@Z 00470d10 f i hd3.obj
 0001:0006fd80       ??1?$_Container_base_aux_alloc_empty@V?$allocator@PAUsGifUrl@@@std@@@std@@IAE@XZ 00470d80 f i hd3.obj
 0001:0006fdd0       ??0?$allocator@PAUsGifUrl@@@std@@QAE@XZ 00470dd0 f i hd3.obj
 0001:0006fe00       ??0?$_Container_base_aux_alloc_empty@V?$allocator@PAUsGifUrl@@@std@@@std@@IAE@V?$allocator@PAUsGifUrl@@@1@@Z 00470e00 f i hd3.obj
 0001:0006fe50       ??0?$allocator@PAUsGifUrl@@@std@@QAE@ABV01@@Z 00470e50 f i hd3.obj
 0001:0006fe80       ??0?$list@PAUWndAndHandle@@V?$allocator@PAUWndAndHandle@@@std@@@std@@QAE@XZ 00470e80 f i hd3.obj
 0001:0006ff20       ??1?$_List_val@PAUWndAndHandle@@V?$allocator@PAUWndAndHandle@@@std@@@std@@QAE@XZ 00470f20 f i hd3.obj
 0001:0006ff60       ??1?$_List_ptr@PAUWndAndHandle@@V?$allocator@PAUWndAndHandle@@@std@@@std@@QAE@XZ 00470f60 f i hd3.obj
 0001:0006ffa0       ??1?$_List_nod@PAUWndAndHandle@@V?$allocator@PAUWndAndHandle@@@std@@@std@@QAE@XZ 00470fa0 f i hd3.obj
 0001:0006ffe0       ?_Buynode@?$list@PAUWndAndHandle@@V?$allocator@PAUWndAndHandle@@@std@@@std@@IAEPAU_Node@?$_List_nod@PAUWndAndHandle@@V?$allocator@PAUWndAndHandle@@@std@@@2@XZ 00470fe0 f i hd3.obj
 0001:00070140       ??0?$_List_val@PAUWndAndHandle@@V?$allocator@PAUWndAndHandle@@@std@@@std@@QAE@V?$allocator@PAUWndAndHandle@@@1@@Z 00471140 f i hd3.obj
 0001:000701b0       ??1?$_Container_base_aux_alloc_empty@V?$allocator@PAUWndAndHandle@@@std@@@std@@IAE@XZ 004711b0 f i hd3.obj
 0001:00070200       ??0?$allocator@PAUWndAndHandle@@@std@@QAE@XZ 00471200 f i hd3.obj
 0001:00070230       ??0?$_List_ptr@PAUWndAndHandle@@V?$allocator@PAUWndAndHandle@@@std@@@std@@IAE@V?$allocator@PAUWndAndHandle@@@1@@Z 00471230 f i hd3.obj
 0001:000702a0       ??0?$allocator@PAUWndAndHandle@@@std@@QAE@ABV01@@Z 004712a0 f i hd3.obj
 0001:000702d0       ??0?$_List_nod@PAUWndAndHandle@@V?$allocator@PAUWndAndHandle@@@std@@@std@@IAE@V?$allocator@PAUWndAndHandle@@@1@@Z 004712d0 f i hd3.obj
 0001:00070340       ??0?$_Container_base_aux_alloc_empty@V?$allocator@PAUWndAndHandle@@@std@@@std@@IAE@V?$allocator@PAUWndAndHandle@@@1@@Z 00471340 f i hd3.obj
 0001:00070390       ??$?0PAUWndAndHandle@@@?$allocator@PAU_Node@?$_List_nod@PAUWndAndHandle@@V?$allocator@PAUWndAndHandle@@@std@@@std@@@std@@QAE@ABV?$allocator@PAUWndAndHandle@@@1@@Z 00471390 f i hd3.obj
 0001:000703c0       ??$?0PAUWndAndHandle@@@?$allocator@U_Node@?$_List_nod@PAUWndAndHandle@@V?$allocator@PAUWndAndHandle@@@std@@@std@@@std@@QAE@ABV?$allocator@PAUWndAndHandle@@@1@@Z 004713c0 f i hd3.obj
 0001:000703f0       ??1?$vector@PAUsGifUrl@@V?$allocator@PAUsGifUrl@@@std@@@std@@QAE@XZ 004713f0 f i hd3.obj
 0001:00070470       ?_Tidy@?$vector@PAUsGifUrl@@V?$allocator@PAUsGifUrl@@@std@@@std@@IAEXXZ 00471470 f i hd3.obj
 0001:00070520       ??1?$list@PAUWndAndHandle@@V?$allocator@PAUWndAndHandle@@@std@@@std@@QAE@XZ 00471520 f i hd3.obj
 0001:000705a0       ?_Tidy@?$list@PAUWndAndHandle@@V?$allocator@PAUWndAndHandle@@@std@@@std@@IAEXXZ 004715a0 f i hd3.obj
 0001:00070640       ?clear@?$list@PAUWndAndHandle@@V?$allocator@PAUWndAndHandle@@@std@@@std@@QAEXXZ 00471640 f i hd3.obj
 0001:00070720       ??0CHyperLink@@QAE@XZ      00471720 f   HyperLink.obj
 0001:000707a0       ??_ECHyperLink@@UAEPAXI@Z  004717a0 f i HyperLink.obj
 0001:000707a0       ??_GCHyperLink@@UAEPAXI@Z  004717a0 f i HyperLink.obj
 0001:00070800       ??1CHyperLink@@UAE@XZ      00471800 f   HyperLink.obj
 0001:00070840       ?Attach@CHyperLink@@QAEHPAUHWND__@@@Z 00471840 f   HyperLink.obj
 0001:000709e0       ?Detach@CHyperLink@@QAEPAUHWND__@@XZ 004719e0 f   HyperLink.obj
 0001:00070ac0       ?GetHwnd@CHyperLink@@QAEPAUHWND__@@XZ 00471ac0 f   HyperLink.obj
 0001:00070af0       ?SetLink@CHyperLink@@QAEHPB_W0H@Z 00471af0 f   HyperLink.obj
 0001:00070cb0       ?NewProc@CHyperLink@@CGJPAUHWND__@@IIJ@Z 00471cb0 f   HyperLink.obj
 0001:00071100       ?OnMouseMove@CHyperLink@@IAEXIJ@Z 00472100 f   HyperLink.obj
 0001:00071250       ?dbgPrintf@@YAXPB_WZZ      00472250 f   PictureEx.obj
 0001:000713c0       ?WindowProc@CPictureEx@@KGJPAUHWND__@@IIJ@Z 004723c0 f   PictureEx.obj
 0001:00071500       ??0CPictureEx@@QAE@XZ      00472500 f   PictureEx.obj
 0001:000716b0       ?Init@WndProcThunk@CPictureEx@@QAEXP6GJPAUHWND__@@IIJ@ZPAX@Z 004726b0 f i PictureEx.obj
 0001:00071740       ??_ECPictureEx@@UAEPAXI@Z  00472740 f i PictureEx.obj
 0001:00071740       ??_GCPictureEx@@UAEPAXI@Z  00472740 f i PictureEx.obj
 0001:000717a0       ?Attach@CPictureEx@@QAEHPAUHWND__@@@Z 004727a0 f   PictureEx.obj
 0001:00071830       ??1CPictureEx@@UAE@XZ      00472830 f   PictureEx.obj
 0001:000718f0       ?Load@CPictureEx@@QAEHPAXK@Z 004728f0 f   PictureEx.obj
 0001:00071f20       ?GetPackedValue@TGIFLSDescriptor@CPictureEx@@QAEHW4LSDPackedValues@2@@Z 00472f20 f i PictureEx.obj
 0001:00071fc0       ?Load@CPictureEx@@QAEHPAUHINSTANCE__@@PB_W1@Z 00472fc0 f   PictureEx.obj
 0001:000721e0       ?Invalidate@CPictureEx@@QAEHXZ 004731e0 f   PictureEx.obj
 0001:00072230       ?UnLoad@CPictureEx@@QAEXXZ 00473230 f   PictureEx.obj
 0001:00072590       ??1?$_Vector_iterator@UTFrame@CPictureEx@@V?$allocator@UTFrame@CPictureEx@@@std@@@std@@QAE@XZ 00473590 f i PictureEx.obj
 0001:000725d0       ??4?$_Vector_iterator@UTFrame@CPictureEx@@V?$allocator@UTFrame@CPictureEx@@@std@@@std@@QAEAAV01@ABV01@@Z 004735d0 f i PictureEx.obj
 0001:00072620       ??1?$_Vector_const_iterator@UTFrame@CPictureEx@@V?$allocator@UTFrame@CPictureEx@@@std@@@std@@QAE@XZ 00473620 f i PictureEx.obj
 0001:00072660       ??4?$_Vector_const_iterator@UTFrame@CPictureEx@@V?$allocator@UTFrame@CPictureEx@@@std@@@std@@QAEAAV01@ABV01@@Z 00473660 f i PictureEx.obj
 0001:000726c0       ??1?$_Ranit@UTFrame@CPictureEx@@HPBU12@ABU12@@std@@QAE@XZ 004736c0 f i PictureEx.obj
 0001:00072700       ??4?$_Ranit@UTFrame@CPictureEx@@HPBU12@ABU12@@std@@QAEAAU01@ABU01@@Z 00473700 f i PictureEx.obj
 0001:00072750       ??1?$_Iterator_with_base@Urandom_access_iterator_tag@std@@UTFrame@CPictureEx@@HPBU34@ABU34@V_Iterator_base@2@@std@@QAE@XZ 00473750 f i PictureEx.obj
 0001:00072790       ??4?$_Iterator_with_base@Urandom_access_iterator_tag@std@@UTFrame@CPictureEx@@HPBU34@ABU34@V_Iterator_base@2@@std@@QAEAAU01@ABU01@@Z 00473790 f i PictureEx.obj
 0001:000727e0       ?Draw@CPictureEx@@QAEHXZ   004737e0 f   PictureEx.obj
 0001:000729d0       ?GetSize@CPictureEx@@QBE?AUtagSIZE@@XZ 004739d0 f   PictureEx.obj
 0001:00072a10       ?Load@CPictureEx@@QAEHPB_W@Z 00473a10 f   PictureEx.obj
 0001:00072c40       ?ResetDataPointer@CPictureEx@@IAEXXZ 00473c40 f   PictureEx.obj
 0001:00072c80       ?SkipNextGraphicBlock@CPictureEx@@IAEHXZ 00473c80 f   PictureEx.obj
 0001:00072db0       ?GetSubBlocksLen@CPictureEx@@IBEII@Z 00473db0 f   PictureEx.obj
 0001:00072e30       ?GetNextBlock@CPictureEx@@IBE?AW4GIFBlockTypes@1@XZ 00473e30 f   PictureEx.obj
 0001:00073020       ?SkipNextBlock@CPictureEx@@IAEHXZ 00474020 f   PictureEx.obj
 0001:000730a0       ?GetNextBlockLen@CPictureEx@@IBEHXZ 004740a0 f   PictureEx.obj
 0001:00073230       ?GetPackedValue@TGIFImageDescriptor@CPictureEx@@QAEHW4IDPackedValues@2@@Z 00474230 f i PictureEx.obj
 0001:000732d0       ?_ThreadAnimation@CPictureEx@@KGIPAX@Z 004742d0 f   PictureEx.obj
 0001:00073380       ?ThreadAnimation@CPictureEx@@IAEXXZ 00474380 f   PictureEx.obj
 0001:00073c90       ?Stop@CPictureEx@@QAEXXZ   00474c90 f   PictureEx.obj
 0001:00073d70       ?GetNextGraphicBlock@CPictureEx@@IAEPAXPAI0PAUtagSIZE@@10@Z 00474d70 f   PictureEx.obj
 0001:00074010       ?GetPackedValue@TGIFControlExt@CPictureEx@@QAEHW4ControlExtValues@2@@Z 00475010 f i PictureEx.obj
 0001:000740a0       ?IsGIF@CPictureEx@@QBEHXZ  004750a0 f   PictureEx.obj
 0001:000740d0       ?IsAnimatedGIF@CPictureEx@@QBEHXZ 004750d0 f   PictureEx.obj
 0001:00074140       ?IsPlaying@CPictureEx@@QBEHXZ 00475140 f   PictureEx.obj
 0001:00074170       ?GetFrameCount@CPictureEx@@QBEHXZ 00475170 f   PictureEx.obj
 0001:000741d0       ?GetBkColor@CPictureEx@@QBEKXZ 004751d0 f   PictureEx.obj
 0001:00074200       ?OnPaint@CPictureEx@@IAEXXZ 00475200 f   PictureEx.obj
 0001:00074380       ?PrepareDC@CPictureEx@@IAEHHH@Z 00475380 f   PictureEx.obj
 0001:00074570       ?OnDestroy@CPictureEx@@IAEXXZ 00475570 f   PictureEx.obj
 0001:000745b0       ?SetBkColor@CPictureEx@@QAEXK@Z 004755b0 f   PictureEx.obj
 0001:000746a0       ?SetPaintRect@CPictureEx@@QAEHPBUtagRECT@@@Z 004756a0 f   PictureEx.obj
 0001:00074700       ?GetPaintRect@CPictureEx@@QAEHPAUtagRECT@@@Z 00475700 f   PictureEx.obj
 0001:00074760       ??0?$vector@UTFrame@CPictureEx@@V?$allocator@UTFrame@CPictureEx@@@std@@@std@@QAE@XZ 00475760 f i PictureEx.obj
 0001:00074800       ??1?$vector@UTFrame@CPictureEx@@V?$allocator@UTFrame@CPictureEx@@@std@@@std@@QAE@XZ 00475800 f i PictureEx.obj
 0001:00074880       ?begin@?$vector@UTFrame@CPictureEx@@V?$allocator@UTFrame@CPictureEx@@@std@@@std@@QAE?AV?$_Vector_iterator@UTFrame@CPictureEx@@V?$allocator@UTFrame@CPictureEx@@@std@@@2@XZ 00475880 f i PictureEx.obj
 0001:000748f0       ?end@?$vector@UTFrame@CPictureEx@@V?$allocator@UTFrame@CPictureEx@@@std@@@std@@QAE?AV?$_Vector_iterator@UTFrame@CPictureEx@@V?$allocator@UTFrame@CPictureEx@@@std@@@2@XZ 004758f0 f i PictureEx.obj
 0001:00074960       ?size@?$vector@UTFrame@CPictureEx@@V?$allocator@UTFrame@CPictureEx@@@std@@@std@@QBEIXZ 00475960 f i PictureEx.obj
 0001:000749a0       ?empty@?$vector@UTFrame@CPictureEx@@V?$allocator@UTFrame@CPictureEx@@@std@@@std@@QBE_NXZ 004759a0 f i PictureEx.obj
 0001:000749f0       ??A?$vector@UTFrame@CPictureEx@@V?$allocator@UTFrame@CPictureEx@@@std@@@std@@QAEAAUTFrame@CPictureEx@@I@Z 004759f0 f i PictureEx.obj
 0001:00074b30       ?push_back@?$vector@UTFrame@CPictureEx@@V?$allocator@UTFrame@CPictureEx@@@std@@@std@@QAEXABUTFrame@CPictureEx@@@Z 00475b30 f i PictureEx.obj
 0001:00074c60       ?clear@?$vector@UTFrame@CPictureEx@@V?$allocator@UTFrame@CPictureEx@@@std@@@std@@QAEXXZ 00475c60 f i PictureEx.obj
 0001:00074da0       ??0?$_Vector_iterator@UTFrame@CPictureEx@@V?$allocator@UTFrame@CPictureEx@@@std@@@std@@QAE@XZ 00475da0 f i PictureEx.obj
 0001:00074df0       ??D?$_Vector_iterator@UTFrame@CPictureEx@@V?$allocator@UTFrame@CPictureEx@@@std@@@std@@QBEAAUTFrame@CPictureEx@@XZ 00475df0 f i PictureEx.obj
 0001:00074e30       ??E?$_Vector_iterator@UTFrame@CPictureEx@@V?$allocator@UTFrame@CPictureEx@@@std@@@std@@QAE?AV01@H@Z 00475e30 f i PictureEx.obj
 0001:00074f10       ??M?$_Vector_const_iterator@UTFrame@CPictureEx@@V?$allocator@UTFrame@CPictureEx@@@std@@@std@@QBE_NABV01@@Z 00475f10 f i PictureEx.obj
 0001:00074f70       ??1?$_Vector_val@UTFrame@CPictureEx@@V?$allocator@UTFrame@CPictureEx@@@std@@@std@@QAE@XZ 00475f70 f i PictureEx.obj
 0001:00074fb0       ??0?$_Vector_const_iterator@UTFrame@CPictureEx@@V?$allocator@UTFrame@CPictureEx@@@std@@@std@@QAE@ABV01@@Z 00475fb0 f i PictureEx.obj
 0001:00075010       ??0?$_Vector_iterator@UTFrame@CPictureEx@@V?$allocator@UTFrame@CPictureEx@@@std@@@std@@QAE@ABV01@@Z 00476010 f i PictureEx.obj
 0001:00075060       ??0?$_Ranit@UTFrame@CPictureEx@@HPBU12@ABU12@@std@@QAE@ABU01@@Z 00476060 f i PictureEx.obj
 0001:000750b0       ??0?$_Iterator_with_base@Urandom_access_iterator_tag@std@@UTFrame@CPictureEx@@HPBU34@ABU34@V_Iterator_base@2@@std@@QAE@ABU01@@Z 004760b0 f i PictureEx.obj
 0001:00075100       ?capacity@?$vector@UTFrame@CPictureEx@@V?$allocator@UTFrame@CPictureEx@@@std@@@std@@QBEIXZ 00476100 f i PictureEx.obj
 0001:00075160       ?insert@?$vector@UTFrame@CPictureEx@@V?$allocator@UTFrame@CPictureEx@@@std@@@std@@QAE?AV?$_Vector_iterator@UTFrame@CPictureEx@@V?$allocator@UTFrame@CPictureEx@@@std@@@2@V?$_Vector_const_iterator@UTFrame@CPictureEx@@V?$allocator@UTFrame@CPictureEx@@@std@@@2@ABUTFrame@CPictureEx@@@Z 00476160 f i PictureEx.obj
 0001:000752f0       ?erase@?$vector@UTFrame@CPictureEx@@V?$allocator@UTFrame@CPictureEx@@@std@@@std@@QAE?AV?$_Vector_iterator@UTFrame@CPictureEx@@V?$allocator@UTFrame@CPictureEx@@@std@@@2@V?$_Vector_const_iterator@UTFrame@CPictureEx@@V?$allocator@UTFrame@CPictureEx@@@std@@@2@0@Z 004762f0 f i PictureEx.obj
 0001:00075510       ?_Buy@?$vector@UTFrame@CPictureEx@@V?$allocator@UTFrame@CPictureEx@@@std@@@std@@IAE_NI@Z 00476510 f i PictureEx.obj
 0001:000755c0       ?_Tidy@?$vector@UTFrame@CPictureEx@@V?$allocator@UTFrame@CPictureEx@@@std@@@std@@IAEXXZ 004765c0 f i PictureEx.obj
 0001:00075670       ?_Ufill@?$vector@UTFrame@CPictureEx@@V?$allocator@UTFrame@CPictureEx@@@std@@@std@@IAEPAUTFrame@CPictureEx@@PAU34@IABU34@@Z 00476670 f i PictureEx.obj
 0001:000756d0       ?_Orphan_range@?$vector@UTFrame@CPictureEx@@V?$allocator@UTFrame@CPictureEx@@@std@@@std@@IBEXPAUTFrame@CPictureEx@@0@Z 004766d0 f i PictureEx.obj
 0001:000757b0       ??0?$_Vector_val@UTFrame@CPictureEx@@V?$allocator@UTFrame@CPictureEx@@@std@@@std@@IAE@V?$allocator@UTFrame@CPictureEx@@@1@@Z 004767b0 f i PictureEx.obj
 0001:00075820       ??1?$_Container_base_aux_alloc_empty@V?$allocator@UTFrame@CPictureEx@@@std@@@std@@IAE@XZ 00476820 f i PictureEx.obj
 0001:00075870       ??0?$allocator@UTFrame@CPictureEx@@@std@@QAE@XZ 00476870 f i PictureEx.obj
 0001:000758a0       ??0?$_Vector_iterator@UTFrame@CPictureEx@@V?$allocator@UTFrame@CPictureEx@@@std@@@std@@QAE@PAUTFrame@CPictureEx@@PBV_Container_base_secure@1@@Z 004768a0 f i PictureEx.obj
 0001:000758f0       ??E?$_Vector_iterator@UTFrame@CPictureEx@@V?$allocator@UTFrame@CPictureEx@@@std@@@std@@QAEAAV01@XZ 004768f0 f i PictureEx.obj
 0001:00075940       ??0?$_Vector_const_iterator@UTFrame@CPictureEx@@V?$allocator@UTFrame@CPictureEx@@@std@@@std@@QAE@XZ 00476940 f i PictureEx.obj
 0001:00075990       ??D?$_Vector_const_iterator@UTFrame@CPictureEx@@V?$allocator@UTFrame@CPictureEx@@@std@@@std@@QBEABUTFrame@CPictureEx@@XZ 00476990 f i PictureEx.obj
 0001:00075a70       ?_Compat@?$_Vector_const_iterator@UTFrame@CPictureEx@@V?$allocator@UTFrame@CPictureEx@@@std@@@std@@QBEXABV12@@Z 00476a70 f i PictureEx.obj
 0001:00075b40       ??0?$_Ranit@UTFrame@CPictureEx@@HPBU12@ABU12@@std@@QAE@XZ 00476b40 f i PictureEx.obj
 0001:00075b90       ??0?$_Iterator_with_base@Urandom_access_iterator_tag@std@@UTFrame@CPictureEx@@HPBU34@ABU34@V_Iterator_base@2@@std@@QAE@XZ 00476b90 f i PictureEx.obj
 0001:00075be0       ?_Make_iter@?$vector@UTFrame@CPictureEx@@V?$allocator@UTFrame@CPictureEx@@@std@@@std@@QBE?AV?$_Vector_iterator@UTFrame@CPictureEx@@V?$allocator@UTFrame@CPictureEx@@@std@@@2@V?$_Vector_const_iterator@UTFrame@CPictureEx@@V?$allocator@UTFrame@CPictureEx@@@std@@@2@@Z 00476be0 f i PictureEx.obj
 0001:00075c90       ?max_size@?$vector@UTFrame@CPictureEx@@V?$allocator@UTFrame@CPictureEx@@@std@@@std@@QBEIXZ 00476c90 f i PictureEx.obj
 0001:00075ce0       ?_Destroy@?$vector@UTFrame@CPictureEx@@V?$allocator@UTFrame@CPictureEx@@@std@@@std@@IAEXPAUTFrame@CPictureEx@@0@Z 00476ce0 f i PictureEx.obj
 0001:00075d30       ?_Insert_n@?$vector@UTFrame@CPictureEx@@V?$allocator@UTFrame@CPictureEx@@@std@@@std@@IAEXV?$_Vector_const_iterator@UTFrame@CPictureEx@@V?$allocator@UTFrame@CPictureEx@@@std@@@2@IABUTFrame@CPictureEx@@@Z 00476d30 f i PictureEx.obj
 0001:00076200       ?_Xlen@?$vector@UTFrame@CPictureEx@@V?$allocator@UTFrame@CPictureEx@@@std@@@std@@KAXXZ 00477200 f i PictureEx.obj
 0001:000762c0       ??0?$_Container_base_aux_alloc_empty@V?$allocator@UTFrame@CPictureEx@@@std@@@std@@IAE@V?$allocator@UTFrame@CPictureEx@@@1@@Z 004772c0 f i PictureEx.obj
 0001:00076310       ??0?$allocator@UTFrame@CPictureEx@@@std@@QAE@ABV01@@Z 00477310 f i PictureEx.obj
 0001:00076340       ?deallocate@?$allocator@UTFrame@CPictureEx@@@std@@QAEXPAUTFrame@CPictureEx@@I@Z 00477340 f i PictureEx.obj
 0001:00076390       ?allocate@?$allocator@UTFrame@CPictureEx@@@std@@QAEPAUTFrame@CPictureEx@@I@Z 00477390 f i PictureEx.obj
 0001:000763e0       ??H?$_Vector_iterator@UTFrame@CPictureEx@@V?$allocator@UTFrame@CPictureEx@@@std@@@std@@QBE?AV01@H@Z 004773e0 f i PictureEx.obj
 0001:000764c0       ??0?$_Vector_const_iterator@UTFrame@CPictureEx@@V?$allocator@UTFrame@CPictureEx@@@std@@@std@@QAE@PAUTFrame@CPictureEx@@PBV_Container_base_secure@1@@Z 004774c0 f i PictureEx.obj
 0001:000765d0       ??E?$_Vector_const_iterator@UTFrame@CPictureEx@@V?$allocator@UTFrame@CPictureEx@@@std@@@std@@QAEAAV01@XZ 004775d0 f i PictureEx.obj
 0001:00076720       ??G?$_Vector_const_iterator@UTFrame@CPictureEx@@V?$allocator@UTFrame@CPictureEx@@@std@@@std@@QBEHABV01@@Z 00477720 f i PictureEx.obj
 0001:00076780       ??9?$_Vector_const_iterator@UTFrame@CPictureEx@@V?$allocator@UTFrame@CPictureEx@@@std@@@std@@QBE_NABV01@@Z 00477780 f i PictureEx.obj
 0001:000767d0       ?max_size@?$allocator@UTFrame@CPictureEx@@@std@@QBEIXZ 004777d0 f i PictureEx.obj
 0001:00076830       ??Y?$_Vector_iterator@UTFrame@CPictureEx@@V?$allocator@UTFrame@CPictureEx@@@std@@@std@@QAEAAV01@H@Z 00477830 f i PictureEx.obj
 0001:00076880       ??8?$_Vector_const_iterator@UTFrame@CPictureEx@@V?$allocator@UTFrame@CPictureEx@@@std@@@std@@QBE_NABV01@@Z 00477880 f i PictureEx.obj
 0001:000768e0       ??Y?$_Vector_const_iterator@UTFrame@CPictureEx@@V?$allocator@UTFrame@CPictureEx@@@std@@@std@@QAEAAV01@H@Z 004778e0 f i PictureEx.obj
 0001:00076a30       ??$unchecked_copy@PAUTFrame@CPictureEx@@PAU12@@stdext@@YAPAUTFrame@CPictureEx@@PAU12@00@Z 00477a30 f i PictureEx.obj
 0001:00076ae0       ??$unchecked_uninitialized_fill_n@PAUTFrame@CPictureEx@@IU12@V?$allocator@UTFrame@CPictureEx@@@std@@@stdext@@YAXPAUTFrame@CPictureEx@@IABU12@AAV?$allocator@UTFrame@CPictureEx@@@std@@@Z 00477ae0 f i PictureEx.obj
 0001:00076b60       ??$_Destroy_range@V?$allocator@UTFrame@CPictureEx@@@std@@@std@@YAXPAUTFrame@CPictureEx@@0AAV?$allocator@UTFrame@CPictureEx@@@0@@Z 00477b60 f i PictureEx.obj
 0001:00076bd0       ??$_Umove@PAUTFrame@CPictureEx@@@?$vector@UTFrame@CPictureEx@@V?$allocator@UTFrame@CPictureEx@@@std@@@std@@IAEPAUTFrame@CPictureEx@@PAU23@00@Z 00477bd0 f i PictureEx.obj
 0001:00076c30       ??$fill@PAUTFrame@CPictureEx@@U12@@std@@YAXPAUTFrame@CPictureEx@@0ABU12@@Z 00477c30 f i PictureEx.obj
 0001:00076c90       ??$_Unchecked_move_backward@PAUTFrame@CPictureEx@@PAU12@@stdext@@YAPAUTFrame@CPictureEx@@PAU12@00@Z 00477c90 f i PictureEx.obj
 0001:00076d30       ??$_Allocate@UTFrame@CPictureEx@@@std@@YAPAUTFrame@CPictureEx@@IPAU12@@Z 00477d30 f i PictureEx.obj
 0001:00076db0       ??$_Checked_base@PAUTFrame@CPictureEx@@@std@@YAPAUTFrame@CPictureEx@@AAPAU12@@Z 00477db0 f i PictureEx.obj
 0001:00076e30       ??$_Iter_random@PAUTFrame@CPictureEx@@PAU12@@std@@YA?AUrandom_access_iterator_tag@0@ABQAUTFrame@CPictureEx@@0@Z 00477e30 f i PictureEx.obj
 0001:00076e90       ??$_Ptr_cat@PAUTFrame@CPictureEx@@PAU12@@std@@YA?AU_Nonscalar_ptr_iterator_tag@0@AAPAUTFrame@CPictureEx@@0@Z 00477e90 f i PictureEx.obj
 0001:00076ef0       ??$_Copy_opt@PAUTFrame@CPictureEx@@PAU12@@std@@YAPAUTFrame@CPictureEx@@PAU12@00Urandom_access_iterator_tag@0@U_Nonscalar_ptr_iterator_tag@0@U_Range_checked_iterator_tag@0@@Z 00477ef0 f i PictureEx.obj
 0001:00076f90       ??$_Uninit_fill_n@PAUTFrame@CPictureEx@@IU12@V?$allocator@UTFrame@CPictureEx@@@std@@@std@@YAXPAUTFrame@CPictureEx@@IABU12@AAV?$allocator@UTFrame@CPictureEx@@@0@U_Nonscalar_ptr_iterator_tag@0@U_Range_checked_iterator_tag@0@@Z 00477f90 f i PictureEx.obj
 0001:00077070       ??$_Destroy_range@V?$allocator@UTFrame@CPictureEx@@@std@@@std@@YAXPAUTFrame@CPictureEx@@0AAV?$allocator@UTFrame@CPictureEx@@@0@U_Nonscalar_ptr_iterator_tag@0@@Z 00478070 f i PictureEx.obj
 0001:000770d0       ??$_Unchecked_uninitialized_move@PAUTFrame@CPictureEx@@PAU12@V?$allocator@UTFrame@CPictureEx@@@std@@@stdext@@YAPAUTFrame@CPictureEx@@PAU12@00AAV?$allocator@UTFrame@CPictureEx@@@std@@@Z 004780d0 f i PictureEx.obj
 0001:00077160       ??$_Fill@PAUTFrame@CPictureEx@@U12@@std@@YAXPAUTFrame@CPictureEx@@0ABU12@@Z 00478160 f i PictureEx.obj
 0001:000771d0       ??$_Move_cat@PAUTFrame@CPictureEx@@@std@@YA?AU_Undefined_move_tag@0@ABQAUTFrame@CPictureEx@@@Z 004781d0 f i PictureEx.obj
 0001:00077230       ??$_Move_backward_opt@PAUTFrame@CPictureEx@@PAU12@Urandom_access_iterator_tag@std@@U_Undefined_move_tag@4@@std@@YAPAUTFrame@CPictureEx@@PAU12@00Urandom_access_iterator_tag@0@U_Undefined_move_tag@0@U_Range_checked_iterator_tag@0@@Z 00478230 f i PictureEx.obj
 0001:000772b0       ?construct@?$allocator@UTFrame@CPictureEx@@@std@@QAEXPAUTFrame@CPictureEx@@ABU34@@Z 004782b0 f i PictureEx.obj
 0001:00077300       ?destroy@?$allocator@UTFrame@CPictureEx@@@std@@QAEXPAUTFrame@CPictureEx@@@Z 00478300 f i PictureEx.obj
 0001:00077350       ??$_Checked_base@PAUTFrame@CPictureEx@@@std@@YAPAUTFrame@CPictureEx@@AAPAU12@U_Unchanged_checked_iterator_base_type_tag@0@@Z 00478350 f i PictureEx.obj
 0001:00077380       ??$_Copy_opt@PAUTFrame@CPictureEx@@PAU12@Uforward_iterator_tag@std@@@std@@YAPAUTFrame@CPictureEx@@PAU12@00Uforward_iterator_tag@0@U_Nonscalar_ptr_iterator_tag@0@U_Range_checked_iterator_tag@0@@Z 00478380 f i PictureEx.obj
 0001:00077400       ??$_Uninit_move@PAUTFrame@CPictureEx@@PAU12@V?$allocator@UTFrame@CPictureEx@@@std@@U_Undefined_move_tag@4@@std@@YAPAUTFrame@CPictureEx@@PAU12@00AAV?$allocator@UTFrame@CPictureEx@@@0@U_Undefined_move_tag@0@U_Range_checked_iterator_tag@0@@Z 00478400 f i PictureEx.obj
 0001:00077450       ??$_Debug_range@PAUTFrame@CPictureEx@@@std@@YAXPAUTFrame@CPictureEx@@0PB_WI@Z 00478450 f i PictureEx.obj
 0001:000774c0       ??$_Copy_backward_opt@PAUTFrame@CPictureEx@@PAU12@@std@@YAPAUTFrame@CPictureEx@@PAU12@00Urandom_access_iterator_tag@0@U_Nonscalar_ptr_iterator_tag@0@U_Range_checked_iterator_tag@0@@Z 004784c0 f i PictureEx.obj
 0001:00077560       ??$_Construct@UTFrame@CPictureEx@@U12@@std@@YAXPAUTFrame@CPictureEx@@ABU12@@Z 00478560 f i PictureEx.obj
 0001:000775e0       ??$_Destroy@UTFrame@CPictureEx@@@std@@YAXPAUTFrame@CPictureEx@@@Z 004785e0 f i PictureEx.obj
 0001:00077610       ??$unchecked_uninitialized_copy@PAUTFrame@CPictureEx@@PAU12@V?$allocator@UTFrame@CPictureEx@@@std@@@stdext@@YAPAUTFrame@CPictureEx@@PAU12@00AAV?$allocator@UTFrame@CPictureEx@@@std@@@Z 00478610 f i PictureEx.obj
 0001:000776a0       ??$_Iter_cat@PAUTFrame@CPictureEx@@@std@@YA?AUrandom_access_iterator_tag@0@ABQAUTFrame@CPictureEx@@@Z 004786a0 f i PictureEx.obj
 0001:00077700       ??$_Debug_range2@PAUTFrame@CPictureEx@@@std@@YAXPAUTFrame@CPictureEx@@0PB_WIUrandom_access_iterator_tag@0@@Z 00478700 f i PictureEx.obj
 0001:00077790       ??$_Copy_backward_opt@PAUTFrame@CPictureEx@@PAU12@Uforward_iterator_tag@std@@@std@@YAPAUTFrame@CPictureEx@@PAU12@00Uforward_iterator_tag@0@U_Nonscalar_ptr_iterator_tag@0@U_Range_checked_iterator_tag@0@@Z 00478790 f i PictureEx.obj
 0001:00077810       ??$_Uninit_copy@PAUTFrame@CPictureEx@@PAU12@V?$allocator@UTFrame@CPictureEx@@@std@@@std@@YAPAUTFrame@CPictureEx@@PAU12@00AAV?$allocator@UTFrame@CPictureEx@@@0@U_Nonscalar_ptr_iterator_tag@0@U_Range_checked_iterator_tag@0@@Z 00478810 f i PictureEx.obj
 0001:00077920       ??$_Debug_pointer@UTFrame@CPictureEx@@@std@@YAXPAUTFrame@CPictureEx@@PB_WI@Z 00478920 f i PictureEx.obj
 0001:00077980       ??0UseProxyDlg@@QAE@XZ     00478980 f   UseProxyDlg.obj
 0001:000779c0       ??_GUseProxyDlg@@UAEPAXI@Z 004789c0 f i UseProxyDlg.obj
 0001:000779c0       ??_EUseProxyDlg@@UAEPAXI@Z 004789c0 f i UseProxyDlg.obj
 0001:00077a20       ??1UseProxyDlg@@UAE@XZ     00478a20 f   UseProxyDlg.obj
 0001:00077a60       ?WndProc@UseProxyDlg@@SGJPAUHWND__@@IIJ@Z 00478a60 f   UseProxyDlg.obj
 0001:00077e10       ?AdvDlgProc@UseProxyDlg@@SGJPAUHWND__@@IIJ@Z 00478e10 f   UseProxyDlg.obj
 0001:00079640       ?RestoreIP@UseProxyDlg@@SA_NXZ 0047a640 f   UseProxyDlg.obj
 0001:00079680       ?GenDlgProc@UseProxyDlg@@SGJPAUHWND__@@IIJ@Z 0047a680 f   UseProxyDlg.obj
 0001:0007a6c0       ?TestProxy@UseProxyDlg@@SA_NUProxyInfo@@@Z 0047b6c0 f   UseProxyDlg.obj
 0001:0007acc0       ?SetProxyList@UseProxyDlg@@SGKPAX@Z 0047bcc0 f   UseProxyDlg.obj
 0001:0007b530       ?TestHttpProxy@UseProxyDlg@@SGKPAX@Z 0047c530 f   UseProxyDlg.obj
 0001:0007b780       ?TestSockProxy@UseProxyDlg@@SGKPAX@Z 0047c780 f   UseProxyDlg.obj
 0001:0007bb40       ?DownLoadFile@UseProxyDlg@@SGKPAX@Z 0047cb40 f   UseProxyDlg.obj
 0001:0007c0e0       ?GetCurrentDir@UseProxyDlg@@SAHPA_WH@Z 0047d0e0 f   UseProxyDlg.obj
 0001:0007c230       ?sockconnect@UseProxyDlg@@SAIPBD00@Z 0047d230 f   UseProxyDlg.obj
 0001:0007c3d0       ?TCPconnect@UseProxyDlg@@SAIPBD0@Z 0047d3d0 f   UseProxyDlg.obj
 0001:0007c420       ?DownloadAndQueryFile@UseProxyDlg@@SGKPAX@Z 0047d420 f   UseProxyDlg.obj
 0001:0007d2a0       ?QueryFile@UseProxyDlg@@SAHPB_W@Z 0047e2a0 f   UseProxyDlg.obj
 0001:0007dd10       ?LoadFile@UseProxyDlg@@SAPA_WPA_W@Z 0047ed10 f   UseProxyDlg.obj
 0001:0007dea0       ?FreeFile@UseProxyDlg@@SAHXZ 0047eea0 f   UseProxyDlg.obj
 0001:0007df50       ?OnInitDlg@UseProxyDlg@@SAXPAUHINSTANCE__@@PAUHWND__@@@Z 0047ef50 f   UseProxyDlg.obj
 0001:0007e110       ?OnInitAdvDlg@UseProxyDlg@@SAXPAUHINSTANCE__@@PAUHWND__@@@Z 0047f110 f   UseProxyDlg.obj
 0001:0007e9d0       ?SetListColumn@UseProxyDlg@@SAXXZ 0047f9d0 f   UseProxyDlg.obj
 0001:0007f0c0       ?SetListContent@UseProxyDlg@@SAXPAUHWND__@@@Z 004800c0 f   UseProxyDlg.obj
 0001:0007f410       ?ClearStack@UseProxyDlg@@SAXXZ 00480410 f   UseProxyDlg.obj
 0001:0007f490       ?DeletePROXYCN@UseProxyDlg@@SAXPA_W@Z 00480490 f   UseProxyDlg.obj
 0001:0007f640       ?SetState@UseProxyDlg@@SAXPAUHWND__@@PA_W@Z 00480640 f   UseProxyDlg.obj
 0001:0007f6d0       ?AddOneProxyToList@UseProxyDlg@@SAXPAUProxyInfo@@HPAUHWND__@@@Z 004806d0 f   UseProxyDlg.obj
 0001:0007f9d0       ?RestoreIPProc@UseProxyDlg@@SGIPAX@Z 004809d0 f   UseProxyDlg.obj
 0001:0007fa50       ?restore@UseProxyDlg@@SA_NH@Z 00480a50 f   UseProxyDlg.obj
 0001:0007ff80       ?UseProxy@UseProxyDlg@@SA_NPAD00@Z 00480f80 f   UseProxyDlg.obj
 0001:00080770       ?StopSearch@UseProxyDlg@@SAXXZ 00481770 f   UseProxyDlg.obj
 0001:00080b30       ?GetSystemProxy@UseProxyDlg@@SA_NPAUHWND__@@@Z 00481b30 f   UseProxyDlg.obj
 0001:00080f70       ?create@UseProxyDlg@@QAEHPAUHWND__@@PAUHINSTANCE__@@@Z 00481f70 f   UseProxyDlg.obj
 0001:00080fe0       ??0CWebDB@@QAE@XZ          00481fe0 f   WebDB.obj
 0001:00081060       ??_ECWebDB@@UAEPAXI@Z      00482060 f i WebDB.obj
 0001:00081060       ??_GCWebDB@@UAEPAXI@Z      00482060 f i WebDB.obj
 0001:000810c0       ??0CWebDB@@QAE@PAD@Z       004820c0 f   WebDB.obj
 0001:00081160       ?Init@CWebDB@@QAEHXZ       00482160 f   WebDB.obj
 0001:00081310       ??1CWebDB@@UAE@XZ          00482310 f   WebDB.obj
 0001:000813a0       ?ReadIconTitleItem@CWebDB@@QAEHPAUStatusTxtLinkItem@@@Z 004823a0 f   WebDB.obj
 0001:000816c0       ?ReadWndAdsItem@CWebDB@@QAEHPAUStatusTxtLinkItem@@@Z 004826c0 f   WebDB.obj
 0001:000819e0       ?GetStatusTextLink@CWebDB@@QAEHHPA_W0@Z 004829e0 f   WebDB.obj
 0001:00081b40       ?GetWndTextLink@CWebDB@@QAEHHPA_W0@Z 00482b40 f   WebDB.obj
 0001:00081ca0       ?GetCount@CWebDB@@QAEHXZ   00482ca0 f   WebDB.obj
 0001:00081e60       ??0CWINButton@@QAE@XZ      00482e60 f   WINButton.obj
 0001:00082130       ??_ECWINButton@@UAEPAXI@Z  00483130 f i WINButton.obj
 0001:00082130       ??_GCWINButton@@UAEPAXI@Z  00483130 f i WINButton.obj
 0001:00082190       ??1CWINButton@@UAE@XZ      00483190 f   WINButton.obj
 0001:00082350       ?GetItemhWnd@CWINButton@@QAEHPAUHWND__@@@Z 00483350 f   WINButton.obj
 0001:000825c0       ?WINProc@CWINButton@@AAGJIIJ@Z 004835c0 f   WINButton.obj
 0001:00082d80       ?CreateThunk@CWINButton@@AAEP6GJPAUHWND__@@IIJ@ZXZ 00483d80 f   WINButton.obj
 0001:00082e40       ?GetThunk@CWINButton@@AAEP6GJPAUHWND__@@IIJ@ZXZ 00483e40 f   WINButton.obj
 0001:00082e70       ?stdProc@CWINButton@@CGJPAUHWND__@@IIJ@Z 00483e70 f   WINButton.obj
 0001:00082ee0       ?SetText@CWINButton@@QAEHPA_WK@Z 00483ee0 f   WINButton.obj
 0001:00082f60       ?SetBackPic@CWINButton@@QAEHPAUHBITMAP__@@H@Z 00483f60 f   WINButton.obj
 0001:00083100       ?SetHoverPic@CWINButton@@QAEHPAUHBITMAP__@@@Z 00484100 f   WINButton.obj
 0001:00083150       ?SetPressPic@CWINButton@@QAEHPAUHBITMAP__@@@Z 00484150 f   WINButton.obj
 0001:000831a0       ?SetDisablePic@CWINButton@@QAEHPAUHBITMAP__@@@Z 004841a0 f   WINButton.obj
 0001:000831f0       ?OnPaint@CWINButton@@QAEJPAUHDC__@@@Z 004841f0 f   WINButton.obj
 0001:000837f0       ?SetText@CWINButton@@QAEHPA_W@Z 004847f0 f   WINButton.obj
 0001:00083870       ?SetupRegion@CWINButton@@QAEHK@Z 00484870 f   WINButton.obj
 0001:00083b50       ?SetText@CWINButton@@QAEHPA_WPAUHFONT__@@@Z 00484b50 f   WINButton.obj
 0001:00083bd0       ?DrawDefault@CWINButton@@AAEHPAUHDC__@@@Z 00484bd0 f   WINButton.obj
 0001:00084010       ?DrawFlat@CWINButton@@AAEHPAUHDC__@@PAUtagRECT@@@Z 00485010 f   WINButton.obj
 0001:000843c0       ?DrawInsideBorder@CWINButton@@AAEHPAUHDC__@@PAUtagRECT@@@Z 004853c0 f   WINButton.obj
 0001:00084690       ?SetIcon@CWINButton@@QAEHPAUHICON__@@@Z 00485690 f   WINButton.obj
 0001:000846e0       ?SetDrag@CWINButton@@QAEHH@Z 004856e0 f   WINButton.obj
 0001:00084720       ?Restore@CWINButton@@QAEHXZ 00485720 f   WINButton.obj
 0001:00084800       ?SetToolTip@CWINButton@@QAEHPA_W@Z 00485800 f   WINButton.obj
 0001:000849a0       ?ClearToolTip@CWINButton@@QAEHXZ 004859a0 f   WINButton.obj
 0001:00084a58       _RestoreAllWindows         00485a58 f   hooklib:HOOKLIB.dll
 0001:00084a5e       _ShowProcess               00485a5e f   hooklib:HOOKLIB.dll
 0001:00084a64       _MyHideWindows             00485a64 f   hooklib:HOOKLIB.dll
 0001:00084a6a       _ReserveWnds               00485a6a f   hooklib:HOOKLIB.dll
 0001:00084a70       _HideProcess               00485a70 f   hooklib:HOOKLIB.dll
 0001:00084a76       _SetMouseHook              00485a76 f   hooklib:HOOKLIB.dll
 0001:00084a7c       _SetTrayHook               00485a7c f   hooklib:HOOKLIB.dll
 0001:00084a82       _GetHidedProcessName       00485a82 f   hooklib:HOOKLIB.dll
 0001:00084a88       _SetParameter              00485a88 f   hooklib:HOOKLIB.dll
 0001:00084a8e       _RestoreVolume             00485a8e f   hooklib:HOOKLIB.dll
 0001:00084a94       _ReadTrayIcon_dll          00485a94 f   hooklib:HOOKLIB.dll
 0001:00084a9a       _GetHidedProcessByIdx      00485a9a f   hooklib:HOOKLIB.dll
 0001:00084aa0       _GetHidedProcessCount      00485aa0 f   hooklib:HOOKLIB.dll
 0001:00084aa6       _InitCommonControlsEx@4    00485aa6 f   comctl32:COMCTL32.dll
 0001:00084aac       _ImageList_Create@20       00485aac f   comctl32:COMCTL32.dll
 0001:00084ab2       _ImageList_Remove@8        00485ab2 f   comctl32:COMCTL32.dll
 0001:00084ab8       _ImageList_ReplaceIcon@12  00485ab8 f   comctl32:COMCTL32.dll
 0001:00084abe       _PropertySheetW@4          00485abe f   comctl32:COMCTL32.dll
 0001:00084ac4       _CreatePropertySheetPageW@4 00485ac4 f   comctl32:COMCTL32.dll
 0001:00084aca       _InitCommonControls@0      00485aca f   comctl32:COMCTL32.dll
 0001:00084ad0       _ImageList_Add@12          00485ad0 f   comctl32:COMCTL32.dll
 0001:00084ad6       _ImageList_Destroy@4       00485ad6 f   comctl32:COMCTL32.dll
 0001:00084adc       _SHDeleteKeyW@8            00485adc f   shlwapi:SHLWAPI.dll
 0001:00084ae2       _PathRemoveFileSpecA@4     00485ae2 f   shlwapi:SHLWAPI.dll
 0001:00084ae8       _PathRemoveFileSpecW@4     00485ae8 f   shlwapi:SHLWAPI.dll
 0001:00084aee       _PathFileExistsW@4         00485aee f   shlwapi:SHLWAPI.dll
 0001:00084af4       _closesocket@4             00485af4 f   ws2_32:WS2_32.dll
 0001:00084afa       _shutdown@8                00485afa f   ws2_32:WS2_32.dll
 0001:00084b00       _WSAGetLastError@0         00485b00 f   ws2_32:WS2_32.dll
 0001:00084b06       _recv@16                   00485b06 f   ws2_32:WS2_32.dll
 0001:00084b0c       _socket@12                 00485b0c f   ws2_32:WS2_32.dll
 0001:00084b12       _WSAStartup@8              00485b12 f   ws2_32:WS2_32.dll
 0001:00084b18       _connect@12                00485b18 f   ws2_32:WS2_32.dll
 0001:00084b1e       _htons@4                   00485b1e f   ws2_32:WS2_32.dll
 0001:00084b24       _gethostbyname@4           00485b24 f   ws2_32:WS2_32.dll
 0001:00084b2a       _send@16                   00485b2a f   ws2_32:WS2_32.dll
 0001:00084b30       _WSACleanup@0              00485b30 f   ws2_32:WS2_32.dll
 0001:00084b36       _getprotobyname@4          00485b36 f   ws2_32:WS2_32.dll
 0001:00084b3c       _inet_addr@4               00485b3c f   ws2_32:WS2_32.dll
 0001:00084b42       _getservbyname@8           00485b42 f   ws2_32:WS2_32.dll
 0001:00084b48       _VerQueryValueW@16         00485b48 f   version:VERSION.dll
 0001:00084b4e       _GetFileVersionInfoW@16    00485b4e f   version:VERSION.dll
 0001:00084b54       _GetFileVersionInfoSizeW@8 00485b54 f   version:VERSION.dll
 0001:00084b5a       _InternetCrackUrlA@16      00485b5a f   wininet:WININET.dll
 0001:00084b60       _InternetSetOptionA@16     00485b60 f   wininet:WININET.dll
 0001:00084b66       _InternetSetOptionW@16     00485b66 f   wininet:WININET.dll
 0001:00084b6c       _RARCloseArchive@4         00485b6c f   unrar:unrar.dll
 0001:00084b72       _RARProcessFileW@16        00485b72 f   unrar:unrar.dll
 0001:00084b78       _RARReadHeader@8           00485b78 f   unrar:unrar.dll
 0001:00084b7e       _RARSetCallback@12         00485b7e f   unrar:unrar.dll
 0001:00084b84       _RAROpenArchiveEx@4        00485b84 f   unrar:unrar.dll
 0001:00084b8a       _sqlite3_free              00485b8a f   sqlite3:sqlite3.dll
 0001:00084b90       _sqlite3_mprintf           00485b90 f   sqlite3:sqlite3.dll
 0001:00084b96       _sqlite3_vmprintf          00485b96 f   sqlite3:sqlite3.dll
 0001:00084b9c       _sqlite3_column_count      00485b9c f   sqlite3:sqlite3.dll
 0001:00084ba2       _sqlite3_column_text       00485ba2 f   sqlite3:sqlite3.dll
 0001:00084ba8       _sqlite3_column_int        00485ba8 f   sqlite3:sqlite3.dll
 0001:00084bae       _sqlite3_column_double     00485bae f   sqlite3:sqlite3.dll
 0001:00084bb4       _sqlite3_column_blob       00485bb4 f   sqlite3:sqlite3.dll
 0001:00084bba       _sqlite3_column_bytes      00485bba f   sqlite3:sqlite3.dll
 0001:00084bc0       _sqlite3_column_name       00485bc0 f   sqlite3:sqlite3.dll
 0001:00084bc6       _sqlite3_column_decltype   00485bc6 f   sqlite3:sqlite3.dll
 0001:00084bcc       _sqlite3_column_type       00485bcc f   sqlite3:sqlite3.dll
 0001:00084bd2       _sqlite3_errmsg            00485bd2 f   sqlite3:sqlite3.dll
 0001:00084bd8       _sqlite3_finalize          00485bd8 f   sqlite3:sqlite3.dll
 0001:00084bde       _sqlite3_step              00485bde f   sqlite3:sqlite3.dll
 0001:00084be4       _sqlite3_free_table        00485be4 f   sqlite3:sqlite3.dll
 0001:00084bea       _sqlite3_reset             00485bea f   sqlite3:sqlite3.dll
 0001:00084bf0       _sqlite3_changes           00485bf0 f   sqlite3:sqlite3.dll
 0001:00084bf6       _sqlite3_bind_text         00485bf6 f   sqlite3:sqlite3.dll
 0001:00084bfc       _sqlite3_bind_int          00485bfc f   sqlite3:sqlite3.dll
 0001:00084c02       _sqlite3_bind_double       00485c02 f   sqlite3:sqlite3.dll
 0001:00084c08       _sqlite3_bind_blob         00485c08 f   sqlite3:sqlite3.dll
 0001:00084c0e       _sqlite3_bind_null         00485c0e f   sqlite3:sqlite3.dll
 0001:00084c14       _sqlite3_open              00485c14 f   sqlite3:sqlite3.dll
 0001:00084c1a       _sqlite3_close             00485c1a f   sqlite3:sqlite3.dll
 0001:00084c20       _sqlite3_exec              00485c20 f   sqlite3:sqlite3.dll
 0001:00084c26       _sqlite3_get_table         00485c26 f   sqlite3:sqlite3.dll
 0001:00084c2c       _sqlite3_last_insert_rowid 00485c2c f   sqlite3:sqlite3.dll
 0001:00084c32       _sqlite3_busy_timeout      00485c32 f   sqlite3:sqlite3.dll
 0001:00084c38       _sqlite3_prepare           00485c38 f   sqlite3:sqlite3.dll
 0001:00084c3e       _RasEnumEntriesA@20        00485c3e f   Rasapi32:RASAPI32.dll
 0001:00084c44       _CloseHandle@4             00485c44 f   kernel32:KERNEL32.dll
 0001:00084c4a       _CreateThread@24           00485c4a f   kernel32:KERNEL32.dll
 0001:00084c50       _GetLastError@0            00485c50 f   kernel32:KERNEL32.dll
 0001:00084c56       _OutputDebugStringW@4      00485c56 f   kernel32:KERNEL32.dll
 0001:00084c5c       _WritePrivateProfileStringW@16 00485c5c f   kernel32:KERNEL32.dll
 0001:00084c62       _DeleteFileW@4             00485c62 f   kernel32:KERNEL32.dll
 0001:00084c68       _GetWindowsDirectoryW@8    00485c68 f   kernel32:KERNEL32.dll
 0001:00084c6e       _GetTempPathW@8            00485c6e f   kernel32:KERNEL32.dll
 0001:00084c74       _FindClose@4               00485c74 f   kernel32:KERNEL32.dll
 0001:00084c7a       _RemoveDirectoryW@4        00485c7a f   kernel32:KERNEL32.dll
 0001:00084c80       _SetFileAttributesW@8      00485c80 f   kernel32:KERNEL32.dll
 0001:00084c86       _GetFileAttributesW@4      00485c86 f   kernel32:KERNEL32.dll
 0001:00084c8c       _FindNextFileW@8           00485c8c f   kernel32:KERNEL32.dll
 0001:00084c92       _FindFirstFileW@8          00485c92 f   kernel32:KERNEL32.dll
 0001:00084c98       _GetVersionExW@4           00485c98 f   kernel32:KERNEL32.dll
 0001:00084c9e       _HeapFree@12               00485c9e f   kernel32:KERNEL32.dll
 0001:00084ca4       _GetProcessHeap@0          00485ca4 f   kernel32:KERNEL32.dll
 0001:00084caa       _HeapAlloc@12              00485caa f   kernel32:KERNEL32.dll
 0001:00084cb0       _GetCurrentProcess@0       00485cb0 f   kernel32:KERNEL32.dll
 0001:00084cb6       _GlobalFree@4              00485cb6 f   kernel32:KERNEL32.dll
 0001:00084cbc       _GlobalAlloc@8             00485cbc f   kernel32:KERNEL32.dll
 0001:00084cc2       _OutputDebugStringA@4      00485cc2 f   kernel32:KERNEL32.dll
 0001:00084cc8       _GetModuleFileNameA@12     00485cc8 f   kernel32:KERNEL32.dll
 0001:00084cce       _WideCharToMultiByte@32    00485cce f   kernel32:KERNEL32.dll
 0001:00084cd4       _MultiByteToWideChar@24    00485cd4 f   kernel32:KERNEL32.dll
 0001:00084cda       _VirtualFree@12            00485cda f   kernel32:KERNEL32.dll
 0001:00084ce0       _ReadFile@20               00485ce0 f   kernel32:KERNEL32.dll
 0001:00084ce6       _VirtualAlloc@16           00485ce6 f   kernel32:KERNEL32.dll
 0001:00084cec       _GetFileSize@8             00485cec f   kernel32:KERNEL32.dll
 0001:00084cf2       _CreateFileW@28            00485cf2 f   kernel32:KERNEL32.dll
 0001:00084cf8       _GetCurrentThreadId@0      00485cf8 f   kernel32:KERNEL32.dll
 0001:00084cfe       _GetVolumeInformationW@32  00485cfe f   kernel32:KERNEL32.dll
 0001:00084d04       _CopyFileW@12              00485d04 f   kernel32:KERNEL32.dll
 0001:00084d0a       _CreateDirectoryW@8        00485d0a f   kernel32:KERNEL32.dll
 0001:00084d10       _GetModuleFileNameW@12     00485d10 f   kernel32:KERNEL32.dll
 0001:00084d16       _GetSystemTime@4           00485d16 f   kernel32:KERNEL32.dll
 0001:00084d1c       _GlobalAddAtomW@4          00485d1c f   kernel32:KERNEL32.dll
 0001:00084d22       _InitializeCriticalSection@4 00485d22 f   kernel32:KERNEL32.dll
 0001:00084d28       _IsBadReadPtr@8            00485d28 f   kernel32:KERNEL32.dll
 0001:00084d2e       _Process32NextW@8          00485d2e f   kernel32:KERNEL32.dll
 0001:00084d34       _Process32FirstW@8         00485d34 f   kernel32:KERNEL32.dll
 0001:00084d3a       _CreateToolhelp32Snapshot@8 00485d3a f   kernel32:KERNEL32.dll
 0001:00084d40       _GetCurrentProcessId@0     00485d40 f   kernel32:KERNEL32.dll
 0001:00084d46       _LeaveCriticalSection@4    00485d46 f   kernel32:KERNEL32.dll
 0001:00084d4c       _EnterCriticalSection@4    00485d4c f   kernel32:KERNEL32.dll
 0001:00084d52       _GlobalDeleteAtom@4        00485d52 f   kernel32:KERNEL32.dll
 0001:00084d58       _SetLastError@4            00485d58 f   kernel32:KERNEL32.dll
 0001:00084d5e       _GlobalFindAtomW@4         00485d5e f   kernel32:KERNEL32.dll
 0001:00084d64       _LoadLibraryW@4            00485d64 f   kernel32:KERNEL32.dll
 0001:00084d6a       _SetCurrentDirectoryW@4    00485d6a f   kernel32:KERNEL32.dll
 0001:00084d70       _WriteFile@20              00485d70 f   kernel32:KERNEL32.dll
 0001:00084d76       _TerminateThread@8         00485d76 f   kernel32:KERNEL32.dll
 0001:00084d7c       _DeleteCriticalSection@4   00485d7c f   kernel32:KERNEL32.dll
 0001:00084d82       _InterlockedIncrement@4    00485d82 f   kernel32:KERNEL32.dll
 0001:00084d88       _InterlockedDecrement@4    00485d88 f   kernel32:KERNEL32.dll
 0001:00084d8e       _GetExitCodeThread@8       00485d8e f   kernel32:KERNEL32.dll
 0001:00084d94       _Sleep@4                   00485d94 f   kernel32:KERNEL32.dll
 0001:00084d9a       _TerminateProcess@8        00485d9a f   kernel32:KERNEL32.dll
 0001:00084da0       _OpenProcess@12            00485da0 f   kernel32:KERNEL32.dll
 0001:00084da6       _VirtualFreeEx@16          00485da6 f   kernel32:KERNEL32.dll
 0001:00084dac       _ReadProcessMemory@20      00485dac f   kernel32:KERNEL32.dll
 0001:00084db2       _VirtualAllocEx@20         00485db2 f   kernel32:KERNEL32.dll
 0001:00084db8       _GetModuleHandleW@4        00485db8 f   kernel32:KERNEL32.dll
 0001:00084dbe       _lstrlenW@4                00485dbe f   kernel32:KERNEL32.dll
 0001:00084dc4       _FreeLibrary@4             00485dc4 f   kernel32:KERNEL32.dll
 0001:00084dca       _SizeofResource@8          00485dca f   kernel32:KERNEL32.dll
 0001:00084dd0       _LoadResource@8            00485dd0 f   kernel32:KERNEL32.dll
 0001:00084dd6       _FindResourceW@12          00485dd6 f   kernel32:KERNEL32.dll
 0001:00084ddc       _LoadLibraryExW@12         00485ddc f   kernel32:KERNEL32.dll
 0001:00084de2       _lstrcmpiW@8               00485de2 f   kernel32:KERNEL32.dll
 0001:00084de8       _GetProcAddress@8          00485de8 f   kernel32:KERNEL32.dll
 0001:00084dee       _RaiseException@16         00485dee f   kernel32:KERNEL32.dll
 0001:00084df4       _SetFilePointer@16         00485df4 f   kernel32:KERNEL32.dll
 0001:00084dfa       _SetEndOfFile@4            00485dfa f   kernel32:KERNEL32.dll
 0001:00084e00       _GetSystemDefaultLangID@0  00485e00 f   kernel32:KERNEL32.dll
 0001:00084e06       _GetPrivateProfileStringW@24 00485e06 f   kernel32:KERNEL32.dll
 0001:00084e0c       _LocalFree@4               00485e0c f   kernel32:KERNEL32.dll
 0001:00084e12       _LocalUnlock@4             00485e12 f   kernel32:KERNEL32.dll
 0001:00084e18       _LocalLock@4               00485e18 f   kernel32:KERNEL32.dll
 0001:00084e1e       _LocalAlloc@8              00485e1e f   kernel32:KERNEL32.dll
 0001:00084e24       _GetSystemDirectoryW@8     00485e24 f   kernel32:KERNEL32.dll
 0001:00084e2a       _UnmapViewOfFile@4         00485e2a f   kernel32:KERNEL32.dll
 0001:00084e30       _MapViewOfFile@20          00485e30 f   kernel32:KERNEL32.dll
 0001:00084e36       _OpenFileMappingW@12       00485e36 f   kernel32:KERNEL32.dll
 0001:00084e3c       _CreateEventW@16           00485e3c f   kernel32:KERNEL32.dll
 0001:00084e42       _FlushInstructionCache@12  00485e42 f   kernel32:KERNEL32.dll
 0001:00084e48       _MulDiv@12                 00485e48 f   kernel32:KERNEL32.dll
 0001:00084e4e       _GlobalUnlock@4            00485e4e f   kernel32:KERNEL32.dll
 0001:00084e54       _GlobalLock@4              00485e54 f   kernel32:KERNEL32.dll
 0001:00084e5a       _LockResource@4            00485e5a f   kernel32:KERNEL32.dll
 0001:00084e60       _FreeResource@4            00485e60 f   kernel32:KERNEL32.dll
 0001:00084e66       _ResumeThread@4            00485e66 f   kernel32:KERNEL32.dll
 0001:00084e6c       _WaitForSingleObject@8     00485e6c f   kernel32:KERNEL32.dll
 0001:00084e72       _ResetEvent@4              00485e72 f   kernel32:KERNEL32.dll
 0001:00084e78       _SetEvent@4                00485e78 f   kernel32:KERNEL32.dll
 0001:00084e7e       _CreateFileMappingW@24     00485e7e f   kernel32:KERNEL32.dll
 0001:00084e84       _CreateDirectoryA@8        00485e84 f   kernel32:KERNEL32.dll
 0001:00084e8a       _EndDialog@8               00485e8a f   user32:USER32.dll
 0001:00084e90       _DestroyWindow@4           00485e90 f   user32:USER32.dll
 0001:00084e96       _SetCursor@4               00485e96 f   user32:USER32.dll
 0001:00084e9c       _PtInRect@12               00485e9c f   user32:USER32.dll
 0001:00084ea2       _ScreenToClient@8          00485ea2 f   user32:USER32.dll
 0001:00084ea8       _GetCursorPos@4            00485ea8 f   user32:USER32.dll
 0001:00084eae       _MapWindowPoints@16        00485eae f   user32:USER32.dll
 0001:00084eb4       _GetDesktopWindow@0        00485eb4 f   user32:USER32.dll
 0001:00084eba       _ClientToScreen@8          00485eba f   user32:USER32.dll
 0001:00084ec0       _SetWindowPos@28           00485ec0 f   user32:USER32.dll
 0001:00084ec6       _GetWindowRect@8           00485ec6 f   user32:USER32.dll
 0001:00084ecc       _IsDlgButtonChecked@8      00485ecc f   user32:USER32.dll
 0001:00084ed2       _SendDlgItemMessageW@20    00485ed2 f   user32:USER32.dll
 0001:00084ed8       _PostMessageW@16           00485ed8 f   user32:USER32.dll
 0001:00084ede       _DestroyIcon@4             00485ede f   user32:USER32.dll
 0001:00084ee4       _SendMessageW@16           00485ee4 f   user32:USER32.dll
 0001:00084eea       _LoadImageW@24             00485eea f   user32:USER32.dll
 0001:00084ef0       _CopyIcon@4                00485ef0 f   user32:USER32.dll
 0001:00084ef6       _LoadCursorW@8             00485ef6 f   user32:USER32.dll
 0001:00084efc       _ShowWindow@8              00485efc f   user32:USER32.dll
 0001:00084f02       _CheckDlgButton@12         00485f02 f   user32:USER32.dll
 0001:00084f08       _GetSysColor@4             00485f08 f   user32:USER32.dll
 0001:00084f0e       _GetDlgItem@8              00485f0e f   user32:USER32.dll
 0001:00084f14       _SetWindowLongW@12         00485f14 f   user32:USER32.dll
 0001:00084f1a       _GetWindowLongW@8          00485f1a f   user32:USER32.dll
 0001:00084f20       _CreateDialogParamW@20     00485f20 f   user32:USER32.dll
 0001:00084f26       _IsWindowEnabled@4         00485f26 f   user32:USER32.dll
 0001:00084f2c       _EmptyClipboard@0          00485f2c f   user32:USER32.dll
 0001:00084f32       _OpenClipboard@4           00485f32 f   user32:USER32.dll
 0001:00084f38       _MessageBoxW@16            00485f38 f   user32:USER32.dll
 0001:00084f3e       _SetDlgItemTextW@12        00485f3e f   user32:USER32.dll
 0001:00084f44       _GetClientRect@8           00485f44 f   user32:USER32.dll
 0001:00084f4a       _RegisterWindowMessageW@4  00485f4a f   user32:USER32.dll
 0001:00084f50       _LoadIconW@8               00485f50 f   user32:USER32.dll
 0001:00084f56       _DialogBoxParamW@20        00485f56 f   user32:USER32.dll
 0001:00084f5c       _SetWindowsHookExW@16      00485f5c f   user32:USER32.dll
 0001:00084f62       _SetForegroundWindow@4     00485f62 f   user32:USER32.dll
 0001:00084f68       _GetMenuStringW@20         00485f68 f   user32:USER32.dll
 0001:00084f6e       _PostQuitMessage@4         00485f6e f   user32:USER32.dll
 0001:00084f74       _DestroyMenu@4             00485f74 f   user32:USER32.dll
 0001:00084f7a       _AppendMenuW@16            00485f7a f   user32:USER32.dll
 0001:00084f80       _SetMenuItemInfoW@16       00485f80 f   user32:USER32.dll
 0001:00084f86       _GetMenu@4                 00485f86 f   user32:USER32.dll
 0001:00084f8c       _DeleteMenu@12             00485f8c f   user32:USER32.dll
 0001:00084f92       _GetMenuItemCount@4        00485f92 f   user32:USER32.dll
 0001:00084f98       _CheckMenuItem@12          00485f98 f   user32:USER32.dll
 0001:00084f9e       _SetMenuDefaultItem@12     00485f9e f   user32:USER32.dll
 0001:00084fa4       _GetActiveWindow@0         00485fa4 f   user32:USER32.dll
 0001:00084faa       _mouse_event@20            00485faa f   user32:USER32.dll
 0001:00084fb0       _IsWindowVisible@4         00485fb0 f   user32:USER32.dll
 0001:00084fb6       _GetParent@4               00485fb6 f   user32:USER32.dll
 0001:00084fbc       _TrackPopupMenu@28         00485fbc f   user32:USER32.dll
 0001:00084fc2       _EnableMenuItem@12         00485fc2 f   user32:USER32.dll
 0001:00084fc8       _ModifyMenuW@20            00485fc8 f   user32:USER32.dll
 0001:00084fce       _GetDlgCtrlID@4            00485fce f   user32:USER32.dll
 0001:00084fd4       _ReleaseDC@8               00485fd4 f   user32:USER32.dll
 0001:00084fda       _GetWindowDC@4             00485fda f   user32:USER32.dll
 0001:00084fe0       _GetWindowThreadProcessId@8 00485fe0 f   user32:USER32.dll
 0001:00084fe6       _SetClassLongW@12          00485fe6 f   user32:USER32.dll
 0001:00084fec       _SetTimer@16               00485fec f   user32:USER32.dll
 0001:00084ff2       _EnableWindow@8            00485ff2 f   user32:USER32.dll
 0001:00084ff8       _RegisterHotKey@16         00485ff8 f   user32:USER32.dll
 0001:00084ffe       _CreateWindowExW@48        00485ffe f   user32:USER32.dll
 0001:00085004       _IsWindow@4                00486004 f   user32:USER32.dll
 0001:0008500a       _GetSubMenu@8              0048600a f   user32:USER32.dll
 0001:00085010       _LoadMenuW@8               00486010 f   user32:USER32.dll
 0001:00085016       _SetWindowTextW@8          00486016 f   user32:USER32.dll
 0001:0008501c       _InvalidateRect@12         0048601c f   user32:USER32.dll
 0001:00085022       _SetFocus@4                00486022 f   user32:USER32.dll
 0001:00085028       _GetDC@4                   00486028 f   user32:USER32.dll
 0001:0008502e       _EnumWindows@8             0048602e f   user32:USER32.dll
 0001:00085034       _GetClassLongW@8           00486034 f   user32:USER32.dll
 0001:0008503a       _SendMessageTimeoutW@28    0048603a f   user32:USER32.dll
 0001:00085040       _GetWindowTextW@12         00486040 f   user32:USER32.dll
 0001:00085046       _UnregisterHotKey@8        00486046 f   user32:USER32.dll
 0001:0008504c       _SetDlgItemInt@16          0048604c f   user32:USER32.dll
 0001:00085052       _CheckRadioButton@16       00486052 f   user32:USER32.dll
 0001:00085058       _CallNextHookEx@16         00486058 f   user32:USER32.dll
 0001:0008505e       _GetDlgItemTextW@16        0048605e f   user32:USER32.dll
 0001:00085064       _GetWindowTextLengthW@4    00486064 f   user32:USER32.dll
 0001:0008506a       _UnhookWindowsHookEx@4     0048606a f   user32:USER32.dll
 0001:00085070       _FindWindowExW@16          00486070 f   user32:USER32.dll
 0001:00085076       _FindWindowW@8             00486076 f   user32:USER32.dll
 0001:0008507c       _GetIconInfo@8             0048607c f   user32:USER32.dll
 0001:00085082       _CharNextW@4               00486082 f   user32:USER32.dll
 0001:00085088       _LoadBitmapW@8             00486088 f   user32:USER32.dll
 0001:0008508e       _GetSystemMetrics@4        0048608e f   user32:USER32.dll
 0001:00085094       _DrawIconEx@36             00486094 f   user32:USER32.dll
 0001:0008509a       _EnumChildWindows@12       0048609a f   user32:USER32.dll
 0001:000850a0       _DrawMenuBar@4             004860a0 f   user32:USER32.dll
 0001:000850a6       _InsertMenuW@20            004860a6 f   user32:USER32.dll
 0001:000850ac       _SetLayeredWindowAttributes@16 004860ac f   user32:USER32.dll
 0001:000850b2       _KillTimer@8               004860b2 f   user32:USER32.dll
 0001:000850b8       _AnimateWindow@12          004860b8 f   user32:USER32.dll
 0001:000850be       _CallWindowProcW@20        004860be f   user32:USER32.dll
 0001:000850c4       _EndPaint@8                004860c4 f   user32:USER32.dll
 0001:000850ca       _DrawTextW@20              004860ca f   user32:USER32.dll
 0001:000850d0       _BeginPaint@8              004860d0 f   user32:USER32.dll
 0001:000850d6       _DefWindowProcW@16         004860d6 f   user32:USER32.dll
 0001:000850dc       _ReleaseCapture@0          004860dc f   user32:USER32.dll
 0001:000850e2       _SetCapture@4              004860e2 f   user32:USER32.dll
 0001:000850e8       _wvsprintfW@12             004860e8 f   user32:USER32.dll
 0001:000850ee       _SetRect@20                004860ee f   user32:USER32.dll
 0001:000850f4       _FillRect@12               004860f4 f   user32:USER32.dll
 0001:000850fa       _CopyRect@8                004860fa f   user32:USER32.dll
 0001:00085100       _MessageBoxA@16            00486100 f   user32:USER32.dll
 0001:00085106       _SetWindowRgn@12           00486106 f   user32:USER32.dll
 0001:0008510c       _SetPropW@12               0048610c f   user32:USER32.dll
 0001:00085112       _TrackMouseEvent@4         00486112 f   user32:USER32.dll
 0001:00085118       _MoveWindow@24             00486118 f   user32:USER32.dll
 0001:0008511e       _GetWindowRgn@8            0048611e f   user32:USER32.dll
 0001:00085124       _GetPropW@8                00486124 f   user32:USER32.dll
 0001:0008512a       _DrawIcon@16               0048612a f   user32:USER32.dll
 0001:00085130       _DrawFocusRect@8           00486130 f   user32:USER32.dll
 0001:00085136       _DeleteObject@4            00486136 f   gdi32:GDI32.dll
 0001:0008513c       _SetBkColor@8              0048613c f   gdi32:GDI32.dll
 0001:00085142       _CreateSolidBrush@4        00486142 f   gdi32:GDI32.dll
 0001:00085148       _CreateFontIndirectW@4     00486148 f   gdi32:GDI32.dll
 0001:0008514e       _SelectObject@8            0048614e f   gdi32:GDI32.dll
 0001:00085154       _GetStockObject@4          00486154 f   gdi32:GDI32.dll
 0001:0008515a       _SelectClipRgn@8           0048615a f   gdi32:GDI32.dll
 0001:00085160       _CreateRoundRectRgn@24     00486160 f   gdi32:GDI32.dll
 0001:00085166       _SetTextColor@8            00486166 f   gdi32:GDI32.dll
 0001:0008516c       _GetDeviceCaps@8           0048616c f   gdi32:GDI32.dll
 0001:00085172       _BitBlt@36                 00486172 f   gdi32:GDI32.dll
 0001:00085178       _DeleteDC@4                00486178 f   gdi32:GDI32.dll
 0001:0008517e       _CreateCompatibleDC@4      0048617e f   gdi32:GDI32.dll
 0001:00085184       _GetObjectW@12             00486184 f   gdi32:GDI32.dll
 0001:0008518a       _SetBkMode@8               0048618a f   gdi32:GDI32.dll
 0001:00085190       _CreateCompatibleBitmap@12 00486190 f   gdi32:GDI32.dll
 0001:00085196       _CreatePen@12              00486196 f   gdi32:GDI32.dll
 0001:0008519c       _RestoreDC@8               0048619c f   gdi32:GDI32.dll
 0001:000851a2       _CreateRectRgn@16          004861a2 f   gdi32:GDI32.dll
 0001:000851a8       _SaveDC@4                  004861a8 f   gdi32:GDI32.dll
 0001:000851ae       _CombineRgn@16             004861ae f   gdi32:GDI32.dll
 0001:000851b4       _GetPixel@12               004861b4 f   gdi32:GDI32.dll
 0001:000851ba       _RoundRect@28              004861ba f   gdi32:GDI32.dll
 0001:000851c0       _LineTo@12                 004861c0 f   gdi32:GDI32.dll
 0001:000851c6       _MoveToEx@16               004861c6 f   gdi32:GDI32.dll
 0001:000851cc       _GetOpenFileNameW@4        004861cc f   comdlg32:COMDLG32.dll
 0001:000851d2       _RegCloseKey@4             004861d2 f   advapi32:ADVAPI32.dll
 0001:000851d8       _RegQueryValueExW@24       004861d8 f   advapi32:ADVAPI32.dll
 0001:000851de       _RegEnumValueW@32          004861de f   advapi32:ADVAPI32.dll
 0001:000851e4       _RegOpenKeyW@12            004861e4 f   advapi32:ADVAPI32.dll
 0001:000851ea       _GetUserNameW@8            004861ea f   advapi32:ADVAPI32.dll
 0001:000851f0       _FreeSid@4                 004861f0 f   advapi32:ADVAPI32.dll
 0001:000851f6       _SetSecurityDescriptorDacl@16 004861f6 f   advapi32:ADVAPI32.dll
 0001:000851fc       _InitializeSecurityDescriptor@8 004861fc f   advapi32:ADVAPI32.dll
 0001:00085202       _AddAce@20                 00486202 f   advapi32:ADVAPI32.dll
 0001:00085208       _InitializeAcl@12          00486208 f   advapi32:ADVAPI32.dll
 0001:0008520e       _GetLengthSid@4            0048620e f   advapi32:ADVAPI32.dll
 0001:00085214       _AllocateAndInitializeSid@44 00486214 f   advapi32:ADVAPI32.dll
 0001:0008521a       _RegGetKeySecurity@16      0048621a f   advapi32:ADVAPI32.dll
 0001:00085220       _RegOpenKeyExW@20          00486220 f   advapi32:ADVAPI32.dll
 0001:00085226       _CopySid@12                00486226 f   advapi32:ADVAPI32.dll
 0001:0008522c       _GetTokenInformation@20    0048622c f   advapi32:ADVAPI32.dll
 0001:00085232       _OpenProcessToken@12       00486232 f   advapi32:ADVAPI32.dll
 0001:00085238       _GetSidSubAuthority@8      00486238 f   advapi32:ADVAPI32.dll
 0001:0008523e       _GetSidSubAuthorityCount@4 0048623e f   advapi32:ADVAPI32.dll
 0001:00085244       _GetSidIdentifierAuthority@4 00486244 f   advapi32:ADVAPI32.dll
 0001:0008524a       _RegEnumKeyW@16            0048624a f   advapi32:ADVAPI32.dll
 0001:00085250       _RegQueryInfoKeyW@48       00486250 f   advapi32:ADVAPI32.dll
 0001:00085256       _RegSetKeySecurity@12      00486256 f   advapi32:ADVAPI32.dll
 0001:0008525c       _RegCreateKeyW@12          0048625c f   advapi32:ADVAPI32.dll
 0001:00085262       _RegDeleteKeyW@8           00486262 f   advapi32:ADVAPI32.dll
 0001:00085268       _RegDeleteValueW@8         00486268 f   advapi32:ADVAPI32.dll
 0001:0008526e       _RegSetValueExW@24         0048626e f   advapi32:ADVAPI32.dll
 0001:00085274       _RegCreateKeyExW@36        00486274 f   advapi32:ADVAPI32.dll
 0001:0008527a       _RegEnumKeyExW@32          0048627a f   advapi32:ADVAPI32.dll
 0001:00085280       _SHGetSpecialFolderPathW@16 00486280 f   shell32:SHELL32.dll
 0001:00085286       _ShellExecuteW@24          00486286 f   shell32:SHELL32.dll
 0001:0008528c       _Shell_NotifyIconW@8       0048628c f   shell32:SHELL32.dll
 0001:00085292       _SHGetPathFromIDListW@8    00486292 f   shell32:SHELL32.dll
 0001:00085298       _SHGetSpecialFolderLocation@12 00486298 f   shell32:SHELL32.dll
 0001:0008529e       _SHGetMalloc@4             0048629e f   shell32:SHELL32.dll
 0001:000852a4       _SHFileOperationW@4        004862a4 f   shell32:SHELL32.dll
 0001:000852aa       _SHGetSpecialFolderPathA@16 004862aa f   shell32:SHELL32.dll
 0001:000852b0       _CoCreateInstance@20       004862b0 f   ole32:ole32.dll
 0001:000852b6       _CoInitialize@4            004862b6 f   ole32:ole32.dll
 0001:000852bc       _OleSetContainedObject@8   004862bc f   ole32:ole32.dll
 0001:000852c2       _OleCreate@28              004862c2 f   ole32:ole32.dll
 0001:000852c8       _CoUninitialize@0          004862c8 f   ole32:ole32.dll
 0001:000852ce       _StringFromGUID2@12        004862ce f   ole32:ole32.dll
 0001:000852d4       _CoCreateGuid@4            004862d4 f   ole32:ole32.dll
 0001:000852da       _CLSIDFromString@8         004862da f   ole32:ole32.dll
 0001:000852e0       _CoTaskMemFree@4           004862e0 f   ole32:ole32.dll
 0001:000852e6       _CoTaskMemAlloc@4          004862e6 f   ole32:ole32.dll
 0001:000852ec       _CoTaskMemRealloc@8        004862ec f   ole32:ole32.dll
 0001:000852f2       _CreateStreamOnHGlobal@12  004862f2 f   ole32:ole32.dll
 0001:000852f8       _SafeArrayDestroy@4        004862f8 f   oleaut32:OLEAUT32.dll
 0001:000852fe       _SafeArrayAccessData@8     004862fe f   oleaut32:OLEAUT32.dll
 0001:00085304       _SafeArrayCreate@12        00486304 f   oleaut32:OLEAUT32.dll
 0001:0008530a       _VariantClear@4            0048630a f   oleaut32:OLEAUT32.dll
 0001:00085310       _SysAllocString@4          00486310 f   oleaut32:OLEAUT32.dll
 0001:00085316       _VariantInit@4             00486316 f   oleaut32:OLEAUT32.dll
 0001:0008531c       _SysFreeString@4           0048631c f   oleaut32:OLEAUT32.dll
 0001:00085322       _VarUI4FromStr@16          00486322 f   oleaut32:OLEAUT32.dll
 0001:00085328       _OleLoadPicture@20         00486328 f   oleaut32:OLEAUT32.dll
 0001:00085330       ??_U@YAPAXI@Z              00486330 f   msvcprtd:newaop_s.obj
 0001:00085344       ??1_Lockit@std@@QAE@XZ     00486344 f   msvcprtd:MSVCP90D.dll
 0001:0008534a       ??0_Lockit@std@@QAE@H@Z    0048634a f   msvcprtd:MSVCP90D.dll
 0001:00085350       ?_Debug_message@std@@YAXPB_W0I@Z 00486350 f   msvcprtd:MSVCP90D.dll
 0001:00085356       ??1_Container_base_secure@std@@QAE@XZ 00486356 f   msvcprtd:MSVCP90D.dll
 0001:0008535c       ??1?$basic_string@DU?$char_traits@D@std@@V?$allocator@D@2@@std@@QAE@XZ 0048635c f   msvcprtd:MSVCP90D.dll
 0001:00085362       ??0?$basic_string@DU?$char_traits@D@std@@V?$allocator@D@2@@std@@QAE@PBD@Z 00486362 f   msvcprtd:MSVCP90D.dll
 0001:00085368       ??0?$basic_string@DU?$char_traits@D@std@@V?$allocator@D@2@@std@@QAE@ABV01@@Z 00486368 f   msvcprtd:MSVCP90D.dll
 0001:0008536e       ?c_str@?$basic_string@DU?$char_traits@D@std@@V?$allocator@D@2@@std@@QBEPBDXZ 0048636e f   msvcprtd:MSVCP90D.dll
 0001:00085374       ??0_Container_base_secure@std@@QAE@XZ 00486374 f   msvcprtd:MSVCP90D.dll
 0001:0008537a       ?_Orphan_all@_Container_base_secure@std@@QBEXXZ 0048637a f   msvcprtd:MSVCP90D.dll
 0001:00085380       __RTC_InitBase             00486380 f   MSVCRTD:_init_.obj
 0001:000853b0       __RTC_Shutdown             004863b0 f   MSVCRTD:_init_.obj
 0001:000853d0       __RTC_CheckEsp             004863d0 f   MSVCRTD:_stack_.obj
 0001:00085400       @_RTC_CheckStackVars@8     00486400 f   MSVCRTD:_stack_.obj
 0001:00085460       @_RTC_AllocaHelper@12      00486460 f   MSVCRTD:_stack_.obj
 0001:000854a0       @_RTC_CheckStackVars2@12   004864a0 f   MSVCRTD:_stack_.obj
 0001:00085576       _wcscmp                    00486576 f   MSVCRTD:MSVCR90D.dll
 0001:0008557c       _memset                    0048657c f   MSVCRTD:MSVCR90D.dll
 0001:00085590       @__security_check_cookie@4 00486590 f   MSVCRTD:secchk.obj
 0001:000855a0       __chkstk                   004865a0 f   MSVCRTD:chkstk.obj
 0001:000855a0       __alloca_probe             004865a0     MSVCRTD:chkstk.obj
 0001:000855cc       _wcslen                    004865cc f   MSVCRTD:MSVCR90D.dll
 0001:000855d2       _wcscpy                    004865d2 f   MSVCRTD:MSVCR90D.dll
 0001:000855d8       _wcscat                    004865d8 f   MSVCRTD:MSVCR90D.dll
 0001:000855de       __wcsicmp                  004865de f   MSVCRTD:MSVCR90D.dll
 0001:000855e4       ??3@YAXPAX@Z               004865e4 f   MSVCRTD:MSVCR90D.dll
 0001:000855ea       _memcpy                    004865ea f   MSVCRTD:MSVCR90D.dll
 0001:000855f0       __vswprintf                004865f0 f   MSVCRTD:MSVCR90D.dll
 0001:000855f6       ??_V@YAXPAX@Z              004865f6 f   MSVCRTD:MSVCR90D.dll
 0001:00085600       __onexit                   00486600 f   MSVCRTD:atonexit.obj
 0001:00085710       _atexit                    00486710 f   MSVCRTD:atonexit.obj
 0001:00085730       ??0type_info@@AAE@ABV0@@Z  00486730 f   MSVCRTD:ti_inst.obj
 0001:00085750       ??_Etype_info@@UAEPAXI@Z   00486750 f i MSVCRTD:ti_inst.obj
 0001:000857c0       ??4type_info@@AAEAAV0@ABV0@@Z 004867c0 f   MSVCRTD:ti_inst.obj
 0001:000857d2       _malloc                    004867d2 f   MSVCRTD:MSVCR90D.dll
 0001:000857d8       _strlen                    004867d8 f   MSVCRTD:MSVCR90D.dll
 0001:000857de       __CxxThrowException@8      004867de f   MSVCRTD:MSVCR90D.dll
 0001:000857e4       _free                      004867e4 f   MSVCRTD:MSVCR90D.dll
 0001:000857ea       ___CxxFrameHandler3        004867ea f   MSVCRTD:MSVCR90D.dll
 0001:000857f0       _strcmp                    004867f0 f   MSVCRTD:MSVCR90D.dll
 0001:000857f6       _atoi                      004867f6 f   MSVCRTD:MSVCR90D.dll
 0001:000857fc       _atof                      004867fc f   MSVCRTD:MSVCR90D.dll
 0001:00085802       _sprintf                   00486802 f   MSVCRTD:MSVCR90D.dll
 0001:00085808       __CrtDbgReportW            00486808 f   MSVCRTD:MSVCR90D.dll
 0001:0008580e       _memcmp                    0048680e f   MSVCRTD:MSVCR90D.dll
 0001:00085814       _strcat                    00486814 f   MSVCRTD:MSVCR90D.dll
 0001:0008581a       _strcpy                    0048681a f   MSVCRTD:MSVCR90D.dll
 0001:00085820       ??2@YAPAXI@Z               00486820 f   MSVCRTD:MSVCR90D.dll
 0001:00085830       ??_M@YGXPAXIHP6EX0@Z@Z     00486830 f   MSVCRTD:ehvecdtr.obj
 0001:000858e0       ?__ArrayUnwind@@YGXPAXIHP6EX0@Z@Z 004868e0 f   MSVCRTD:ehvecdtr.obj
 0001:0008599e       __beginthreadex            0048699e f   MSVCRTD:MSVCR90D.dll
 0001:000859a4       __wcsnicmp                 004869a4 f   MSVCRTD:MSVCR90D.dll
 0001:000859aa       __CrtDumpMemoryLeaks       004869aa f   MSVCRTD:MSVCR90D.dll
 0001:000859b0       _exit                      004869b0 f   MSVCRTD:MSVCR90D.dll
 0001:000859b6       _wcschr                    004869b6 f   MSVCRTD:MSVCR90D.dll
 0001:000859bc       _atol                      004869bc f   MSVCRTD:MSVCR90D.dll
 0001:000859d0       _DebuggerKnownHandle       004869d0 f   MSVCRTD:_error_.obj
 0001:00085a90       ?_RTC_Failure@@YAXPAXH@Z   00486a90 f   MSVCRTD:_error_.obj
 0001:00085da0       ?_RTC_StackFailure@@YAXPAXPBD@Z 00486da0 f   MSVCRTD:_error_.obj
 0001:00085ea0       ?_RTC_AllocaFailure@@YAXPAXPAU_RTC_ALLOCA_NODE@@H@Z 00486ea0 f   MSVCRTD:_error_.obj
 0001:00086050       __RTC_UninitUse            00487050 f   MSVCRTD:_error_.obj
 0001:0008613a       _wcsrchr                   0048713a f   MSVCRTD:MSVCR90D.dll
 0001:00086140       _strstr                    00487140 f   MSVCRTD:MSVCR90D.dll
 0001:00086146       _wcstol                    00487146 f   MSVCRTD:MSVCR90D.dll
 0001:0008614c       __invalid_parameter        0048714c f   MSVCRTD:MSVCR90D.dll
 0001:00086152       _memcpy_s                  00487152 f   MSVCRTD:MSVCR90D.dll
 0001:00086160       __except_handler4          00487160 f   MSVCRTD:chandler4gs.obj
 0001:0008618a       _wcsstr                    0048718a f   MSVCRTD:MSVCR90D.dll
 0001:00086190       _wcsncpy_s                 00487190 f   MSVCRTD:MSVCR90D.dll
 0001:00086196       __recalloc                 00487196 f   MSVCRTD:MSVCR90D.dll
 0001:0008619c       _abs                       0048719c f   MSVCRTD:MSVCR90D.dll
 0001:000861a2       __ltoa                     004871a2 f   MSVCRTD:MSVCR90D.dll
 0001:000861a8       __itow                     004871a8 f   MSVCRTD:MSVCR90D.dll
 0001:000861ae       __wtoi                     004871ae f   MSVCRTD:MSVCR90D.dll
 0001:000861b4       __wcsupr                   004871b4 f   MSVCRTD:MSVCR90D.dll
 0001:000861c0       __ftol2_sse                004871c0 f   MSVCRTD:ftol2.obj
 0001:000861c9       __ftol2_pentium4           004871c9 f   MSVCRTD:ftol2.obj
 0001:000861dc       __ftol2_sse_excpt          004871dc f   MSVCRTD:ftol2.obj
 0001:000861f6       __ftol2                    004871f6 f   MSVCRTD:ftol2.obj
 0001:0008626c       _rand                      0048726c f   MSVCRTD:MSVCR90D.dll
 0001:00086272       _srand                     00487272 f   MSVCRTD:MSVCR90D.dll
 0001:00086278       __time64                   00487278 f   MSVCRTD:MSVCR90D.dll
 0001:0008627e       ??0exception@std@@QAE@ABV01@@Z 0048727e f   MSVCRTD:MSVCR90D.dll
 0001:00086284       ??1exception@std@@UAE@XZ   00487284 f   MSVCRTD:MSVCR90D.dll
 0001:0008628a       ??0exception@std@@QAE@XZ   0048728a f   MSVCRTD:MSVCR90D.dll
 0001:00086290       ??0exception@std@@QAE@ABQBD@Z 00487290 f   MSVCRTD:MSVCR90D.dll
 0001:00086296       ?what@exception@std@@UBEPBDXZ 00487296 f   MSVCRTD:MSVCR90D.dll
 0001:0008629c       _memmove_s                 0048729c f   MSVCRTD:MSVCR90D.dll
 0001:000862a2       __wassert                  004872a2 f   MSVCRTD:MSVCR90D.dll
 0001:000862a8       _fclose                    004872a8 f   MSVCRTD:MSVCR90D.dll
 0001:000862ae       _fread                     004872ae f   MSVCRTD:MSVCR90D.dll
 0001:000862b4       _ftell                     004872b4 f   MSVCRTD:MSVCR90D.dll
 0001:000862ba       _fseek                     004872ba f   MSVCRTD:MSVCR90D.dll
 0001:000862c0       __wfopen                   004872c0 f   MSVCRTD:MSVCR90D.dll
 0001:000862c6       _wcstod                    004872c6 f   MSVCRTD:MSVCR90D.dll
 0001:000862cc       __swprintf                 004872cc f   MSVCRTD:MSVCR90D.dll
 0001:000863e0       _WinMainCRTStartup         004873e0 f   MSVCRTD:crtexew.obj
 0001:00086730       _NtCurrentTeb              00487730 f i MSVCRTD:crtexew.obj
 0001:000867f0       __RTC_NumErrors            004877f0 f   MSVCRTD:_userapi_.obj
 0001:00086800       __RTC_GetErrDesc           00487800 f   MSVCRTD:_userapi_.obj
 0001:00086820       __RTC_SetErrorType         00487820 f   MSVCRTD:_userapi_.obj
 0001:00086850       __RTC_SetErrorFunc         00487850 f   MSVCRTD:_userapi_.obj
 0001:00086870       __RTC_SetErrorFuncW        00487870 f   MSVCRTD:_userapi_.obj
 0001:00086890       ?_RTC_GetErrorFunc@@YAP6AHHPBDH00ZZPBX@Z 00487890 f   MSVCRTD:_userapi_.obj
 0001:000868a0       ?_RTC_GetErrorFuncW@@YAP6AHHPB_WH00ZZPBX@Z 004878a0 f   MSVCRTD:_userapi_.obj
 0001:000868a6       __CRT_RTC_INITW            004878a6 f   MSVCRTD:MSVCR90D.dll
 0001:000868b0       ___report_gsfailure        004878b0 f   MSVCRTD:gs_report.obj
 0001:000869be       __unlock                   004879be f   MSVCRTD:MSVCR90D.dll
 0001:000869c4       ___dllonexit               004879c4 f   MSVCRTD:MSVCR90D.dll
 0001:000869ca       __encode_pointer           004879ca f   MSVCRTD:MSVCR90D.dll
 0001:000869d0       __lock                     004879d0 f   MSVCRTD:MSVCR90D.dll
 0001:000869d6       __decode_pointer           004879d6 f   MSVCRTD:MSVCR90D.dll
 0001:000869dc       ?terminate@@YAXXZ          004879dc f   MSVCRTD:MSVCR90D.dll
 0001:000869f0       ?_RTC_GetSrcLine@@YAHPAEPA_WKPAH1K@Z 004879f0 f   MSVCRTD:_pdblkup_.obj
 0001:00086e86       __except_handler4_common   00487e86 f   MSVCRTD:MSVCR90D.dll
 0001:00086e90       __get_sse2_info            00487e90 f   MSVCRTD:cpu_disp.obj
 0001:00086fc0       ___sse2_available_init     00487fc0 f   MSVCRTD:cpu_disp.obj
 0001:00086fe0       ?__CxxUnhandledExceptionFilter@@YGJPAU_EXCEPTION_POINTERS@@@Z 00487fe0 f   MSVCRTD:unhandld.obj
 0001:00087050       ___CxxSetUnhandledExceptionFilter 00488050 f   MSVCRTD:unhandld.obj
 0001:00087064       __configthreadlocale       00488064 f   MSVCRTD:MSVCR90D.dll
 0001:00087070       __setdefaultprecision      00488070 f   MSVCRTD:fp8.obj
 0001:000870b0       __invoke_watson_if_error   004880b0 f i MSVCRTD:fp8.obj
 0001:000870dc       ___setusermatherr          004880dc f   MSVCRTD:MSVCR90D.dll
 0001:000870f0       __matherr                  004880f0 f   MSVCRTD:merr.obj
 0001:00087100       __setargv                  00488100 f   MSVCRTD:dllargv.obj
 0001:00087110       __RTC_Initialize           00488110 f   MSVCRTD:_initsect_.obj
 0001:00087140       __RTC_Terminate            00488140 f   MSVCRTD:_initsect_.obj
 0001:00087166       ___p__commode              00488166 f   MSVCRTD:MSVCR90D.dll
 0001:0008716c       ___p__fmode                0048816c f   MSVCRTD:MSVCR90D.dll
 0001:00087172       ___set_app_type            00488172 f   MSVCRTD:MSVCR90D.dll
 0001:00087178       __amsg_exit                00488178 f   MSVCRTD:MSVCR90D.dll
 0001:0008717e       ___getmainargs             0048817e f   MSVCRTD:MSVCR90D.dll
 0001:00087190       ___security_init_cookie    00488190 f   MSVCRTD:gs_support.obj
 0001:0008726c       __exit                     0048826c f   MSVCRTD:MSVCR90D.dll
 0001:00087272       __XcptFilter               00488272 f   MSVCRTD:MSVCR90D.dll
 0001:00087278       __cexit                    00488278 f   MSVCRTD:MSVCR90D.dll
 0001:0008727e       __ismbblead                0048827e f   MSVCRTD:MSVCR90D.dll
 0001:00087284       __CrtSetCheckCount         00488284 f   MSVCRTD:MSVCR90D.dll
 0001:00087290       __ValidateImageBase        00488290 f   MSVCRTD:pesect.obj
 0001:000872f0       __FindPESection            004882f0 f   MSVCRTD:pesect.obj
 0001:00087370       __IsNonwritableInCurrentImage 00488370 f   MSVCRTD:pesect.obj
 0001:00087482       __initterm                 00488482 f   MSVCRTD:MSVCR90D.dll
 0001:00087488       __initterm_e               00488488 f   MSVCRTD:MSVCR90D.dll
 0001:0008748e       __crt_debugger_hook        0048848e f   MSVCRTD:MSVCR90D.dll
 0001:00087494       ??1type_info@@UAE@XZ       00488494 f   MSVCRTD:MSVCR90D.dll
 0001:00087494       ?_type_info_dtor_internal_method@type_info@@QAEXXZ 00488494 f   MSVCRTD:MSVCR90D.dll
 0001:0008749a       __controlfp_s              0048849a f   MSVCRTD:MSVCR90D.dll
 0001:000874a0       __invoke_watson            004884a0 f   MSVCRTD:MSVCR90D.dll
 0001:000874b0       ?AtlAdvise@ATL@@YGJPAUIUnknown@@0ABU_GUID@@PAK@Z 004884b0 f   atlsd:atlfuncs.obj
 0001:00087570       ??1?$CComPtr@UIConnectionPointContainer@@@ATL@@QAE@XZ 00488570 f i atlsd:atlfuncs.obj
 0001:00087590       ??1?$CComPtr@UIConnectionPoint@@@ATL@@QAE@XZ 00488590 f i atlsd:atlfuncs.obj
 0001:000875b0       ?AtlUnadvise@ATL@@YGJPAUIUnknown@@ABU_GUID@@K@Z 004885b0 f   atlsd:atlfuncs.obj
 0001:00087670       ?AtlFreeMarshalStream@ATL@@YGJPAUIStream@@@Z 00488670 f   atlsd:atlfuncs.obj
 0001:000876e0       ?AtlMarshalPtrInProc@ATL@@YGJPAUIUnknown@@ABU_GUID@@PAPAUIStream@@@Z 004886e0 f   atlsd:atlfuncs.obj
 0001:00087780       ?AtlUnmarshalPtr@ATL@@YGJPAUIStream@@ABU_GUID@@PAPAUIUnknown@@@Z 00488780 f   atlsd:atlfuncs.obj
 0001:00087820       ?AtlComModuleGetClassObject@ATL@@YGJPAU_ATL_COM_MODULE70@1@ABU_GUID@@1PAPAX@Z 00488820 f   atlsd:atlfuncs.obj
 0001:00087a00       ?AtlComModuleRegisterClassObjects@ATL@@YGJPAU_ATL_COM_MODULE70@1@KK@Z 00488a00 f   atlsd:atlfuncs.obj
 0001:00087aa0       ?AtlComModuleRevokeClassObjects@ATL@@YGJPAU_ATL_COM_MODULE70@1@@Z 00488aa0 f   atlsd:atlfuncs.obj
 0001:00087b30       ?AtlWaitWithMessageLoop@ATL@@YGHPAX@Z 00488b30 f   atlsd:atlfuncs.obj
 0001:00087c30       _InlineIsEqualGUID         00488c30 f i atlsd:atlfuncs.obj
 0001:00087c90       ?AtlInternalQueryInterface@ATL@@YGJPAXPBU_ATL_INTMAP_ENTRY@1@ABU_GUID@@PAPAX@Z 00488c90 f   atlsd:atlfuncs.obj
 0001:00087e60       ?AtlGetVersion@ATL@@YGKPAX@Z 00488e60 f   atlsd:atlfuncs.obj
 0001:00087e70       ?AtlWinModuleAddCreateWndData@ATL@@YGXPAU_ATL_WIN_MODULE70@1@PAU_AtlCreateWndData@1@PAX@Z 00488e70 f   atlsd:atlfuncs.obj
 0001:00087f80       ?AtlWinModuleExtractCreateWndData@ATL@@YGPAXPAU_ATL_WIN_MODULE70@1@@Z 00488f80 f   atlsd:atlfuncs.obj
 0001:000880a0       ?AtlWinModuleInit@ATL@@YGJPAU_ATL_WIN_MODULE70@1@@Z 004890a0 f   atlsd:atlfuncs.obj
 0001:00088140       ?AtlModuleAddTermFunc@ATL@@YGJPAU_ATL_MODULE70@1@P6GXK@ZK@Z 00489140 f   atlsd:atlfuncs.obj
 0001:00088250       ?AtlCallTermFunc@ATL@@YGXPAU_ATL_MODULE70@1@@Z 00489250 f   atlsd:atlfuncs.obj
 0001:000882d0       _CComStdCallThunkHelper@0  004892d0 f   atlsd:atlfuncs.obj
 0001:000882e0       ??0?$CComPtr@UIConnectionPointContainer@@@ATL@@QAE@XZ 004892e0 f i atlsd:atlfuncs.obj
 0001:00088300       ??1?$CComPtrBase@UIConnectionPointContainer@@@ATL@@QAE@XZ 00489300 f i atlsd:atlfuncs.obj
 0001:00088330       ??I?$CComPtrBase@UIConnectionPointContainer@@@ATL@@QAEPAPAUIConnectionPointContainer@@XZ 00489330 f i atlsd:atlfuncs.obj
 0001:00088370       ??C?$CComPtrBase@UIConnectionPointContainer@@@ATL@@QBEPAV?$_NoAddRefReleaseOnCComPtr@UIConnectionPointContainer@@@1@XZ 00489370 f i atlsd:atlfuncs.obj
 0001:000883b0       ??0?$CComPtr@UIConnectionPoint@@@ATL@@QAE@XZ 004893b0 f i atlsd:atlfuncs.obj
 0001:000883d0       ??1?$CComPtrBase@UIConnectionPoint@@@ATL@@QAE@XZ 004893d0 f i atlsd:atlfuncs.obj
 0001:00088400       ??I?$CComPtrBase@UIConnectionPoint@@@ATL@@QAEPAPAUIConnectionPoint@@XZ 00489400 f i atlsd:atlfuncs.obj
 0001:00088440       ??C?$CComPtrBase@UIConnectionPoint@@@ATL@@QBEPAV?$_NoAddRefReleaseOnCComPtr@UIConnectionPoint@@@1@XZ 00489440 f i atlsd:atlfuncs.obj
 0001:00088480       ??0?$CComPtrBase@UIConnectionPointContainer@@@ATL@@IAE@XZ 00489480 f i atlsd:atlfuncs.obj
 0001:000884a0       ??0?$CComPtrBase@UIConnectionPoint@@@ATL@@IAE@XZ 004894a0 f i atlsd:atlfuncs.obj
 0001:000884c0       ??RCTraceFileAndLineInfo@ATL@@QBAXKIPBDZZ 004894c0 f i atlsd:atlfuncs.obj
 0001:00088510       ?TraceV@CTrace@ATL@@QBAXPBDHKI0PAD@Z 00489510 f i atlsd:atlfuncs.obj
 0001:00088540       ?RevokeClassObject@_ATL_OBJMAP_ENTRY30@ATL@@QAGJXZ 00489540 f i atlsd:atlfuncs.obj
 0001:00088570       ?RegisterClassObject@_ATL_OBJMAP_ENTRY30@ATL@@QAGJKK@Z 00489570 f i atlsd:atlfuncs.obj
 0001:000885f0       ?InlineIsEqualUnknown@ATL@@YGHABU_GUID@@@Z 004895f0 f i atlsd:atlfuncs.obj
 0001:00088640       ??0?$CComCritSecLock@VCComCriticalSection@ATL@@@ATL@@QAE@AAVCComCriticalSection@1@_N@Z 00489640 f i atlsd:atlfuncs.obj
 0001:00088690       ??1?$CComCritSecLock@VCComCriticalSection@ATL@@@ATL@@QAE@XZ 00489690 f i atlsd:atlfuncs.obj
 0001:000886b0       ?Lock@?$CComCritSecLock@VCComCriticalSection@ATL@@@ATL@@QAEJXZ 004896b0 f i atlsd:atlfuncs.obj
 0001:00088710       ?Unlock@?$CComCritSecLock@VCComCriticalSection@ATL@@@ATL@@QAEXXZ 00489710 f i atlsd:atlfuncs.obj
 0001:00088770       ??0CAtlBaseModule@ATL@@QAE@XZ 00489770 f   atlsd:atlbase.obj
 0001:00088820       ??0_ATL_BASE_MODULE70@ATL@@QAE@XZ 00489820 f i atlsd:atlbase.obj
 0001:00088850       ??1CAtlBaseModule@ATL@@QAE@XZ 00489850 f   atlsd:atlbase.obj
 0001:00088870       ??1_ATL_BASE_MODULE70@ATL@@QAE@XZ 00489870 f i atlsd:atlbase.obj
 0001:000888a0       ?AddResourceInstance@CAtlBaseModule@ATL@@QAE_NPAUHINSTANCE__@@@Z 004898a0 f   atlsd:atlbase.obj
 0001:00088950       ?RemoveResourceInstance@CAtlBaseModule@ATL@@QAE_NPAUHINSTANCE__@@@Z 00489950 f   atlsd:atlbase.obj
 0001:00088a50       ?GetHInstanceAt@CAtlBaseModule@ATL@@QAEPAUHINSTANCE__@@H@Z 00489a50 f   atlsd:atlbase.obj
 0001:00088b50       ??0?$CSimpleArray@PAUHINSTANCE__@@V?$CSimpleArrayEqualHelper@PAUHINSTANCE__@@@ATL@@@ATL@@QAE@XZ 00489b50 f i atlsd:atlbase.obj
 0001:00088b80       ?GetSize@?$CSimpleArray@PAUHINSTANCE__@@V?$CSimpleArrayEqualHelper@PAUHINSTANCE__@@@ATL@@@ATL@@QBEHXZ 00489b80 f i atlsd:atlbase.obj
 0001:00088ba0       ?Add@?$CSimpleArray@PAUHINSTANCE__@@V?$CSimpleArrayEqualHelper@PAUHINSTANCE__@@@ATL@@@ATL@@QAEHABQAUHINSTANCE__@@@Z 00489ba0 f i atlsd:atlbase.obj
 0001:00088cc0       ?RemoveAt@?$CSimpleArray@PAUHINSTANCE__@@V?$CSimpleArrayEqualHelper@PAUHINSTANCE__@@@ATL@@@ATL@@QAEHH@Z 00489cc0 f i atlsd:atlbase.obj
 0001:00088d80       ??A?$CSimpleArray@PAUHINSTANCE__@@V?$CSimpleArrayEqualHelper@PAUHINSTANCE__@@@ATL@@@ATL@@QAEAAPAUHINSTANCE__@@H@Z 00489d80 f i atlsd:atlbase.obj
 0001:00088df0       ?InternalSetAtIndex@?$CSimpleArray@PAUHINSTANCE__@@V?$CSimpleArrayEqualHelper@PAUHINSTANCE__@@@ATL@@@ATL@@QAEXHABQAUHINSTANCE__@@@Z 00489df0 f i atlsd:atlbase.obj
 0001:00088e40       ??0Wrapper@?$CSimpleArray@PAUHINSTANCE__@@V?$CSimpleArrayEqualHelper@PAUHINSTANCE__@@@ATL@@@ATL@@QAE@ABQAUHINSTANCE__@@@Z 00489e40 f i atlsd:atlbase.obj
 0001:00088e60       ??1?$CSimpleArray@PAUHINSTANCE__@@V?$CSimpleArrayEqualHelper@PAUHINSTANCE__@@@ATL@@@ATL@@QAE@XZ 00489e60 f i atlsd:atlbase.obj
 0001:00088e80       ??$?2PAUHINSTANCE__@@@Wrapper@?$CSimpleArray@PAUHINSTANCE__@@V?$CSimpleArrayEqualHelper@PAUHINSTANCE__@@@ATL@@@ATL@@SAPAXIPAPAUHINSTANCE__@@@Z 00489e80 f i atlsd:atlbase.obj
 0001:00088e90       ?RemoveAll@?$CSimpleArray@PAUHINSTANCE__@@V?$CSimpleArrayEqualHelper@PAUHINSTANCE__@@@ATL@@@ATL@@QAEXXZ 00489e90 f i atlsd:atlbase.obj
 0001:00088f00       ?memmove_s@Checked@ATL@@YAXPAXIPBXI@Z 00489f00 f i atlsd:atlbase.obj
 0001:00088f30       ??0CTraceCategory@ATL@@QAE@PBDI@Z 00489f30 f i atlsd:atltrace.obj
 0001:00088f80       ?ChangeCategory@CTrace@ATL@@QAE_NKIW4ATLTRACESTATUS@2@@Z 00489f80 f i atlsd:atltrace.obj
 0001:00088fb0       ?RegisterCategory@CTrace@ATL@@QAEKPBD@Z 00489fb0 f i atlsd:atltrace.obj
 0001:00088fd0       ??0CAtlAllocator@@QAE@XZ   00489fd0 f i atlsd:Externs.obj
 0001:00089020       ??0CTraceSnapshot@@QAE@XZ  0048a020 f i atlsd:Externs.obj
 0001:00089050       ??0?$CSimpleArray@UCModuleInfo@CTraceSnapshot@@V?$CSimpleArrayEqualHelper@UCModuleInfo@CTraceSnapshot@@@ATL@@@ATL@@QAE@XZ 0048a050 f i atlsd:Externs.obj
 0001:00089080       ??0?$CSimpleArray@KV?$CSimpleArrayEqualHelper@K@ATL@@@ATL@@QAE@XZ 0048a080 f i atlsd:Externs.obj
 0001:000891d0       ??0CTrace@ATL@@AAE@P6AHHPBDH00ZZ@Z 0048a1d0 f i atlsd:Externs.obj
 0001:00089210       ??1CAtlAllocator@@QAE@XZ   0048a210 f i atlsd:Externs.obj
 0001:00089230       ??1CTraceSnapshot@@QAE@XZ  0048a230 f i atlsd:Externs.obj
 0001:00089250       ??1?$CSimpleArray@UCModuleInfo@CTraceSnapshot@@V?$CSimpleArrayEqualHelper@UCModuleInfo@CTraceSnapshot@@@ATL@@@ATL@@QAE@XZ 0048a250 f i atlsd:Externs.obj
 0001:00089270       ??1?$CSimpleArray@KV?$CSimpleArrayEqualHelper@K@ATL@@@ATL@@QAE@XZ 0048a270 f i atlsd:Externs.obj
 0001:00089290       ?RemoveAll@?$CSimpleArray@UCModuleInfo@CTraceSnapshot@@V?$CSimpleArrayEqualHelper@UCModuleInfo@CTraceSnapshot@@@ATL@@@ATL@@QAEXXZ 0048a290 f i atlsd:Externs.obj
 0001:00089300       ?RemoveAll@?$CSimpleArray@KV?$CSimpleArrayEqualHelper@K@ATL@@@ATL@@QAEXXZ 0048a300 f i atlsd:Externs.obj
 0001:00089370       ??1CTrace@ATL@@AAE@XZ      0048a370 f i atlsd:Externs.obj
 0001:00089390       ?NotifyTool@ATL@@YGXXZ     0048a390 f   atlsd:AtlDebugAPI.obj
 0001:000893d0       _AtlTraceRegister@8        0048a3d0 f   atlsd:AtlDebugAPI.obj
 0001:00089450       _AtlTraceUnregister@4      0048a450 f   atlsd:AtlDebugAPI.obj
 0001:00089480       _AtlTraceRegisterCategoryA@8 0048a480 f   atlsd:AtlDebugAPI.obj
 0001:000894d0       _AtlTraceRegisterCategoryU@8 0048a4d0 f   atlsd:AtlDebugAPI.obj
 0001:00089520       _AtlTraceModifyProcess@20  0048a520 f   atlsd:AtlDebugAPI.obj
 0001:000895c0       ?GetProcess@CAtlAllocator@@QBEPAVCAtlTraceProcess@@XZ 0048a5c0 f i atlsd:AtlDebugAPI.obj
 0001:000895e0       _AtlTraceModifyModule@16   0048a5e0 f   atlsd:AtlDebugAPI.obj
 0001:000896c0       _AtlTraceModifyCategory@16 0048a6c0 f   atlsd:AtlDebugAPI.obj
 0001:00089770       _AtlTraceGetProcess@20     0048a770 f   atlsd:AtlDebugAPI.obj
 0001:00089840       _AtlTraceGetModule@16      0048a840 f   atlsd:AtlDebugAPI.obj
 0001:00089950       _AtlTraceGetCategory@16    0048a950 f   atlsd:AtlDebugAPI.obj
 0001:00089a30       _AtlTraceGetUpdateEventNameA@4 0048aa30 f   atlsd:AtlDebugAPI.obj
 0001:00089a60       _AtlTraceGetUpdateEventNameA_s@8 0048aa60 f   atlsd:AtlDebugAPI.obj
 0001:00089a90       _AtlTraceGetUpdateEventNameU@4 0048aa90 f   atlsd:AtlDebugAPI.obj
 0001:00089af0       _AtlTraceGetUpdateEventNameU_s@8 0048aaf0 f   atlsd:AtlDebugAPI.obj
 0001:00089b50       _AtlTraceVA                0048ab50 f   atlsd:AtlDebugAPI.obj
 0001:00089e70       ?Name@CAtlTraceCategory@@QBEPB_WXZ 0048ae70 f i atlsd:AtlDebugAPI.obj
 0001:00089e90       _AtlTraceVU                0048ae90 f   atlsd:AtlDebugAPI.obj
 0001:0008a1e0       _AtlTraceOpenProcess@4     0048b1e0 f   atlsd:AtlDebugAPI.obj
 0001:0008a2e0       ??_GCAtlAllocator@@QAEPAXI@Z 0048b2e0 f i atlsd:AtlDebugAPI.obj
 0001:0008a310       _AtlTraceCloseProcess@4    0048b310 f   atlsd:AtlDebugAPI.obj
 0001:0008a3a0       _AtlTraceSnapshotProcess@4 0048b3a0 f   atlsd:AtlDebugAPI.obj
 0001:0008a410       _AtlTraceGetProcessInfo@8  0048b410 f   atlsd:AtlDebugAPI.obj
 0001:0008a5b0       ?Path@CAtlTraceModuleInfo@@QBEPB_WXZ 0048b5b0 f i atlsd:AtlDebugAPI.obj
 0001:0008a5d0       ?Name@CAtlTraceModuleInfo@@QBEPB_WXZ 0048b5d0 f i atlsd:AtlDebugAPI.obj
 0001:0008a5f0       ?Id@CAtlTraceProcess@@QBEKXZ 0048b5f0 f i atlsd:AtlDebugAPI.obj
 0001:0008a610       _AtlTraceGetModuleInfo@12  0048b610 f   atlsd:AtlDebugAPI.obj
 0001:0008a7b0       _AtlTraceGetCategoryInfo@16 0048b7b0 f   atlsd:AtlDebugAPI.obj
 0001:0008ab30       ?CrtDbgReport@CAtlTraceModule@@QBEP6AHHPBDH00ZZXZ 0048bb30 f i atlsd:AtlDebugAPI.obj
 0001:0008ab50       ?_IsTracingEnabled@ATL@@YA_NKKI@Z 0048bb50 f   atlsd:AtlDebugAPI.obj
 0001:0008ab90       ?GetSize@?$CSimpleArray@UCModuleInfo@CTraceSnapshot@@V?$CSimpleArrayEqualHelper@UCModuleInfo@CTraceSnapshot@@@ATL@@@ATL@@QBEHXZ 0048bb90 f i atlsd:AtlDebugAPI.obj
 0001:0008abb0       ??A?$CSimpleArray@UCModuleInfo@CTraceSnapshot@@V?$CSimpleArrayEqualHelper@UCModuleInfo@CTraceSnapshot@@@ATL@@@ATL@@QAEAAUCModuleInfo@CTraceSnapshot@@H@Z 0048bbb0 f i atlsd:AtlDebugAPI.obj
 0001:0008ac20       ?strcpy_s@Checked@ATL@@YAXPADIPBD@Z 0048bc20 f i atlsd:AtlDebugAPI.obj
 0001:0008ac50       ?wcscpy_s@Checked@ATL@@YAXPA_WIPB_W@Z 0048bc50 f i atlsd:AtlDebugAPI.obj
 0001:0008ac80       ??0?$CA2WEX@$0IA@@ATL@@QAE@PBD@Z 0048bc80 f i atlsd:AtlDebugAPI.obj
 0001:0008acb0       ??1?$CA2WEX@$0IA@@ATL@@QAE@XZ 0048bcb0 f i atlsd:AtlDebugAPI.obj
 0001:0008ace0       ??B?$CA2WEX@$0IA@@ATL@@QBEPA_WXZ 0048bce0 f i atlsd:AtlDebugAPI.obj
 0001:0008ad00       ?Init@?$CA2WEX@$0IA@@ATL@@AAEXPBDI@Z 0048bd00 f i atlsd:AtlDebugAPI.obj
 0001:0008ae00       ?AtlThrowLastWin32@ATL@@YGXXZ 0048be00 f i atlsd:AtlDebugAPI.obj
 0001:0008ae30       ??$AtlConvFreeMemory@_W@ATL@@YAXPA_W0H@Z 0048be30 f i atlsd:AtlDebugAPI.obj
 0001:0008ae70       ??$AtlConvAllocMemory@_W@ATL@@YAXPAPA_WHPA_WH@Z 0048be70 f i atlsd:AtlDebugAPI.obj
 0001:0008afe0       ?Init@CAtlAllocator@@QAE_NPBDK@Z 0048bfe0 f   atlsd:Allocate.obj
 0001:0008b310       ?IncRef@CAtlTraceProcess@@QAEIXZ 0048c310 f i atlsd:Allocate.obj
 0001:0008b340       ?Base@CAtlTraceProcess@@QBEPAXXZ 0048c340 f i atlsd:Allocate.obj
 0001:0008b360       ?Open@CAtlAllocator@@QAE_NPBD@Z 0048c360 f   atlsd:Allocate.obj
 0001:0008b4a0       ?Close@CAtlAllocator@@QAEX_N@Z 0048c4a0 f   atlsd:Allocate.obj
 0001:0008b510       ?DecRef@CAtlTraceProcess@@QAEIXZ 0048c510 f i atlsd:Allocate.obj
 0001:0008b540       ?GetModule@CAtlAllocator@@QBEPAVCAtlTraceModule@@H@Z 0048c540 f   atlsd:Allocate.obj
 0001:0008b5d0       ?ModuleCount@CAtlTraceProcess@@QBEHXZ 0048c5d0 f i atlsd:Allocate.obj
 0001:0008b5f0       ?GetCategory@CAtlAllocator@@QBEPAVCAtlTraceCategory@@H@Z 0048c5f0 f   atlsd:Allocate.obj
 0001:0008b690       ?MaxSize@CAtlTraceProcess@@QBEKXZ 0048c690 f i atlsd:Allocate.obj
 0001:0008b6b0       ?CategoryCount@CAtlTraceProcess@@QBEHXZ 0048c6b0 f i atlsd:Allocate.obj
 0001:0008b6d0       ?GetCategoryCount@CAtlAllocator@@QBEHH@Z 0048c6d0 f   atlsd:Allocate.obj
 0001:0008b740       ?GetCategoryCount@CAtlAllocator@@QBEHABVCAtlTraceModule@@@Z 0048c740 f   atlsd:Allocate.obj
 0001:0008b7a0       ?GetModuleCount@CAtlAllocator@@QBEHXZ 0048c7a0 f   atlsd:Allocate.obj
 0001:0008b7f0       ?FindModule@CAtlAllocator@@QBE_NPB_WPAI@Z 0048c7f0 f   atlsd:Allocate.obj
 0001:0008b860       ?AddModule@CAtlAllocator@@QAEHPAUHINSTANCE__@@@Z 0048c860 f   atlsd:Allocate.obj
 0001:0008ba20       ?TryAllocate@CAtlTraceSettings@@QAE_NXZ 0048ca20 f i atlsd:Allocate.obj
 0001:0008ba60       ?MarkValid@CAtlTraceSettings@@QAEXJ@Z 0048ca60 f i atlsd:Allocate.obj
 0001:0008baa0       ?IncModuleCount@CAtlTraceProcess@@QAEXI@Z 0048caa0 f i atlsd:Allocate.obj
 0001:0008bad0       ?AddCategory@CAtlAllocator@@QAEHHPB_W@Z 0048cad0 f   atlsd:Allocate.obj
 0001:0008bcf0       ?TryAddRef@CAtlTraceSettings@@QAE_NXZ 0048ccf0 f i atlsd:Allocate.obj
 0001:0008bd30       ?Release@CAtlTraceSettings@@QAEXXZ 0048cd30 f i atlsd:Allocate.obj
 0001:0008bd60       ?IncCategoryCount@CAtlTraceProcess@@QAEXI@Z 0048cd60 f i atlsd:Allocate.obj
 0001:0008bd90       ?RemoveModule@CAtlAllocator@@QAE_NH@Z 0048cd90 f   atlsd:Allocate.obj
 0001:0008be30       ?CleanUp@CAtlAllocator@@QAEXXZ 0048ce30 f   atlsd:Allocate.obj
 0001:0008be50       ?TakeSnapshot@CAtlAllocator@@QAEXXZ 0048ce50 f   atlsd:Allocate.obj
 0001:0008c010       ?ReleaseSnapshot@CAtlAllocator@@QAEXXZ 0048d010 f   atlsd:Allocate.obj
 0001:0008c0e0       ?Add@?$CSimpleArray@UCModuleInfo@CTraceSnapshot@@V?$CSimpleArrayEqualHelper@UCModuleInfo@CTraceSnapshot@@@ATL@@@ATL@@QAEHABUCModuleInfo@CTraceSnapshot@@@Z 0048d0e0 f i atlsd:Allocate.obj
 0001:0008c200       ?GetSize@?$CSimpleArray@KV?$CSimpleArrayEqualHelper@K@ATL@@@ATL@@QBEHXZ 0048d200 f i atlsd:Allocate.obj
 0001:0008c220       ?Add@?$CSimpleArray@KV?$CSimpleArrayEqualHelper@K@ATL@@@ATL@@QAEHABK@Z 0048d220 f i atlsd:Allocate.obj
 0001:0008c340       ?RemoveAt@?$CSimpleArray@KV?$CSimpleArrayEqualHelper@K@ATL@@@ATL@@QAEHH@Z 0048d340 f i atlsd:Allocate.obj
 0001:0008c400       ??A?$CSimpleArray@KV?$CSimpleArrayEqualHelper@K@ATL@@@ATL@@QAEAAKH@Z 0048d400 f i atlsd:Allocate.obj
 0001:0008c470       ?InternalSetAtIndex@?$CSimpleArray@UCModuleInfo@CTraceSnapshot@@V?$CSimpleArrayEqualHelper@UCModuleInfo@CTraceSnapshot@@@ATL@@@ATL@@QAEXHABUCModuleInfo@CTraceSnapshot@@@Z 0048d470 f i atlsd:Allocate.obj
 0001:0008c4c0       ?InternalSetAtIndex@?$CSimpleArray@KV?$CSimpleArrayEqualHelper@K@ATL@@@ATL@@QAEXHABK@Z 0048d4c0 f i atlsd:Allocate.obj
 0001:0008c510       ??0Wrapper@?$CSimpleArray@UCModuleInfo@CTraceSnapshot@@V?$CSimpleArrayEqualHelper@UCModuleInfo@CTraceSnapshot@@@ATL@@@ATL@@QAE@ABUCModuleInfo@CTraceSnapshot@@@Z 0048d510 f i atlsd:Allocate.obj
 0001:0008c540       ??0Wrapper@?$CSimpleArray@KV?$CSimpleArrayEqualHelper@K@ATL@@@ATL@@QAE@ABK@Z 0048d540 f i atlsd:Allocate.obj
 0001:0008c560       ??$?2UCModuleInfo@CTraceSnapshot@@@Wrapper@?$CSimpleArray@UCModuleInfo@CTraceSnapshot@@V?$CSimpleArrayEqualHelper@UCModuleInfo@CTraceSnapshot@@@ATL@@@ATL@@SAPAXIPAUCModuleInfo@CTraceSnapshot@@@Z 0048d560 f i atlsd:Allocate.obj
 0001:0008c570       ??$?2K@Wrapper@?$CSimpleArray@KV?$CSimpleArrayEqualHelper@K@ATL@@@ATL@@SAPAXIPAK@Z 0048d570 f i atlsd:Allocate.obj
 0001:0008c580       ??0CAtlTraceModuleInfo@@QAE@XZ 0048d580 f   atlsd:AtlTraceModuleManager.obj
 0001:0008c5d0       ?Reset@CAtlTraceModuleInfo@@QAEXPAUHINSTANCE__@@@Z 0048d5d0 f   atlsd:AtlTraceModuleManager.obj
 0001:0008c710       ??0CAtlTraceCategory@@QAE@XZ 0048d710 f   atlsd:AtlTraceModuleManager.obj
 0001:0008c750       ??0CAtlTraceSettings@@QAE@XZ 0048d750 f i atlsd:AtlTraceModuleManager.obj
 0001:0008c790       ?Reset@CAtlTraceCategory@@QAEXPB_WJ@Z 0048d790 f   atlsd:AtlTraceModuleManager.obj
 0001:0008c7e0       ??0CAtlTraceModule@@QAE@XZ 0048d7e0 f   atlsd:AtlTraceModuleManager.obj
 0001:0008c820       ?CrtDbgReport@CAtlTraceModule@@QAEXP6AHHPBDH00ZZ@Z 0048d820 f   atlsd:AtlTraceModuleManager.obj
 0001:0008c860       ??0CAtlTraceProcess@@QAE@K@Z 0048d860 f   atlsd:AtlTraceModuleManager.obj
 0001:0008c930       ?GetNextCookie@CAtlTraceProcess@@QAEJXZ 0048d930 f   atlsd:AtlTraceModuleManager.obj
 0001:0008c94c       _IsDebuggerPresent@0       0048d94c f   kernel32:KERNEL32.dll
 0001:0008c952       _DebugBreak@0              0048d952 f   kernel32:KERNEL32.dll
 0001:0008c958       _lstrlenA@4                0048d958 f   kernel32:KERNEL32.dll
 0001:0008c95e       _LoadLibraryA@4            0048d95e f   kernel32:KERNEL32.dll
 0001:0008c964       _InterlockedExchange@8     0048d964 f   kernel32:KERNEL32.dll
 0001:0008c96a       _InterlockedCompareExchange@12 0048d96a f   kernel32:KERNEL32.dll
 0001:0008c970       _GetStartupInfoA@4         0048d970 f   kernel32:KERNEL32.dll
 0001:0008c976       _UnhandledExceptionFilter@4 0048d976 f   kernel32:KERNEL32.dll
 0001:0008c97c       _SetUnhandledExceptionFilter@4 0048d97c f   kernel32:KERNEL32.dll
 0001:0008c982       _VirtualQuery@12           0048d982 f   kernel32:KERNEL32.dll
 0001:0008c988       _QueryPerformanceCounter@4 0048d988 f   kernel32:KERNEL32.dll
 0001:0008c98e       _GetTickCount@0            0048d98e f   kernel32:KERNEL32.dll
 0001:0008c994       _GetSystemTimeAsFileTime@4 0048d994 f   kernel32:KERNEL32.dll
 0001:0008c99a       _OpenEventA@12             0048d99a f   kernel32:KERNEL32.dll
 0001:0008c9a0       _GetSystemInfo@4           0048d9a0 f   kernel32:KERNEL32.dll
 0001:0008c9a6       _CreateFileMappingA@24     0048d9a6 f   kernel32:KERNEL32.dll
 0001:0008c9ac       _GetCurrentThread@0        0048d9ac f   kernel32:KERNEL32.dll
 0001:0008c9b2       _OpenFileMappingA@12       0048d9b2 f   kernel32:KERNEL32.dll
 0001:0008c9b8       _DispatchMessageA@4        0048d9b8 f   user32:USER32.dll
 0001:0008c9be       _DispatchMessageW@4        0048d9be f   user32:USER32.dll
 0001:0008c9c4       _TranslateMessage@4        0048d9c4 f   user32:USER32.dll
 0001:0008c9ca       _GetMessageA@16            0048d9ca f   user32:USER32.dll
 0001:0008c9d0       _GetMessageW@16            0048d9d0 f   user32:USER32.dll
 0001:0008c9d6       _IsWindowUnicode@4         0048d9d6 f   user32:USER32.dll
 0001:0008c9dc       _PeekMessageA@20           0048d9dc f   user32:USER32.dll
 0001:0008c9e2       _MsgWaitForMultipleObjects@20 0048d9e2 f   user32:USER32.dll
 0001:0008c9e8       _SetThreadToken@8          0048d9e8 f   advapi32:ADVAPI32.dll
 0001:0008c9ee       _RevertToSelf@0            0048d9ee f   advapi32:ADVAPI32.dll
 0001:0008c9f4       _OpenThreadToken@16        0048d9f4 f   advapi32:ADVAPI32.dll
 0001:0008c9fa       _CoReleaseMarshalData@4    0048d9fa f   ole32:ole32.dll
 0001:0008ca00       _CoMarshalInterface@24     0048da00 f   ole32:ole32.dll
 0001:0008ca06       _CoUnmarshalInterface@12   0048da06 f   ole32:ole32.dll
 0001:0008ca0c       _CoRevokeClassObject@4     0048da0c f   ole32:ole32.dll
 0001:0008ca12       _CoRegisterClassObject@20  0048da12 f   ole32:ole32.dll
 0001:0008ca18       __wcslwr                   0048da18 f   MSVCRTD:MSVCR90D.dll
 0001:0008ca1e       __strlwr                   0048da1e f   MSVCRTD:MSVCR90D.dll
 0001:0008ca24       __itoa                     0048da24 f   MSVCRTD:MSVCR90D.dll
 0001:0008ca2a       __strupr                   0048da2a f   MSVCRTD:MSVCR90D.dll
 0001:0008ca30       __snprintf_s               0048da30 f   MSVCRTD:MSVCR90D.dll
 0001:0008ca36       __errno                    0048da36 f   MSVCRTD:MSVCR90D.dll
 0001:0008ca3c       __CrtDbgReport             0048da3c f   MSVCRTD:MSVCR90D.dll
 0001:0008ca42       __vsnprintf_s              0048da42 f   MSVCRTD:MSVCR90D.dll
 0001:0008ca48       __vsnwprintf_s             0048da48 f   MSVCRTD:MSVCR90D.dll
 0001:0008ca4e       __snwprintf_s              0048da4e f   MSVCRTD:MSVCR90D.dll
 0001:0008ca54       _wcscpy_s                  0048da54 f   MSVCRTD:MSVCR90D.dll
 0001:0008ca5a       _strcpy_s                  0048da5a f   MSVCRTD:MSVCR90D.dll
 0001:0008ca60       _calloc                    0048da60 f   MSVCRTD:MSVCR90D.dll
 0002:00000000       __imp__RegEnumKeyExW@32    00493000     advapi32:ADVAPI32.dll
 0002:00000004       __imp__RegCreateKeyExW@36  00493004     advapi32:ADVAPI32.dll
 0002:00000008       __imp__RegSetValueExW@24   00493008     advapi32:ADVAPI32.dll
 0002:0000000c       __imp__RegDeleteValueW@8   0049300c     advapi32:ADVAPI32.dll
 0002:00000010       __imp__RegDeleteKeyW@8     00493010     advapi32:ADVAPI32.dll
 0002:00000014       __imp__RegCreateKeyW@12    00493014     advapi32:ADVAPI32.dll
 0002:00000018       __imp__RegSetKeySecurity@12 00493018     advapi32:ADVAPI32.dll
 0002:0000001c       __imp__RegQueryInfoKeyW@48 0049301c     advapi32:ADVAPI32.dll
 0002:00000020       __imp__RegEnumKeyW@16      00493020     advapi32:ADVAPI32.dll
 0002:00000024       __imp__GetSidIdentifierAuthority@4 00493024     advapi32:ADVAPI32.dll
 0002:00000028       __imp__GetSidSubAuthorityCount@4 00493028     advapi32:ADVAPI32.dll
 0002:0000002c       __imp__GetSidSubAuthority@8 0049302c     advapi32:ADVAPI32.dll
 0002:00000030       __imp__OpenProcessToken@12 00493030     advapi32:ADVAPI32.dll
 0002:00000034       __imp__GetTokenInformation@20 00493034     advapi32:ADVAPI32.dll
 0002:00000038       __imp__CopySid@12          00493038     advapi32:ADVAPI32.dll
 0002:0000003c       __imp__RegOpenKeyExW@20    0049303c     advapi32:ADVAPI32.dll
 0002:00000040       __imp__RegGetKeySecurity@16 00493040     advapi32:ADVAPI32.dll
 0002:00000044       __imp__AllocateAndInitializeSid@44 00493044     advapi32:ADVAPI32.dll
 0002:00000048       __imp__GetLengthSid@4      00493048     advapi32:ADVAPI32.dll
 0002:0000004c       __imp__AddAce@20           0049304c     advapi32:ADVAPI32.dll
 0002:00000050       __imp__InitializeSecurityDescriptor@8 00493050     advapi32:ADVAPI32.dll
 0002:00000054       __imp__SetSecurityDescriptorDacl@16 00493054     advapi32:ADVAPI32.dll
 0002:00000058       __imp__FreeSid@4           00493058     advapi32:ADVAPI32.dll
 0002:0000005c       __imp__GetUserNameW@8      0049305c     advapi32:ADVAPI32.dll
 0002:00000060       __imp__RegOpenKeyW@12      00493060     advapi32:ADVAPI32.dll
 0002:00000064       __imp__RegEnumValueW@32    00493064     advapi32:ADVAPI32.dll
 0002:00000068       __imp__RegQueryValueExW@24 00493068     advapi32:ADVAPI32.dll
 0002:0000006c       __imp__RegCloseKey@4       0049306c     advapi32:ADVAPI32.dll
 0002:00000070       __imp__SetThreadToken@8    00493070     advapi32:ADVAPI32.dll
 0002:00000074       __imp__RevertToSelf@0      00493074     advapi32:ADVAPI32.dll
 0002:00000078       __imp__OpenThreadToken@16  00493078     advapi32:ADVAPI32.dll
 0002:0000007c       __imp__InitializeAcl@12    0049307c     advapi32:ADVAPI32.dll
 0002:00000080       \177ADVAPI32_NULL_THUNK_DATA 00493080     advapi32:ADVAPI32.dll
 0002:00000084       __imp__InitCommonControlsEx@4 00493084     comctl32:COMCTL32.dll
 0002:00000088       __imp__ImageList_Remove@8  00493088     comctl32:COMCTL32.dll
 0002:0000008c       __imp__ImageList_ReplaceIcon@12 0049308c     comctl32:COMCTL32.dll
 0002:00000090       __imp__PropertySheetW@4    00493090     comctl32:COMCTL32.dll
 0002:00000094       __imp__CreatePropertySheetPageW@4 00493094     comctl32:COMCTL32.dll
 0002:00000098       __imp__InitCommonControls@0 00493098     comctl32:COMCTL32.dll
 0002:0000009c       __imp__ImageList_Add@12    0049309c     comctl32:COMCTL32.dll
 0002:000000a0       __imp__ImageList_Destroy@4 004930a0     comctl32:COMCTL32.dll
 0002:000000a4       __imp__ImageList_Create@20 004930a4     comctl32:COMCTL32.dll
 0002:000000a8       \177COMCTL32_NULL_THUNK_DATA 004930a8     comctl32:COMCTL32.dll
 0002:000000ac       __imp__GetOpenFileNameW@4  004930ac     comdlg32:COMDLG32.dll
 0002:000000b0       \177COMDLG32_NULL_THUNK_DATA 004930b0     comdlg32:COMDLG32.dll
 0002:000000b4       __imp__GetObjectW@12       004930b4     gdi32:GDI32.dll
 0002:000000b8       __imp__SetBkMode@8         004930b8     gdi32:GDI32.dll
 0002:000000bc       __imp__CreateCompatibleBitmap@12 004930bc     gdi32:GDI32.dll
 0002:000000c0       __imp__CreatePen@12        004930c0     gdi32:GDI32.dll
 0002:000000c4       __imp__RestoreDC@8         004930c4     gdi32:GDI32.dll
 0002:000000c8       __imp__CreateCompatibleDC@4 004930c8     gdi32:GDI32.dll
 0002:000000cc       __imp__SetTextColor@8      004930cc     gdi32:GDI32.dll
 0002:000000d0       __imp__CombineRgn@16       004930d0     gdi32:GDI32.dll
 0002:000000d4       __imp__GetPixel@12         004930d4     gdi32:GDI32.dll
 0002:000000d8       __imp__RoundRect@28        004930d8     gdi32:GDI32.dll
 0002:000000dc       __imp__LineTo@12           004930dc     gdi32:GDI32.dll
 0002:000000e0       __imp__MoveToEx@16         004930e0     gdi32:GDI32.dll
 0002:000000e4       __imp__SaveDC@4            004930e4     gdi32:GDI32.dll
 0002:000000e8       __imp__GetDeviceCaps@8     004930e8     gdi32:GDI32.dll
 0002:000000ec       __imp__DeleteDC@4          004930ec     gdi32:GDI32.dll
 0002:000000f0       __imp__DeleteObject@4      004930f0     gdi32:GDI32.dll
 0002:000000f4       __imp__SetBkColor@8        004930f4     gdi32:GDI32.dll
 0002:000000f8       __imp__CreateSolidBrush@4  004930f8     gdi32:GDI32.dll
 0002:000000fc       __imp__CreateFontIndirectW@4 004930fc     gdi32:GDI32.dll
 0002:00000100       __imp__CreateRoundRectRgn@24 00493100     gdi32:GDI32.dll
 0002:00000104       __imp__GetStockObject@4    00493104     gdi32:GDI32.dll
 0002:00000108       __imp__CreateRectRgn@16    00493108     gdi32:GDI32.dll
 0002:0000010c       __imp__SelectClipRgn@8     0049310c     gdi32:GDI32.dll
 0002:00000110       __imp__SelectObject@8      00493110     gdi32:GDI32.dll
 0002:00000114       __imp__BitBlt@36           00493114     gdi32:GDI32.dll
 0002:00000118       \177GDI32_NULL_THUNK_DATA  00493118     gdi32:GDI32.dll
 0002:0000011c       __imp__GetHidedProcessCount 0049311c     hooklib:HOOKLIB.dll
 0002:00000120       __imp__GetHidedProcessByIdx 00493120     hooklib:HOOKLIB.dll
 0002:00000124       __imp__ReadTrayIcon_dll    00493124     hooklib:HOOKLIB.dll
 0002:00000128       __imp__RestoreVolume       00493128     hooklib:HOOKLIB.dll
 0002:0000012c       __imp__SetParameter        0049312c     hooklib:HOOKLIB.dll
 0002:00000130       __imp__hMouseHook          00493130     hooklib:HOOKLIB.dll
 0002:00000134       __imp__iBaSW_QH            00493134     hooklib:HOOKLIB.dll
 0002:00000138       __imp__GetHidedProcessName 00493138     hooklib:HOOKLIB.dll
 0002:0000013c       __imp__SetTrayHook         0049313c     hooklib:HOOKLIB.dll
 0002:00000140       __imp__hTrayWnd_dll        00493140     hooklib:HOOKLIB.dll
 0002:00000144       __imp__hCurWnd             00493144     hooklib:HOOKLIB.dll
 0002:00000148       __imp__hLV                 00493148     hooklib:HOOKLIB.dll
 0002:0000014c       __imp__hAll                0049314c     hooklib:HOOKLIB.dll
 0002:00000150       __imp__SetMouseHook        00493150     hooklib:HOOKLIB.dll
 0002:00000154       __imp__HideProcess         00493154     hooklib:HOOKLIB.dll
 0002:00000158       __imp__ReserveWnds         00493158     hooklib:HOOKLIB.dll
 0002:0000015c       __imp__MyHideWindows       0049315c     hooklib:HOOKLIB.dll
 0002:00000160       __imp__ShowProcess         00493160     hooklib:HOOKLIB.dll
 0002:00000164       __imp__RestoreAllWindows   00493164     hooklib:HOOKLIB.dll
 0002:00000168       \177HOOKLIB_NULL_THUNK_DATA 00493168     hooklib:HOOKLIB.dll
 0002:0000016c       __imp__lstrlenW@4          0049316c     kernel32:KERNEL32.dll
 0002:00000170       __imp__GetCurrentThread@0  00493170     kernel32:KERNEL32.dll
 0002:00000174       __imp__CreateFileMappingA@24 00493174     kernel32:KERNEL32.dll
 0002:00000178       __imp__GetSystemInfo@4     00493178     kernel32:KERNEL32.dll
 0002:0000017c       __imp__OpenEventA@12       0049317c     kernel32:KERNEL32.dll
 0002:00000180       __imp__GetSystemTimeAsFileTime@4 00493180     kernel32:KERNEL32.dll
 0002:00000184       __imp__CloseHandle@4       00493184     kernel32:KERNEL32.dll
 0002:00000188       __imp__CreateThread@24     00493188     kernel32:KERNEL32.dll
 0002:0000018c       __imp__GetLastError@0      0049318c     kernel32:KERNEL32.dll
 0002:00000190       __imp__OutputDebugStringW@4 00493190     kernel32:KERNEL32.dll
 0002:00000194       __imp__WritePrivateProfileStringW@16 00493194     kernel32:KERNEL32.dll
 0002:00000198       __imp__DeleteFileW@4       00493198     kernel32:KERNEL32.dll
 0002:0000019c       __imp__GetWindowsDirectoryW@8 0049319c     kernel32:KERNEL32.dll
 0002:000001a0       __imp__GetTempPathW@8      004931a0     kernel32:KERNEL32.dll
 0002:000001a4       __imp__FindClose@4         004931a4     kernel32:KERNEL32.dll
 0002:000001a8       __imp__RemoveDirectoryW@4  004931a8     kernel32:KERNEL32.dll
 0002:000001ac       __imp__SetFileAttributesW@8 004931ac     kernel32:KERNEL32.dll
 0002:000001b0       __imp__GetFileAttributesW@4 004931b0     kernel32:KERNEL32.dll
 0002:000001b4       __imp__FindNextFileW@8     004931b4     kernel32:KERNEL32.dll
 0002:000001b8       __imp__FindFirstFileW@8    004931b8     kernel32:KERNEL32.dll
 0002:000001bc       __imp__GetVersionExW@4     004931bc     kernel32:KERNEL32.dll
 0002:000001c0       __imp__HeapFree@12         004931c0     kernel32:KERNEL32.dll
 0002:000001c4       __imp__GetProcessHeap@0    004931c4     kernel32:KERNEL32.dll
 0002:000001c8       __imp__HeapAlloc@12        004931c8     kernel32:KERNEL32.dll
 0002:000001cc       __imp__GetCurrentProcess@0 004931cc     kernel32:KERNEL32.dll
 0002:000001d0       __imp__GlobalFree@4        004931d0     kernel32:KERNEL32.dll
 0002:000001d4       __imp__GlobalAlloc@8       004931d4     kernel32:KERNEL32.dll
 0002:000001d8       __imp__OutputDebugStringA@4 004931d8     kernel32:KERNEL32.dll
 0002:000001dc       __imp__GetModuleFileNameA@12 004931dc     kernel32:KERNEL32.dll
 0002:000001e0       __imp__WideCharToMultiByte@32 004931e0     kernel32:KERNEL32.dll
 0002:000001e4       __imp__MultiByteToWideChar@24 004931e4     kernel32:KERNEL32.dll
 0002:000001e8       __imp__VirtualFree@12      004931e8     kernel32:KERNEL32.dll
 0002:000001ec       __imp__ReadFile@20         004931ec     kernel32:KERNEL32.dll
 0002:000001f0       __imp__VirtualAlloc@16     004931f0     kernel32:KERNEL32.dll
 0002:000001f4       __imp__GetFileSize@8       004931f4     kernel32:KERNEL32.dll
 0002:000001f8       __imp__CreateFileW@28      004931f8     kernel32:KERNEL32.dll
 0002:000001fc       __imp__GetCurrentThreadId@0 004931fc     kernel32:KERNEL32.dll
 0002:00000200       __imp__GetVolumeInformationW@32 00493200     kernel32:KERNEL32.dll
 0002:00000204       __imp__CopyFileW@12        00493204     kernel32:KERNEL32.dll
 0002:00000208       __imp__CreateDirectoryW@8  00493208     kernel32:KERNEL32.dll
 0002:0000020c       __imp__GetModuleFileNameW@12 0049320c     kernel32:KERNEL32.dll
 0002:00000210       __imp__GetSystemTime@4     00493210     kernel32:KERNEL32.dll
 0002:00000214       __imp__GlobalAddAtomW@4    00493214     kernel32:KERNEL32.dll
 0002:00000218       __imp__InitializeCriticalSection@4 00493218     kernel32:KERNEL32.dll
 0002:0000021c       __imp__IsBadReadPtr@8      0049321c     kernel32:KERNEL32.dll
 0002:00000220       __imp__Process32NextW@8    00493220     kernel32:KERNEL32.dll
 0002:00000224       __imp__Process32FirstW@8   00493224     kernel32:KERNEL32.dll
 0002:00000228       __imp__CreateToolhelp32Snapshot@8 00493228     kernel32:KERNEL32.dll
 0002:0000022c       __imp__GetCurrentProcessId@0 0049322c     kernel32:KERNEL32.dll
 0002:00000230       __imp__LeaveCriticalSection@4 00493230     kernel32:KERNEL32.dll
 0002:00000234       __imp__EnterCriticalSection@4 00493234     kernel32:KERNEL32.dll
 0002:00000238       __imp__GlobalDeleteAtom@4  00493238     kernel32:KERNEL32.dll
 0002:0000023c       __imp__SetLastError@4      0049323c     kernel32:KERNEL32.dll
 0002:00000240       __imp__GlobalFindAtomW@4   00493240     kernel32:KERNEL32.dll
 0002:00000244       __imp__LoadLibraryW@4      00493244     kernel32:KERNEL32.dll
 0002:00000248       __imp__SetCurrentDirectoryW@4 00493248     kernel32:KERNEL32.dll
 0002:0000024c       __imp__WriteFile@20        0049324c     kernel32:KERNEL32.dll
 0002:00000250       __imp__TerminateThread@8   00493250     kernel32:KERNEL32.dll
 0002:00000254       __imp__DeleteCriticalSection@4 00493254     kernel32:KERNEL32.dll
 0002:00000258       __imp__InterlockedIncrement@4 00493258     kernel32:KERNEL32.dll
 0002:0000025c       __imp__InterlockedDecrement@4 0049325c     kernel32:KERNEL32.dll
 0002:00000260       __imp__GetExitCodeThread@8 00493260     kernel32:KERNEL32.dll
 0002:00000264       __imp__Sleep@4             00493264     kernel32:KERNEL32.dll
 0002:00000268       __imp__TerminateProcess@8  00493268     kernel32:KERNEL32.dll
 0002:0000026c       __imp__OpenProcess@12      0049326c     kernel32:KERNEL32.dll
 0002:00000270       __imp__VirtualFreeEx@16    00493270     kernel32:KERNEL32.dll
 0002:00000274       __imp__ReadProcessMemory@20 00493274     kernel32:KERNEL32.dll
 0002:00000278       __imp__VirtualAllocEx@20   00493278     kernel32:KERNEL32.dll
 0002:0000027c       __imp__GetModuleHandleW@4  0049327c     kernel32:KERNEL32.dll
 0002:00000280       __imp__GetTickCount@0      00493280     kernel32:KERNEL32.dll
 0002:00000284       __imp__FreeLibrary@4       00493284     kernel32:KERNEL32.dll
 0002:00000288       __imp__SizeofResource@8    00493288     kernel32:KERNEL32.dll
 0002:0000028c       __imp__LoadResource@8      0049328c     kernel32:KERNEL32.dll
 0002:00000290       __imp__FindResourceW@12    00493290     kernel32:KERNEL32.dll
 0002:00000294       __imp__LoadLibraryExW@12   00493294     kernel32:KERNEL32.dll
 0002:00000298       __imp__lstrcmpiW@8         00493298     kernel32:KERNEL32.dll
 0002:0000029c       __imp__GetProcAddress@8    0049329c     kernel32:KERNEL32.dll
 0002:000002a0       __imp__RaiseException@16   004932a0     kernel32:KERNEL32.dll
 0002:000002a4       __imp__SetFilePointer@16   004932a4     kernel32:KERNEL32.dll
 0002:000002a8       __imp__SetEndOfFile@4      004932a8     kernel32:KERNEL32.dll
 0002:000002ac       __imp__GetSystemDefaultLangID@0 004932ac     kernel32:KERNEL32.dll
 0002:000002b0       __imp__GetPrivateProfileStringW@24 004932b0     kernel32:KERNEL32.dll
 0002:000002b4       __imp__LocalFree@4         004932b4     kernel32:KERNEL32.dll
 0002:000002b8       __imp__LocalUnlock@4       004932b8     kernel32:KERNEL32.dll
 0002:000002bc       __imp__LocalLock@4         004932bc     kernel32:KERNEL32.dll
 0002:000002c0       __imp__LocalAlloc@8        004932c0     kernel32:KERNEL32.dll
 0002:000002c4       __imp__GetSystemDirectoryW@8 004932c4     kernel32:KERNEL32.dll
 0002:000002c8       __imp__UnmapViewOfFile@4   004932c8     kernel32:KERNEL32.dll
 0002:000002cc       __imp__MapViewOfFile@20    004932cc     kernel32:KERNEL32.dll
 0002:000002d0       __imp__OpenFileMappingW@12 004932d0     kernel32:KERNEL32.dll
 0002:000002d4       __imp__CreateEventW@16     004932d4     kernel32:KERNEL32.dll
 0002:000002d8       __imp__FlushInstructionCache@12 004932d8     kernel32:KERNEL32.dll
 0002:000002dc       __imp__MulDiv@12           004932dc     kernel32:KERNEL32.dll
 0002:000002e0       __imp__GlobalUnlock@4      004932e0     kernel32:KERNEL32.dll
 0002:000002e4       __imp__GlobalLock@4        004932e4     kernel32:KERNEL32.dll
 0002:000002e8       __imp__LockResource@4      004932e8     kernel32:KERNEL32.dll
 0002:000002ec       __imp__FreeResource@4      004932ec     kernel32:KERNEL32.dll
 0002:000002f0       __imp__ResumeThread@4      004932f0     kernel32:KERNEL32.dll
 0002:000002f4       __imp__WaitForSingleObject@8 004932f4     kernel32:KERNEL32.dll
 0002:000002f8       __imp__ResetEvent@4        004932f8     kernel32:KERNEL32.dll
 0002:000002fc       __imp__SetEvent@4          004932fc     kernel32:KERNEL32.dll
 0002:00000300       __imp__CreateFileMappingW@24 00493300     kernel32:KERNEL32.dll
 0002:00000304       __imp__CreateDirectoryA@8  00493304     kernel32:KERNEL32.dll
 0002:00000308       __imp__QueryPerformanceCounter@4 00493308     kernel32:KERNEL32.dll
 0002:0000030c       __imp__VirtualQuery@12     0049330c     kernel32:KERNEL32.dll
 0002:00000310       __imp__SetUnhandledExceptionFilter@4 00493310     kernel32:KERNEL32.dll
 0002:00000314       __imp__UnhandledExceptionFilter@4 00493314     kernel32:KERNEL32.dll
 0002:00000318       __imp__OpenFileMappingA@12 00493318     kernel32:KERNEL32.dll
 0002:0000031c       __imp__GetStartupInfoA@4   0049331c     kernel32:KERNEL32.dll
 0002:00000320       __imp__InterlockedCompareExchange@12 00493320     kernel32:KERNEL32.dll
 0002:00000324       __imp__InterlockedExchange@8 00493324     kernel32:KERNEL32.dll
 0002:00000328       __imp__LoadLibraryA@4      00493328     kernel32:KERNEL32.dll
 0002:0000032c       __imp__lstrlenA@4          0049332c     kernel32:KERNEL32.dll
 0002:00000330       __imp__DebugBreak@0        00493330     kernel32:KERNEL32.dll
 0002:00000334       __imp__IsDebuggerPresent@0 00493334     kernel32:KERNEL32.dll
 0002:00000338       \177KERNEL32_NULL_THUNK_DATA 00493338     kernel32:KERNEL32.dll
 0002:0000033c       __imp_??1?$basic_string@DU?$char_traits@D@std@@V?$allocator@D@2@@std@@QAE@XZ 0049333c     msvcprtd:MSVCP90D.dll
 0002:00000340       __imp_??0_Lockit@std@@QAE@H@Z 00493340     msvcprtd:MSVCP90D.dll
 0002:00000344       __imp_?_Debug_message@std@@YAXPB_W0I@Z 00493344     msvcprtd:MSVCP90D.dll
 0002:00000348       __imp_??1_Container_base_secure@std@@QAE@XZ 00493348     msvcprtd:MSVCP90D.dll
 0002:0000034c       __imp_??0?$basic_string@DU?$char_traits@D@std@@V?$allocator@D@2@@std@@QAE@PBD@Z 0049334c     msvcprtd:MSVCP90D.dll
 0002:00000350       __imp_??0?$basic_string@DU?$char_traits@D@std@@V?$allocator@D@2@@std@@QAE@ABV01@@Z 00493350     msvcprtd:MSVCP90D.dll
 0002:00000354       __imp_?c_str@?$basic_string@DU?$char_traits@D@std@@V?$allocator@D@2@@std@@QBEPBDXZ 00493354     msvcprtd:MSVCP90D.dll
 0002:00000358       __imp_??0_Container_base_secure@std@@QAE@XZ 00493358     msvcprtd:MSVCP90D.dll
 0002:0000035c       __imp_?_Orphan_all@_Container_base_secure@std@@QBEXXZ 0049335c     msvcprtd:MSVCP90D.dll
 0002:00000360       __imp_??1_Lockit@std@@QAE@XZ 00493360     msvcprtd:MSVCP90D.dll
 0002:00000364       \177MSVCP90D_NULL_THUNK_DATA 00493364     msvcprtd:MSVCP90D.dll
 0002:00000368       __imp__wcstol              00493368     MSVCRTD:MSVCR90D.dll
 0002:0000036c       __imp__strstr              0049336c     MSVCRTD:MSVCR90D.dll
 0002:00000370       __imp__wcsrchr             00493370     MSVCRTD:MSVCR90D.dll
 0002:00000374       __imp__atol                00493374     MSVCRTD:MSVCR90D.dll
 0002:00000378       __imp__wcschr              00493378     MSVCRTD:MSVCR90D.dll
 0002:0000037c       __imp__exit                0049337c     MSVCRTD:MSVCR90D.dll
 0002:00000380       __imp___CrtDumpMemoryLeaks 00493380     MSVCRTD:MSVCR90D.dll
 0002:00000384       __imp___wcsnicmp           00493384     MSVCRTD:MSVCR90D.dll
 0002:00000388       __imp___beginthreadex      00493388     MSVCRTD:MSVCR90D.dll
 0002:0000038c       __imp_??2@YAPAXI@Z         0049338c     MSVCRTD:MSVCR90D.dll
 0002:00000390       __imp__strcpy              00493390     MSVCRTD:MSVCR90D.dll
 0002:00000394       __imp__strcat              00493394     MSVCRTD:MSVCR90D.dll
 0002:00000398       __imp__memcmp              00493398     MSVCRTD:MSVCR90D.dll
 0002:0000039c       __imp___CrtDbgReportW      0049339c     MSVCRTD:MSVCR90D.dll
 0002:000003a0       __imp__sprintf             004933a0     MSVCRTD:MSVCR90D.dll
 0002:000003a4       __imp__atof                004933a4     MSVCRTD:MSVCR90D.dll
 0002:000003a8       __imp___invalid_parameter  004933a8     MSVCRTD:MSVCR90D.dll
 0002:000003ac       __imp__strcmp              004933ac     MSVCRTD:MSVCR90D.dll
 0002:000003b0       __imp____CxxFrameHandler3  004933b0     MSVCRTD:MSVCR90D.dll
 0002:000003b4       __imp__free                004933b4     MSVCRTD:MSVCR90D.dll
 0002:000003b8       __imp___CxxThrowException@8 004933b8     MSVCRTD:MSVCR90D.dll
 0002:000003bc       __imp__strlen              004933bc     MSVCRTD:MSVCR90D.dll
 0002:000003c0       __imp__malloc              004933c0     MSVCRTD:MSVCR90D.dll
 0002:000003c4       __imp_??_V@YAXPAX@Z        004933c4     MSVCRTD:MSVCR90D.dll
 0002:000003c8       __imp___vswprintf          004933c8     MSVCRTD:MSVCR90D.dll
 0002:000003cc       __imp__memcpy              004933cc     MSVCRTD:MSVCR90D.dll
 0002:000003d0       __imp_??3@YAXPAX@Z         004933d0     MSVCRTD:MSVCR90D.dll
 0002:000003d4       __imp___wcsicmp            004933d4     MSVCRTD:MSVCR90D.dll
 0002:000003d8       __imp__wcscat              004933d8     MSVCRTD:MSVCR90D.dll
 0002:000003dc       __imp__wcscpy              004933dc     MSVCRTD:MSVCR90D.dll
 0002:000003e0       __imp__wcslen              004933e0     MSVCRTD:MSVCR90D.dll
 0002:000003e4       __imp__memset              004933e4     MSVCRTD:MSVCR90D.dll
 0002:000003e8       __imp__wcscmp              004933e8     MSVCRTD:MSVCR90D.dll
 0002:000003ec       __imp__memcpy_s            004933ec     MSVCRTD:MSVCR90D.dll
 0002:000003f0       __imp__wcsstr              004933f0     MSVCRTD:MSVCR90D.dll
 0002:000003f4       __imp__wcsncpy_s           004933f4     MSVCRTD:MSVCR90D.dll
 0002:000003f8       __imp___recalloc           004933f8     MSVCRTD:MSVCR90D.dll
 0002:000003fc       __imp__abs                 004933fc     MSVCRTD:MSVCR90D.dll
 0002:00000400       __imp__ltoa                00493400     MSVCRTD:MSVCR90D.dll
 0002:00000400       __imp___ltoa               00493400     MSVCRTD:MSVCR90D.dll
 0002:00000404       __imp__rand                00493404     MSVCRTD:MSVCR90D.dll
 0002:00000408       __imp___itow               00493408     MSVCRTD:MSVCR90D.dll
 0002:0000040c       __imp___wtoi               0049340c     MSVCRTD:MSVCR90D.dll
 0002:00000410       __imp___wcsupr             00493410     MSVCRTD:MSVCR90D.dll
 0002:00000414       __imp__atoi                00493414     MSVCRTD:MSVCR90D.dll
 0002:00000418       __imp___encode_pointer     00493418     MSVCRTD:MSVCR90D.dll
 0002:0000041c       __imp___lock               0049341c     MSVCRTD:MSVCR90D.dll
 0002:00000420       __imp___onexit             00493420     MSVCRTD:MSVCR90D.dll
 0002:00000424       __imp___decode_pointer     00493424     MSVCRTD:MSVCR90D.dll
 0002:00000428       __imp_?terminate@@YAXXZ    00493428     MSVCRTD:MSVCR90D.dll
 0002:0000042c       __imp___except_handler4_common 0049342c     MSVCRTD:MSVCR90D.dll
 0002:00000430       __imp___configthreadlocale 00493430     MSVCRTD:MSVCR90D.dll
 0002:00000434       __imp____setusermatherr    00493434     MSVCRTD:MSVCR90D.dll
 0002:00000438       __imp___adjust_fdiv        00493438     MSVCRTD:MSVCR90D.dll
 0002:0000043c       __imp____p__commode        0049343c     MSVCRTD:MSVCR90D.dll
 0002:00000440       __imp____p__fmode          00493440     MSVCRTD:MSVCR90D.dll
 0002:00000444       __imp____set_app_type      00493444     MSVCRTD:MSVCR90D.dll
 0002:00000448       __imp__calloc              00493448     MSVCRTD:MSVCR90D.dll
 0002:0000044c       __imp___amsg_exit          0049344c     MSVCRTD:MSVCR90D.dll
 0002:00000450       __imp____getmainargs       00493450     MSVCRTD:MSVCR90D.dll
 0002:00000454       __imp___exit               00493454     MSVCRTD:MSVCR90D.dll
 0002:00000458       __imp___XcptFilter         00493458     MSVCRTD:MSVCR90D.dll
 0002:0000045c       __imp___cexit              0049345c     MSVCRTD:MSVCR90D.dll
 0002:00000460       __imp___ismbblead          00493460     MSVCRTD:MSVCR90D.dll
 0002:00000464       __imp___acmdln             00493464     MSVCRTD:MSVCR90D.dll
 0002:00000468       __imp___CrtSetCheckCount   00493468     MSVCRTD:MSVCR90D.dll
 0002:0000046c       __imp___initterm           0049346c     MSVCRTD:MSVCR90D.dll
 0002:00000470       __imp___initterm_e         00493470     MSVCRTD:MSVCR90D.dll
 0002:00000474       __imp___crt_debugger_hook  00493474     MSVCRTD:MSVCR90D.dll
 0002:00000478       __imp_?_type_info_dtor_internal_method@type_info@@QAEXXZ 00493478     MSVCRTD:MSVCR90D.dll
 0002:0000047c       __imp___controlfp_s        0049347c     MSVCRTD:MSVCR90D.dll
 0002:00000480       __imp___invoke_watson      00493480     MSVCRTD:MSVCR90D.dll
 0002:00000484       __imp__srand               00493484     MSVCRTD:MSVCR90D.dll
 0002:00000488       __imp___time64             00493488     MSVCRTD:MSVCR90D.dll
 0002:0000048c       __imp_??0exception@std@@QAE@ABV01@@Z 0049348c     MSVCRTD:MSVCR90D.dll
 0002:00000490       __imp_??1exception@std@@UAE@XZ 00493490     MSVCRTD:MSVCR90D.dll
 0002:00000494       __imp_??0exception@std@@QAE@XZ 00493494     MSVCRTD:MSVCR90D.dll
 0002:00000498       __imp_??0exception@std@@QAE@ABQBD@Z 00493498     MSVCRTD:MSVCR90D.dll
 0002:0000049c       __imp_?what@exception@std@@UBEPBDXZ 0049349c     MSVCRTD:MSVCR90D.dll
 0002:000004a0       __imp___wassert            004934a0     MSVCRTD:MSVCR90D.dll
 0002:000004a4       __imp__fclose              004934a4     MSVCRTD:MSVCR90D.dll
 0002:000004a8       __imp__fread               004934a8     MSVCRTD:MSVCR90D.dll
 0002:000004ac       __imp__ftell               004934ac     MSVCRTD:MSVCR90D.dll
 0002:000004b0       __imp____dllonexit         004934b0     MSVCRTD:MSVCR90D.dll
 0002:000004b4       __imp__fseek               004934b4     MSVCRTD:MSVCR90D.dll
 0002:000004b8       __imp___wfopen             004934b8     MSVCRTD:MSVCR90D.dll
 0002:000004bc       __imp__wcstod              004934bc     MSVCRTD:MSVCR90D.dll
 0002:000004c0       __imp___swprintf           004934c0     MSVCRTD:MSVCR90D.dll
 0002:000004c4       __imp___CRT_RTC_INITW      004934c4     MSVCRTD:MSVCR90D.dll
 0002:000004c8       __imp__memmove_s           004934c8     MSVCRTD:MSVCR90D.dll
 0002:000004cc       __imp___wcslwr             004934cc     MSVCRTD:MSVCR90D.dll
 0002:000004cc       __imp__wcslwr              004934cc     MSVCRTD:MSVCR90D.dll
 0002:000004d0       __imp__strlwr              004934d0     MSVCRTD:MSVCR90D.dll
 0002:000004d0       __imp___strlwr             004934d0     MSVCRTD:MSVCR90D.dll
 0002:000004d4       __imp__itoa                004934d4     MSVCRTD:MSVCR90D.dll
 0002:000004d4       __imp___itoa               004934d4     MSVCRTD:MSVCR90D.dll
 0002:000004d8       __imp___strupr             004934d8     MSVCRTD:MSVCR90D.dll
 0002:000004d8       __imp__strupr              004934d8     MSVCRTD:MSVCR90D.dll
 0002:000004dc       __imp___snprintf_s         004934dc     MSVCRTD:MSVCR90D.dll
 0002:000004e0       __imp___errno              004934e0     MSVCRTD:MSVCR90D.dll
 0002:000004e4       __imp___CrtDbgReport       004934e4     MSVCRTD:MSVCR90D.dll
 0002:000004e8       __imp___vsnprintf_s        004934e8     MSVCRTD:MSVCR90D.dll
 0002:000004ec       __imp___vsnwprintf_s       004934ec     MSVCRTD:MSVCR90D.dll
 0002:000004f0       __imp___snwprintf_s        004934f0     MSVCRTD:MSVCR90D.dll
 0002:000004f4       __imp__wcscpy_s            004934f4     MSVCRTD:MSVCR90D.dll
 0002:000004f8       __imp__strcpy_s            004934f8     MSVCRTD:MSVCR90D.dll
 0002:000004fc       __imp___unlock             004934fc     MSVCRTD:MSVCR90D.dll
 0002:00000500       \177MSVCR90D_NULL_THUNK_DATA 00493500     MSVCRTD:MSVCR90D.dll
 0002:00000504       __imp__VariantInit@4       00493504     oleaut32:OLEAUT32.dll
 0002:00000508       __imp__SafeArrayAccessData@8 00493508     oleaut32:OLEAUT32.dll
 0002:0000050c       __imp__OleLoadPicture@20   0049350c     oleaut32:OLEAUT32.dll
 0002:00000510       __imp__VarUI4FromStr@16    00493510     oleaut32:OLEAUT32.dll
 0002:00000514       __imp__SysFreeString@4     00493514     oleaut32:OLEAUT32.dll
 0002:00000518       __imp__SafeArrayDestroy@4  00493518     oleaut32:OLEAUT32.dll
 0002:0000051c       __imp__SysAllocString@4    0049351c     oleaut32:OLEAUT32.dll
 0002:00000520       __imp__VariantClear@4      00493520     oleaut32:OLEAUT32.dll
 0002:00000524       __imp__SafeArrayCreate@12  00493524     oleaut32:OLEAUT32.dll
 0002:00000528       \177OLEAUT32_NULL_THUNK_DATA 00493528     oleaut32:OLEAUT32.dll
 0002:0000052c       __imp__RasEnumEntriesA@20  0049352c     Rasapi32:RASAPI32.dll
 0002:00000530       \177RASAPI32_NULL_THUNK_DATA 00493530     Rasapi32:RASAPI32.dll
 0002:00000534       __imp__SHFileOperationW@4  00493534     shell32:SHELL32.dll
 0002:00000538       __imp__ShellExecuteW@24    00493538     shell32:SHELL32.dll
 0002:0000053c       __imp__Shell_NotifyIconW@8 0049353c     shell32:SHELL32.dll
 0002:00000540       __imp__SHGetPathFromIDListW@8 00493540     shell32:SHELL32.dll
 0002:00000544       __imp__SHGetSpecialFolderPathA@16 00493544     shell32:SHELL32.dll
 0002:00000548       __imp__SHGetSpecialFolderPathW@16 00493548     shell32:SHELL32.dll
 0002:0000054c       __imp__SHGetMalloc@4       0049354c     shell32:SHELL32.dll
 0002:00000550       __imp__SHGetSpecialFolderLocation@12 00493550     shell32:SHELL32.dll
 0002:00000554       \177SHELL32_NULL_THUNK_DATA 00493554     shell32:SHELL32.dll
 0002:00000558       __imp__PathRemoveFileSpecA@4 00493558     shlwapi:SHLWAPI.dll
 0002:0000055c       __imp__PathRemoveFileSpecW@4 0049355c     shlwapi:SHLWAPI.dll
 0002:00000560       __imp__SHDeleteKeyW@8      00493560     shlwapi:SHLWAPI.dll
 0002:00000564       __imp__PathFileExistsW@4   00493564     shlwapi:SHLWAPI.dll
 0002:00000568       \177SHLWAPI_NULL_THUNK_DATA 00493568     shlwapi:SHLWAPI.dll
 0002:0000056c       __imp__EnumChildWindows@12 0049356c     user32:USER32.dll
 0002:00000570       __imp__DrawIconEx@36       00493570     user32:USER32.dll
 0002:00000574       __imp__GetSystemMetrics@4  00493574     user32:USER32.dll
 0002:00000578       __imp__LoadBitmapW@8       00493578     user32:USER32.dll
 0002:0000057c       __imp__CharNextW@4         0049357c     user32:USER32.dll
 0002:00000580       __imp__GetIconInfo@8       00493580     user32:USER32.dll
 0002:00000584       __imp__FindWindowW@8       00493584     user32:USER32.dll
 0002:00000588       __imp__FindWindowExW@16    00493588     user32:USER32.dll
 0002:0000058c       __imp__UnhookWindowsHookEx@4 0049358c     user32:USER32.dll
 0002:00000590       __imp__GetDlgItemTextW@16  00493590     user32:USER32.dll
 0002:00000594       __imp__DrawMenuBar@4       00493594     user32:USER32.dll
 0002:00000598       __imp__CheckRadioButton@16 00493598     user32:USER32.dll
 0002:0000059c       __imp__SetDlgItemInt@16    0049359c     user32:USER32.dll
 0002:000005a0       __imp__UnregisterHotKey@8  004935a0     user32:USER32.dll
 0002:000005a4       __imp__GetWindowTextW@12   004935a4     user32:USER32.dll
 0002:000005a8       __imp__SendMessageTimeoutW@28 004935a8     user32:USER32.dll
 0002:000005ac       __imp__GetClassLongW@8     004935ac     user32:USER32.dll
 0002:000005b0       __imp__EnumWindows@8       004935b0     user32:USER32.dll
 0002:000005b4       __imp__GetDC@4             004935b4     user32:USER32.dll
 0002:000005b8       __imp__SetFocus@4          004935b8     user32:USER32.dll
 0002:000005bc       __imp__InvalidateRect@12   004935bc     user32:USER32.dll
 0002:000005c0       __imp__InsertMenuW@20      004935c0     user32:USER32.dll
 0002:000005c4       __imp__SetLayeredWindowAttributes@16 004935c4     user32:USER32.dll
 0002:000005c8       __imp__KillTimer@8         004935c8     user32:USER32.dll
 0002:000005cc       __imp__AnimateWindow@12    004935cc     user32:USER32.dll
 0002:000005d0       __imp__CallWindowProcW@20  004935d0     user32:USER32.dll
 0002:000005d4       __imp__EndPaint@8          004935d4     user32:USER32.dll
 0002:000005d8       __imp__DrawTextW@20        004935d8     user32:USER32.dll
 0002:000005dc       __imp__BeginPaint@8        004935dc     user32:USER32.dll
 0002:000005e0       __imp__DefWindowProcW@16   004935e0     user32:USER32.dll
 0002:000005e4       __imp__ReleaseCapture@0    004935e4     user32:USER32.dll
 0002:000005e8       __imp__SetCapture@4        004935e8     user32:USER32.dll
 0002:000005ec       __imp__wvsprintfW@12       004935ec     user32:USER32.dll
 0002:000005f0       __imp__CallNextHookEx@16   004935f0     user32:USER32.dll
 0002:000005f4       __imp__SetRect@20          004935f4     user32:USER32.dll
 0002:000005f8       __imp__MsgWaitForMultipleObjects@20 004935f8     user32:USER32.dll
 0002:000005fc       __imp__PeekMessageA@20     004935fc     user32:USER32.dll
 0002:00000600       __imp__IsWindowUnicode@4   00493600     user32:USER32.dll
 0002:00000604       __imp__GetMessageW@16      00493604     user32:USER32.dll
 0002:00000608       __imp__GetMessageA@16      00493608     user32:USER32.dll
 0002:0000060c       __imp__TranslateMessage@4  0049360c     user32:USER32.dll
 0002:00000610       __imp__DispatchMessageW@4  00493610     user32:USER32.dll
 0002:00000614       __imp__DispatchMessageA@4  00493614     user32:USER32.dll
 0002:00000618       __imp__FillRect@12         00493618     user32:USER32.dll
 0002:0000061c       __imp__CopyRect@8          0049361c     user32:USER32.dll
 0002:00000620       __imp__MessageBoxA@16      00493620     user32:USER32.dll
 0002:00000624       __imp__SetWindowRgn@12     00493624     user32:USER32.dll
 0002:00000628       __imp__SetPropW@12         00493628     user32:USER32.dll
 0002:0000062c       __imp__TrackMouseEvent@4   0049362c     user32:USER32.dll
 0002:00000630       __imp__MoveWindow@24       00493630     user32:USER32.dll
 0002:00000634       __imp__GetWindowRgn@8      00493634     user32:USER32.dll
 0002:00000638       __imp__GetPropW@8          00493638     user32:USER32.dll
 0002:0000063c       __imp__DrawIcon@16         0049363c     user32:USER32.dll
 0002:00000640       __imp__SetWindowTextW@8    00493640     user32:USER32.dll
 0002:00000644       __imp__LoadMenuW@8         00493644     user32:USER32.dll
 0002:00000648       __imp__GetSubMenu@8        00493648     user32:USER32.dll
 0002:0000064c       __imp__IsWindow@4          0049364c     user32:USER32.dll
 0002:00000650       __imp__CreateWindowExW@48  00493650     user32:USER32.dll
 0002:00000654       __imp__RegisterHotKey@16   00493654     user32:USER32.dll
 0002:00000658       __imp__EnableWindow@8      00493658     user32:USER32.dll
 0002:0000065c       __imp__SetTimer@16         0049365c     user32:USER32.dll
 0002:00000660       __imp__SetClassLongW@12    00493660     user32:USER32.dll
 0002:00000664       __imp__GetWindowThreadProcessId@8 00493664     user32:USER32.dll
 0002:00000668       __imp__GetWindowDC@4       00493668     user32:USER32.dll
 0002:0000066c       __imp__ReleaseDC@8         0049366c     user32:USER32.dll
 0002:00000670       __imp__GetDlgCtrlID@4      00493670     user32:USER32.dll
 0002:00000674       __imp__ModifyMenuW@20      00493674     user32:USER32.dll
 0002:00000678       __imp__EnableMenuItem@12   00493678     user32:USER32.dll
 0002:0000067c       __imp__TrackPopupMenu@28   0049367c     user32:USER32.dll
 0002:00000680       __imp__GetParent@4         00493680     user32:USER32.dll
 0002:00000684       __imp__IsWindowVisible@4   00493684     user32:USER32.dll
 0002:00000688       __imp__mouse_event@20      00493688     user32:USER32.dll
 0002:0000068c       __imp__GetActiveWindow@0   0049368c     user32:USER32.dll
 0002:00000690       __imp__SetMenuDefaultItem@12 00493690     user32:USER32.dll
 0002:00000694       __imp__CheckMenuItem@12    00493694     user32:USER32.dll
 0002:00000698       __imp__GetMenuItemCount@4  00493698     user32:USER32.dll
 0002:0000069c       __imp__DeleteMenu@12       0049369c     user32:USER32.dll
 0002:000006a0       __imp__GetMenu@4           004936a0     user32:USER32.dll
 0002:000006a4       __imp__SetMenuItemInfoW@16 004936a4     user32:USER32.dll
 0002:000006a8       __imp__AppendMenuW@16      004936a8     user32:USER32.dll
 0002:000006ac       __imp__DestroyMenu@4       004936ac     user32:USER32.dll
 0002:000006b0       __imp__PostQuitMessage@4   004936b0     user32:USER32.dll
 0002:000006b4       __imp__GetMenuStringW@20   004936b4     user32:USER32.dll
 0002:000006b8       __imp__SetForegroundWindow@4 004936b8     user32:USER32.dll
 0002:000006bc       __imp__SetWindowsHookExW@16 004936bc     user32:USER32.dll
 0002:000006c0       __imp__DialogBoxParamW@20  004936c0     user32:USER32.dll
 0002:000006c4       __imp__LoadIconW@8         004936c4     user32:USER32.dll
 0002:000006c8       __imp__RegisterWindowMessageW@4 004936c8     user32:USER32.dll
 0002:000006cc       __imp__GetClientRect@8     004936cc     user32:USER32.dll
 0002:000006d0       __imp__SetDlgItemTextW@12  004936d0     user32:USER32.dll
 0002:000006d4       __imp__MessageBoxW@16      004936d4     user32:USER32.dll
 0002:000006d8       __imp__OpenClipboard@4     004936d8     user32:USER32.dll
 0002:000006dc       __imp__EmptyClipboard@0    004936dc     user32:USER32.dll
 0002:000006e0       __imp__IsWindowEnabled@4   004936e0     user32:USER32.dll
 0002:000006e4       __imp__CreateDialogParamW@20 004936e4     user32:USER32.dll
 0002:000006e8       __imp__GetWindowLongW@8    004936e8     user32:USER32.dll
 0002:000006ec       __imp__SetWindowLongW@12   004936ec     user32:USER32.dll
 0002:000006f0       __imp__GetDlgItem@8        004936f0     user32:USER32.dll
 0002:000006f4       __imp__GetSysColor@4       004936f4     user32:USER32.dll
 0002:000006f8       __imp__CheckDlgButton@12   004936f8     user32:USER32.dll
 0002:000006fc       __imp__ShowWindow@8        004936fc     user32:USER32.dll
 0002:00000700       __imp__LoadCursorW@8       00493700     user32:USER32.dll
 0002:00000704       __imp__CopyIcon@4          00493704     user32:USER32.dll
 0002:00000708       __imp__LoadImageW@24       00493708     user32:USER32.dll
 0002:0000070c       __imp__SendMessageW@16     0049370c     user32:USER32.dll
 0002:00000710       __imp__DestroyIcon@4       00493710     user32:USER32.dll
 0002:00000714       __imp__PostMessageW@16     00493714     user32:USER32.dll
 0002:00000718       __imp__SendDlgItemMessageW@20 00493718     user32:USER32.dll
 0002:0000071c       __imp__IsDlgButtonChecked@8 0049371c     user32:USER32.dll
 0002:00000720       __imp__GetWindowRect@8     00493720     user32:USER32.dll
 0002:00000724       __imp__SetWindowPos@28     00493724     user32:USER32.dll
 0002:00000728       __imp__ClientToScreen@8    00493728     user32:USER32.dll
 0002:0000072c       __imp__GetDesktopWindow@0  0049372c     user32:USER32.dll
 0002:00000730       __imp__MapWindowPoints@16  00493730     user32:USER32.dll
 0002:00000734       __imp__GetCursorPos@4      00493734     user32:USER32.dll
 0002:00000738       __imp__ScreenToClient@8    00493738     user32:USER32.dll
 0002:0000073c       __imp__PtInRect@12         0049373c     user32:USER32.dll
 0002:00000740       __imp__SetCursor@4         00493740     user32:USER32.dll
 0002:00000744       __imp__DestroyWindow@4     00493744     user32:USER32.dll
 0002:00000748       __imp__EndDialog@8         00493748     user32:USER32.dll
 0002:0000074c       __imp__DrawFocusRect@8     0049374c     user32:USER32.dll
 0002:00000750       __imp__GetWindowTextLengthW@4 00493750     user32:USER32.dll
 0002:00000754       \177USER32_NULL_THUNK_DATA 00493754     user32:USER32.dll
 0002:00000758       __imp__GetFileVersionInfoW@16 00493758     version:VERSION.dll
 0002:0000075c       __imp__GetFileVersionInfoSizeW@8 0049375c     version:VERSION.dll
 0002:00000760       __imp__VerQueryValueW@16   00493760     version:VERSION.dll
 0002:00000764       \177VERSION_NULL_THUNK_DATA 00493764     version:VERSION.dll
 0002:00000768       __imp__InternetCrackUrlA@16 00493768     wininet:WININET.dll
 0002:0000076c       __imp__InternetSetOptionA@16 0049376c     wininet:WININET.dll
 0002:00000770       __imp__InternetSetOptionW@16 00493770     wininet:WININET.dll
 0002:00000774       \177WININET_NULL_THUNK_DATA 00493774     wininet:WININET.dll
 0002:00000778       __imp__shutdown@8          00493778     ws2_32:WS2_32.dll
 0002:0000077c       __imp__recv@16             0049377c     ws2_32:WS2_32.dll
 0002:00000780       __imp__socket@12           00493780     ws2_32:WS2_32.dll
 0002:00000784       __imp__WSAStartup@8        00493784     ws2_32:WS2_32.dll
 0002:00000788       __imp__connect@12          00493788     ws2_32:WS2_32.dll
 0002:0000078c       __imp__htons@4             0049378c     ws2_32:WS2_32.dll
 0002:00000790       __imp__gethostbyname@4     00493790     ws2_32:WS2_32.dll
 0002:00000794       __imp__send@16             00493794     ws2_32:WS2_32.dll
 0002:00000798       __imp__WSACleanup@0        00493798     ws2_32:WS2_32.dll
 0002:0000079c       __imp__getprotobyname@4    0049379c     ws2_32:WS2_32.dll
 0002:000007a0       __imp__inet_addr@4         004937a0     ws2_32:WS2_32.dll
 0002:000007a4       __imp__getservbyname@8     004937a4     ws2_32:WS2_32.dll
 0002:000007a8       __imp__WSAGetLastError@0   004937a8     ws2_32:WS2_32.dll
 0002:000007ac       __imp__closesocket@4       004937ac     ws2_32:WS2_32.dll
 0002:000007b0       \177WS2_32_NULL_THUNK_DATA 004937b0     ws2_32:WS2_32.dll
 0002:000007b4       __imp__CoRegisterClassObject@20 004937b4     ole32:ole32.dll
 0002:000007b8       __imp__CoUnmarshalInterface@12 004937b8     ole32:ole32.dll
 0002:000007bc       __imp__CoMarshalInterface@24 004937bc     ole32:ole32.dll
 0002:000007c0       __imp__CoReleaseMarshalData@4 004937c0     ole32:ole32.dll
 0002:000007c4       __imp__StringFromGUID2@12  004937c4     ole32:ole32.dll
 0002:000007c8       __imp__CoCreateGuid@4      004937c8     ole32:ole32.dll
 0002:000007cc       __imp__CLSIDFromString@8   004937cc     ole32:ole32.dll
 0002:000007d0       __imp__CoCreateInstance@20 004937d0     ole32:ole32.dll
 0002:000007d4       __imp__CoInitialize@4      004937d4     ole32:ole32.dll
 0002:000007d8       __imp__OleSetContainedObject@8 004937d8     ole32:ole32.dll
 0002:000007dc       __imp__OleCreate@28        004937dc     ole32:ole32.dll
 0002:000007e0       __imp__CoUninitialize@0    004937e0     ole32:ole32.dll
 0002:000007e4       __imp__CoTaskMemFree@4     004937e4     ole32:ole32.dll
 0002:000007e8       __imp__CoTaskMemAlloc@4    004937e8     ole32:ole32.dll
 0002:000007ec       __imp__CoTaskMemRealloc@8  004937ec     ole32:ole32.dll
 0002:000007f0       __imp__CreateStreamOnHGlobal@12 004937f0     ole32:ole32.dll
 0002:000007f4       __imp__CoRevokeClassObject@4 004937f4     ole32:ole32.dll
 0002:000007f8       \177ole32_NULL_THUNK_DATA  004937f8     ole32:ole32.dll
 0002:000007fc       __imp__sqlite3_last_insert_rowid 004937fc     sqlite3:sqlite3.dll
 0002:00000800       __imp__sqlite3_busy_timeout 00493800     sqlite3:sqlite3.dll
 0002:00000804       __imp__sqlite3_get_table   00493804     sqlite3:sqlite3.dll
 0002:00000808       __imp__sqlite3_column_name 00493808     sqlite3:sqlite3.dll
 0002:0000080c       __imp__sqlite3_column_decltype 0049380c     sqlite3:sqlite3.dll
 0002:00000810       __imp__sqlite3_column_type 00493810     sqlite3:sqlite3.dll
 0002:00000814       __imp__sqlite3_errmsg      00493814     sqlite3:sqlite3.dll
 0002:00000818       __imp__sqlite3_finalize    00493818     sqlite3:sqlite3.dll
 0002:0000081c       __imp__sqlite3_column_bytes 0049381c     sqlite3:sqlite3.dll
 0002:00000820       __imp__sqlite3_close       00493820     sqlite3:sqlite3.dll
 0002:00000824       __imp__sqlite3_open        00493824     sqlite3:sqlite3.dll
 0002:00000828       __imp__sqlite3_bind_null   00493828     sqlite3:sqlite3.dll
 0002:0000082c       __imp__sqlite3_column_blob 0049382c     sqlite3:sqlite3.dll
 0002:00000830       __imp__sqlite3_free        00493830     sqlite3:sqlite3.dll
 0002:00000834       __imp__sqlite3_mprintf     00493834     sqlite3:sqlite3.dll
 0002:00000838       __imp__sqlite3_vmprintf    00493838     sqlite3:sqlite3.dll
 0002:0000083c       __imp__sqlite3_step        0049383c     sqlite3:sqlite3.dll
 0002:00000840       __imp__sqlite3_free_table  00493840     sqlite3:sqlite3.dll
 0002:00000844       __imp__sqlite3_reset       00493844     sqlite3:sqlite3.dll
 0002:00000848       __imp__sqlite3_column_count 00493848     sqlite3:sqlite3.dll
 0002:0000084c       __imp__sqlite3_column_text 0049384c     sqlite3:sqlite3.dll
 0002:00000850       __imp__sqlite3_column_int  00493850     sqlite3:sqlite3.dll
 0002:00000854       __imp__sqlite3_prepare     00493854     sqlite3:sqlite3.dll
 0002:00000858       __imp__sqlite3_column_double 00493858     sqlite3:sqlite3.dll
 0002:0000085c       __imp__sqlite3_changes     0049385c     sqlite3:sqlite3.dll
 0002:00000860       __imp__sqlite3_bind_text   00493860     sqlite3:sqlite3.dll
 0002:00000864       __imp__sqlite3_bind_int    00493864     sqlite3:sqlite3.dll
 0002:00000868       __imp__sqlite3_bind_double 00493868     sqlite3:sqlite3.dll
 0002:0000086c       __imp__sqlite3_exec        0049386c     sqlite3:sqlite3.dll
 0002:00000870       __imp__sqlite3_bind_blob   00493870     sqlite3:sqlite3.dll
 0002:00000874       \177sqlite3_NULL_THUNK_DATA 00493874     sqlite3:sqlite3.dll
 0002:00000878       __imp__RARReadHeader@8     00493878     unrar:unrar.dll
 0002:0000087c       __imp__RARSetCallback@12   0049387c     unrar:unrar.dll
 0002:00000880       __imp__RAROpenArchiveEx@4  00493880     unrar:unrar.dll
 0002:00000884       __imp__RARProcessFileW@16  00493884     unrar:unrar.dll
 0002:00000888       __imp__RARCloseArchive@4   00493888     unrar:unrar.dll
 0002:0000088c       \177unrar_NULL_THUNK_DATA  0049388c     unrar:unrar.dll
 0002:00000890       ___xc_a                    00493890     MSVCRTD:cinitexe.obj
 0002:0000098c       ___xc_z                    0049398c     MSVCRTD:cinitexe.obj
 0002:00000990       ___xi_a                    00493990     MSVCRTD:cinitexe.obj
 0002:000009a0       ___xi_z                    004939a0     MSVCRTD:cinitexe.obj
 0002:000009cc       ??_C@_0P@GHFPNOJB@bad?5allocation?$AA@ 004939cc     ClearDlg.obj
 0002:000009db       ?_Value@?$_Is_swap_move@U_Swap_move_tag@std@@@std@@2_NB 004939db     ClearDlg.obj
 0002:000009dc       ?value@?$integral_constant@_N$0A@@tr1@std@@2_NB 004939dc     ClearDlg.obj
 0002:000009dd       ?value@?$integral_constant@_N$00@tr1@std@@2_NB 004939dd     ClearDlg.obj
 0002:000009e0       ??_C@_1DI@OOPDEGLB@?$AAI?$AAD?$AAS?$AA_?$AAC?$AAL?$AAE?$AAA?$AAN?$AAP?$AAR?$AAI?$AAV?$AA_?$AAI?$AAE?$AAA?$AAD?$AAD?$AAR?$AAE?$AAS?$AAS?$AAE?$AAD?$AAI?$AAT?$AA?$AA@ 004939e0     ClearDlg.obj
 0002:00000a18       ??_C@_1CG@OJBIPKBO@?$AAI?$AAEW0W?$EAh?$APN?$ALb?IR?$BH?$IIh?$PP?$AI?$AAI?$AAE?$JB?MT?1T?$AOu?$BPeH?$PP?7?$AA?$AA@ 00493a18     ClearDlg.obj
 0002:00000a40       ??_C@_1GC@JABHCHKI@?$AAH?$AAW?$AAN?$AAD?$AA?5?$AAa?$AAd?$AAs?$AA_?$AAc?$AAl?$AAe?$AAa?$AAn?$AA?5?$AA?$DN?$AA?5?$AAG?$AAe?$AAt?$AAD?$AAl?$AAg?$AAI?$AAt?$AAe?$AAm?$AA?$CI?$AAh?$AAD?$AAl?$AAg@ 00493a40     ClearDlg.obj
 0002:00000aa8       ??_C@_1EA@PNGKJJLD@?$AA?7?$AA?7?$AA?7?$AAi?$AAf?$AA?$CI?$AAs?$AAO?$AAP?$AA?4?$AAb?$AAC?$AAl?$AAe?$AAa?$AAn?$AAA?$AAf?$AAt?$AAe?$AAr?$AAH?$AAi?$AAd?$AAe?$AA?5?$AA?$DN?$AA?$DN?$AA?5?$AA1?$AA?$CJ?$AA?$AA@ 00493aa8     ClearDlg.obj
 0002:00000ae8       ??_C@_1HC@DNCIMFJN@?$AAI?$AAn?$AAi?$AAt?$AAM?$AAa?$AAi?$AAn?$AAD?$AAl?$AAg?$AA?$CI?$AAh?$AAD?$AAl?$AAg?$AA?$CJ?$AA?$DL?$AA?$DN?$AA?$DN?$AA?$DN?$AA?$DN?$AA?$DN?$AA?$DN?$AA?$DN?$AA?$DN?$AA?$DN?$AA?$DN?$AA?$DN?$AA?$DN?$AA?$DN?$AA?$DN@ 00493ae8     ClearDlg.obj
 0002:00000b5c       ??_C@_11LOCGONAA@?$AA?$AA@ 00493b5c     ClearDlg.obj
 0002:00000b60       ??_C@_1HA@PPOCFFLB@?$AAE?$AAN?$AAD?$AA?5?$AA?5?$AAI?$AAN?$AAI?$AAT?$AA?5?$AA?$DN?$AA?$DN?$AA?$DN?$AA?$DN?$AA?$DN?$AA?$DN?$AA?$DN?$AA?$DN?$AA?$DN?$AA?$DN?$AA?$DN?$AA?$DN?$AA?$DN?$AA?$DN?$AA?$DN?$AA?$DN?$AA?$DN?$AA?$DN?$AA?$DN?$AA?$DN?$AA?$DN?$AA?$DN@ 00493b60     ClearDlg.obj
 0002:00000bd0       ??_C@_1CK@CEEHBBHB@?$AAI?$AAD?$AAS?$AA_?$AAC?$AAL?$AAE?$AAA?$AAN?$AAP?$AAR?$AAI?$AAV?$AA_?$AAW?$AAI?$AAN?$AAR?$AAA?$AAR?$AA?$AA@ 00493bd0     ClearDlg.obj
 0002:00000bfc       ??_C@_1O@DMKMFGM@?$AAW?$AAi?$AAn?$AAR?$AAa?$AAr?$AA?$AA@ 00493bfc     ClearDlg.obj
 0002:00000c0c       ??_C@_1CO@MBDHLJII@?$AAI?$AAD?$AAS?$AA_?$AAC?$AAL?$AAE?$AAA?$AAN?$AAP?$AAR?$AAI?$AAV?$AA_?$AAE?$AAD?$AAI?$AAT?$AAP?$AAL?$AAU?$AAS?$AA?$AA@ 00493c0c     ClearDlg.obj
 0002:00000c3c       ??_C@_1BC@DCBBIKGL@?$AAE?$AAd?$AAi?$AAt?$AAP?$AAl?$AAu?$AAs?$AA?$AA@ 00493c3c     ClearDlg.obj
 0002:00000c50       ??_C@_1CK@LBPIEACC@?$AAI?$AAD?$AAS?$AA_?$AAC?$AAL?$AAE?$AAA?$AAN?$AAP?$AAR?$AAI?$AAV?$AA_?$AAW?$AAI?$AAN?$AAZ?$AAI?$AAP?$AA?$AA@ 00493c50     ClearDlg.obj
 0002:00000c7c       ??_C@_1O@JGHFJEDP@?$AAW?$AAi?$AAn?$AAZ?$AAi?$AAp?$AA?$AA@ 00493c7c     ClearDlg.obj
 0002:00000c8c       ??_C@_1DA@JMEEOIOA@?$AAI?$AAD?$AAS?$AA_?$AAC?$AAL?$AAE?$AAA?$AAN?$AAP?$AAR?$AAI?$AAV?$AA_?$AAU?$AAL?$AAT?$AAR?$AAA?$AAE?$AAD?$AAI?$AAT?$AA?$AA@ 00493c8c     ClearDlg.obj
 0002:00000cbc       ??_C@_1BE@KBJJKNOJ@?$AAU?$AAl?$AAt?$AAr?$AAa?$AAE?$AAd?$AAi?$AAt?$AA?$AA@ 00493cbc     ClearDlg.obj
 0002:00000cd0       ??_C@_1CK@LBDIAPPO@?$AAI?$AAD?$AAS?$AA_?$AAC?$AAL?$AAE?$AAA?$AAN?$AAP?$AAR?$AAI?$AAV?$AA_?$AAO?$AAF?$AAF?$AAI?$AAC?$AAE?$AA?$AA@ 00493cd0     ClearDlg.obj
 0002:00000cfc       ??_C@_1CC@FKGFMMHB@?$AAM?$AAi?$AAc?$AAr?$AAo?$AAs?$AAo?$AAf?$AAt?$AA?5?$AAO?$AAf?$AAf?$AAi?$AAc?$AAe?$AA?$AA@ 00493cfc     ClearDlg.obj
 0002:00000d20       ??_C@_1DK@IEKCHGPP@?$AAI?$AAD?$AAS?$AA_?$AAC?$AAL?$AAE?$AAA?$AAN?$AAP?$AAR?$AAI?$AAV?$AA_?$AAO?$AAU?$AAT?$AAL?$AAO?$AAO?$AAK?$AAT?$AAE?$AAM?$AAP?$AAD?$AAI?$AAR?$AA?$AA@ 00493d20     ClearDlg.obj
 0002:00000d5c       ??_C@_1DA@NCMNEDCG@?$AAM?$AAi?$AAc?$AAr?$AAo?$AAs?$AAo?$AAf?$AAt?$AA?5?$AAO?$AAu?$AAt?$AAl?$AAo?$AAo?$AAk?$AA?5N4e?ve?$IHN?vY9?$AA?$AA@ 00493d5c     ClearDlg.obj
 0002:00000d8c       ??_C@_1CM@KGNBNIIM@?$AAI?$AAD?$AAS?$AA_?$AAC?$AAL?$AAE?$AAA?$AAN?$AAP?$AAR?$AAI?$AAV?$AA_?$AAW?$AAO?$AAR?$AAD?$AAP?$AAA?$AAD?$AA?$AA@ 00493d8c     ClearDlg.obj
 0002:00000db8       ??_C@_1BI@LDNFJFAH@?$AAW?$AAi?$AAn?$AAd?$AAo?$AAw?$AAs?$AA?5Q?$JJ?$FLWg?$HP?$AA?$AA@ 00493db8     ClearDlg.obj
 0002:00000dd0       ??_C@_1CK@CFCCPJLN@?$AAI?$AAD?$AAS?$AA_?$AAC?$AAL?$AAE?$AAA?$AAN?$AAP?$AAR?$AAI?$AAV?$AA_?$AAA?$AAC?$AAC?$AAE?$AAS?$AAS?$AA?$AA@ 00493dd0     ClearDlg.obj
 0002:00000dfc       ??_C@_1CC@MOHPDKDC@?$AAM?$AAi?$AAc?$AAr?$AAo?$AAs?$AAo?$AAf?$AAt?$AA?5?$AAA?$AAc?$AAc?$AAe?$AAs?$AAs?$AA?$AA@ 00493dfc     ClearDlg.obj
 0002:00000e20       ??_C@_1DC@HFHNGFMF@?$AAI?$AAD?$AAS?$AA_?$AAC?$AAL?$AAE?$AAA?$AAN?$AAP?$AAR?$AAI?$AAV?$AA_?$AAP?$AAO?$AAW?$AAE?$AAR?$AAP?$AAO?$AAI?$AAN?$AAT?$AA?$AA@ 00493e20     ClearDlg.obj
 0002:00000e54       ??_C@_1CG@CMJJNPCM@?$AAM?$AAi?$AAc?$AAr?$AAo?$AAs?$AAo?$AAf?$AAt?$AA?5?$AAP?$AAo?$AAw?$AAp?$AAo?$AAi?$AAn?$AAt?$AA?$AA@ 00493e54     ClearDlg.obj
 0002:00000e7c       ??_C@_1CI@NMNIOCFO@?$AAI?$AAD?$AAS?$AA_?$AAC?$AAL?$AAE?$AAA?$AAN?$AAP?$AAR?$AAI?$AAV?$AA_?$AAE?$AAX?$AAC?$AAE?$AAL?$AA?$AA@ 00493e7c     ClearDlg.obj
 0002:00000ea4       ??_C@_1CA@PHPDDAO@?$AAM?$AAi?$AAc?$AAr?$AAo?$AAs?$AAo?$AAf?$AAt?$AA?5?$AAE?$AAx?$AAc?$AAe?$AAl?$AA?$AA@ 00493ea4     ClearDlg.obj
 0002:00000ec4       ??_C@_1CG@ENMGMDLN@?$AAI?$AAD?$AAS?$AA_?$AAC?$AAL?$AAE?$AAA?$AAN?$AAP?$AAR?$AAI?$AAV?$AA_?$AAW?$AAO?$AAR?$AAD?$AA?$AA@ 00493ec4     ClearDlg.obj
 0002:00000eec       ??_C@_1BO@EMGMAJFL@?$AAM?$AAi?$AAc?$AAr?$AAo?$AAs?$AAo?$AAf?$AAt?$AA?5?$AAW?$AAo?$AAr?$AAd?$AA?$AA@ 00493eec     ClearDlg.obj
 0002:00000f0c       ??_C@_1CM@MCNABKDK@?$AAI?$AAD?$AAS?$AA_?$AAC?$AAL?$AAE?$AAA?$AAN?$AAP?$AAR?$AAI?$AAV?$AA_?$AAC?$AAO?$AAO?$AAK?$AAI?$AAE?$AAS?$AA?$AA@ 00493f0c     ClearDlg.obj
 0002:00000f38       ??_C@_1BK@DNLAKHGO@N?6?$HPQN?$KHu?$BPv?$IE?$AAC?$AAo?$AAo?$AAk?$AAi?$AAe?$AAs?$AA?$AA@ 00493f38     ClearDlg.obj
 0002:00000f54       ??_C@_1CO@PHGLLBLF@?$AAI?$AAD?$AAS?$AA_?$AAC?$AAL?$AAE?$AAA?$AAN?$AAP?$AAR?$AAI?$AAV?$AA_?$AAP?$AAO?$AAW?$AAE?$AAR?$AAD?$AAV?$AAD?$AA?$AA@ 00493f54     ClearDlg.obj
 0002:00000f84       ??_C@_1BC@BFPIEJNI@?$AAP?$AAo?$AAw?$AAe?$AAr?$AAD?$AAV?$AAD?$AA?$AA@ 00493f84     ClearDlg.obj
 0002:00000f98       ??_C@_1CM@IKJPFGMO@?$AAI?$AAD?$AAS?$AA_?$AAC?$AAL?$AAE?$AAA?$AAN?$AAP?$AAR?$AAI?$AAV?$AA_?$AAR?$AAE?$AAA?$AAL?$AAO?$AAN?$AAE?$AA?$AA@ 00493f98     ClearDlg.obj
 0002:00000fc4       ??_C@_1CG@LKIDCCEJ@?$AAR?$AAe?$AAa?$AAl?$AAo?$AAn?$AAe?$AA?1?$AAR?$AAe?$AAa?$AAl?$AAp?$AAl?$AAa?$AAy?$AAe?$AAr?$AA?$AA@ 00493fc4     ClearDlg.obj
 0002:00000ff0       ??_C@_1EC@NLCGPPDA@?$AAI?$AAD?$AAS?$AA_?$AAC?$AAL?$AAE?$AAA?$AAN?$AAP?$AAR?$AAI?$AAV?$AA_?$AAW?$AAI?$AAN?$AAD?$AAO?$AAW?$AAS?$AAM?$AAE?$AAD?$AAI?$AAA?$AAP?$AAL?$AAA?$AAY?$AAE?$AAR@ 00493ff0     ClearDlg.obj
 0002:00001034       ??_C@_1BK@NOJINNPH@?$AAW?$AAi?$AAn?$AAd?$AAo?$AAw?$AAsZ?$JCOSd?$KNe?$DOVh?$AA?$AA@ 00494034     ClearDlg.obj
 0002:00001050       ??_C@_1KG@PLHHMMCE@?$AAi?$AAt?$AAe?$AAm?$AA?4?$AAp?$AAs?$AAz?$AAT?$AAe?$AAx?$AAt?$AA?$DN?$AAL?$AAo?$AAa?$AAd?$AAI?$AAt?$AAe?$AAm?$AAS?$AAt?$AAr?$AAi?$AAn?$AAg?$AAW?$AA?5?$AAL?$AAI?$AAD@ 00494050     ClearDlg.obj
 0002:000010f8       ??_C@_1FO@FKJDHINC@?$AAS?$AAo?$AAf?$AAt?$AAw?$AAa?$AAr?$AAe?$AA?2?$AAM?$AAi?$AAc?$AAr?$AAo?$AAs?$AAo?$AAf?$AAt?$AA?2?$AAI?$AAn?$AAt?$AAe?$AAr?$AAn?$AAe?$AAt?$AA?5?$AAE?$AAx?$AAp?$AAl@ 004940f8     ClearDlg.obj
 0002:00001158       ??_C@_1DO@GGNGGLLE@?$AAI?$AAD?$AAS?$AA_?$AAC?$AAL?$AAE?$AAA?$AAN?$AAP?$AAR?$AAI?$AAV?$AA_?$AAC?$AAL?$AAE?$AAA?$AAN?$AAP?$AAR?$AAE?$AAR?$AAE?$AAA?$AAD?$AAF?$AAI?$AAL?$AAE?$AA?$AA@ 00494158     ClearDlg.obj
 0002:00001198       ??_C@_1O@MCOJHAIP@n?$AFt?$AG?$JI?$IE?$IL?$PLe?$IHN?v?$AA?$AA@ 00494198     ClearDlg.obj
 0002:000011a8       ??_C@_1DM@NJNBDNNF@?$AAI?$AAD?$AAS?$AA_?$AAC?$AAL?$AAE?$AAA?$AAN?$AAP?$AAR?$AAI?$AAV?$AA_?$AAO?$AAP?$AAE?$AAN?$AAF?$AAI?$AAL?$AAE?$AAH?$AAI?$AAS?$AAT?$AAO?$AAR?$AAY?$AA?$AA@ 004941a8     ClearDlg.obj
 0002:000011e4       ??_C@_1BC@IPDIKMLK@bS_?$AAe?$IHN?v?$IN?$NP?$IO?$CK?$IL?$LA_U?$AA?$AA@ 004941e4     ClearDlg.obj
 0002:000011f8       ??_C@_1EG@GIDNFAIL@?$AAI?$AAD?$AAS?$AA_?$AAC?$AAL?$AAE?$AAA?$AAN?$AAP?$AAR?$AAI?$AAV?$AA_?$AAW?$AAI?$AAN?$AAD?$AAO?$AAW?$AAS?$AAS?$AAE?$AAA?$AAR?$AAC?$AAH?$AAH?$AAI?$AAS?$AAT?$AAO@ 004941f8     ClearDlg.obj
 0002:00001240       ??_C@_1BI@CEFHBBBB@?$AAW?$AAi?$AAn?$AAd?$AAo?$AAw?$AAsd?$BM?$HN?$CC?$IL?$LA_U?$AA?$AA@ 00494240     ClearDlg.obj
 0002:00001258       ??_C@_1DM@LPHHCENL@?$AAI?$AAD?$AAS?$AA_?$AAC?$AAL?$AAE?$AAA?$AAN?$AAP?$AAR?$AAI?$AAV?$AA_?$AAS?$AAY?$AAS?$AAT?$AAE?$AAM?$AAC?$AAL?$AAI?$AAP?$AAB?$AAO?$AAA?$AAR?$AAD?$AA?$AA@ 00494258     ClearDlg.obj
 0002:00001294       ??_C@_1M@IOEOGHCH@?$HM?$PL?$HO?$NPRj?$IN4g?$HP?$AA?$AA@ 00494294     ClearDlg.obj
 0002:000012a0       ??_C@_1DC@KNDJLGHN@?$AAI?$AAD?$AAS?$AA_?$AAC?$AAL?$AAE?$AAA?$AAN?$AAP?$AAR?$AAI?$AAV?$AA_?$AAR?$AAU?$AAN?$AAC?$AAO?$AAM?$AAM?$AAA?$AAN?$AAD?$AA?$AA@ 004942a0     ClearDlg.obj
 0002:000012d4       ??_C@_1BO@INIHCGMN@?$IP?P?$IILhF?$JB?Lv?$IET?$HNN?d?$PP?$AI?$JB?MT?1T?$AOg?7eH?$PP?7?$AA?$AA@ 004942d4     ClearDlg.obj
 0002:000012f4       ??_C@_1DG@KKIPGPID@?$AAI?$AAD?$AAS?$AA_?$AAC?$AAL?$AAE?$AAA?$AAN?$AAP?$AAR?$AAI?$AAV?$AA_?$AAN?$AAE?$AAT?$AAW?$AAO?$AAR?$AAK?$AAP?$AAL?$AAA?$AAC?$AAE?$AA?$AA@ 004942f4     ClearDlg.obj
 0002:0000132c       ??_C@_1CC@MFILEOGL@?$IL?$LP?$JF?n?$HPQN?6?$JA?$LL?2Ev?$IE?$IL?$LA_U?$PP?$AI?$FL?y?$AAX?$AAPg?7eH?$PP?7?$AA?$AA@ 0049432c     ClearDlg.obj
 0002:00001350       ??_C@_1DG@PLDOHINL@?$AAI?$AAD?$AAS?$AA_?$AAC?$AAL?$AAE?$AAA?$AAN?$AAP?$AAR?$AAI?$AAV?$AA_?$AAS?$AAT?$AAA?$AAR?$AAT?$AAM?$AAE?$AAN?$AAU?$AAD?$AAO?$AAC?$AA?$AA@ 00494350     ClearDlg.obj
 0002:00001388       ??_C@_1BG@FBIGDJCC@_?$AAY?K?$ID?$NMSUN?9v?$IEe?$IHhc?$IL?$LA_U?$AA?$AA@ 00494388     ClearDlg.obj
 0002:000013a0       ??_C@_1DK@KAMMBHCG@?$AAI?$AAD?$AAS?$AA_?$AAC?$AAL?$AAE?$AAA?$AAN?$AAP?$AAR?$AAI?$AAV?$AA_?$AAW?$AAI?$AAN?$AAD?$AAO?$AAW?$AAS?$AAT?$AAE?$AAM?$AAP?$AAD?$AAI?$AAR?$AA?$AA@ 004943a0     ClearDlg.obj
 0002:000013dc       ??_C@_1BK@PCFEGKPC@?$AAW?$AAi?$AAn?$AAd?$AAo?$AAw?$AAsN4e?ve?$IHN?vY9?$AA?$AA@ 004943dc     ClearDlg.obj
 0002:000013f8       ??_C@_1CI@CPDGDEPJ@?$AAI?$AAD?$AAS?$AA_?$AAC?$AAL?$AAE?$AAA?$AAN?$AAP?$AAR?$AAI?$AAV?$AA_?$AAM?$AAY?$AAI?$AAE?$AA2?$AA?$AA@ 004943f8     ClearDlg.obj
 0002:00001420       ??_C@_1BI@OOCLBOBC@?$AAM?$AAy?$AAI?$AAE?$AA2?$IB?jR?$KIO?$HPu?$CIu?U?$IP?y?$AA?$AA@ 00494420     ClearDlg.obj
 0002:00001438       ??_C@_1CK@PFDFGGOO@?$AAI?$AAD?$AAS?$AA_?$AAC?$AAL?$AAE?$AAA?$AAN?$AAP?$AAR?$AAI?$AAV?$AA_?$AAI?$AAE?$AAF?$AAO?$AAR?$AAM?$AA?$AA@ 00494438     ClearDlg.obj
 0002:00001464       ??_C@_1BG@FFIIKPHO@?$AAI?$AAE?$IB?jR?$KI?$FL?$IMb?$BA?$IIhSU?$INDe?$JJ?$AA?$AA@ 00494464     ClearDlg.obj
 0002:0000147c       ??_C@_1DC@CMGBOFPL@?$AAI?$AAD?$AAS?$AA_?$AAC?$AAL?$AAE?$AAA?$AAN?$AAP?$AAR?$AAI?$AAV?$AA_?$AAI?$AAE?$AAP?$AAA?$AAS?$AAS?$AAW?$AAO?$AAR?$AAD?$AA?$AA@ 0049447c     ClearDlg.obj
 0002:000014b0       ??_C@_1BE@POHADBNO@?$AAI?$AAE?$IB?jR?$KIO?$NN?$FLXv?$IE?$FL?Fx?$AB?$AA?$AA@ 004944b0     ClearDlg.obj
 0002:000014c4       ??_C@_1DC@EFOJDIMJ@?$AAI?$AAD?$AAS?$AA_?$AAC?$AAL?$AAE?$AAA?$AAN?$AAP?$AAR?$AAI?$AAV?$AA_?$AAW?$AAE?$AAB?$AAH?$AAI?$AAS?$AAT?$AAO?$AAR?$AAY?$AA?$AA@ 004944c4     ClearDlg.obj
 0002:000014f8       ??_C@_1CC@BPLIFJNH@N?6?$HPQN?$KHu?$BPv?$IE?$FN?r?$IL?$LP?$JF?n?$IP?Gv?$IE?$HPQ?$JIuS?$IGS?r?$IL?$LA_U?$AA?$AA@ 004944f8     ClearDlg.obj
 0002:0000151c       ??_C@_1DG@HNKLEEPP@?$AAI?$AAD?$AAS?$AA_?$AAC?$AAL?$AAE?$AAA?$AAN?$AAP?$AAR?$AAI?$AAV?$AA_?$AAC?$AAA?$AAC?$AAH?$AAE?$AAW?$AAE?$AAB?$AAF?$AAI?$AAL?$AAE?$AA?$AA@ 0049451c     ClearDlg.obj
 0002:00001554       ??_C@_1BM@JJOBGNLC@N?6?$HPQO?$NN?$FLXW?$CI?$HP?$BDQ?$LCN?9v?$IE?$HPQ?$JIue?$IHN?v?$AA?$AA@ 00494554     ClearDlg.obj
 0002:00001570       ??_C@_1DE@OBEGGDCA@?$AAI?$AAD?$AAS?$AA_?$AAC?$AAL?$AAE?$AAA?$AAN?$AAP?$AAR?$AAI?$AAV?$AA_?$AAC?$AAL?$AAE?$AAA?$AAN?$AAS?$AAU?$AAC?$AAE?$AAS?$AAS?$AA?$AA@ 00494570     ClearDlg.obj
 0002:000015a4       ??_C@_1BI@DOKLJDCE@?$AAC?$AAL?$AAE?$AAA?$AAN?$AAF?$AAI?$AAN?$AAI?$AAS?$AAH?$AA?$AA@ 004945a4     ClearDlg.obj
 0002:000015bc       ??_C@_1BG@IHHKPGP@?$AAA?$AAr?$AAc?$AAH?$AAi?$AAs?$AAt?$AAo?$AAr?$AAy?$AA?$AA@ 004945bc     ClearDlg.obj
 0002:000015d4       ??_C@_1CA@IGPIFBPM@?$AAS?$AAo?$AAf?$AAt?$AAw?$AAa?$AAr?$AAe?$AA?2?$AAW?$AAi?$AAn?$AAR?$AAA?$AAR?$AA?$AA@ 004945d4     ClearDlg.obj
 0002:000015f4       ??_C@_1CE@JIJBNEIC@?$AAD?$AAi?$AAa?$AAl?$AAo?$AAg?$AAE?$AAd?$AAi?$AAt?$AAH?$AAi?$AAs?$AAt?$AAo?$AAr?$AAy?$AA?$AA@ 004945f4     ClearDlg.obj
 0002:00001618       ??_C@_1CI@KLEHJBFB@?$AAI?$AAD?$AAS?$AA_?$AAC?$AAL?$AAE?$AAA?$AAN?$AAI?$AAN?$AAG?$AA_?$AAW?$AAI?$AAN?$AAR?$AAA?$AAR?$AA?$AA@ 00494618     ClearDlg.obj
 0002:00001640       ??_C@_1CA@COMJFJCJ@?$AAR?$AAe?$AAc?$AAe?$AAn?$AAt?$AA?5?$AAD?$AAi?$AAr?$AA?5?$AAL?$AAi?$AAs?$AAt?$AA?$AA@ 00494640     ClearDlg.obj
 0002:00001660       ??_C@_1EC@OAAAJAGD@?$AAS?$AAo?$AAf?$AAt?$AAw?$AAa?$AAr?$AAe?$AA?2?$AAE?$AAS?$AA?9?$AAC?$AAo?$AAm?$AAp?$AAu?$AAt?$AAi?$AAn?$AAg?$AA?2?$AAE?$AAd?$AAi?$AAt?$AAP?$AAl?$AAu?$AAs?$AA?5?$AA2@ 00494660     ClearDlg.obj
 0002:000016a4       ??_C@_1CM@PNDHJDIH@?$AAI?$AAD?$AAS?$AA_?$AAC?$AAL?$AAE?$AAA?$AAN?$AAI?$AAN?$AAG?$AA_?$AAE?$AAD?$AAI?$AAT?$AAP?$AAL?$AAU?$AAS?$AA?$AA@ 004946a4     ClearDlg.obj
 0002:000016d0       ??_C@_1BA@CKOGEMHM@?$AAe?$AAx?$AAt?$AAr?$AAa?$AAc?$AAt?$AA?$AA@ 004946d0     ClearDlg.obj
 0002:000016e0       ??_C@_1EG@FNKABDD@?$AAS?$AAo?$AAf?$AAt?$AAw?$AAa?$AAr?$AAe?$AA?2?$AAN?$AAi?$AAc?$AAo?$AA?5?$AAM?$AAa?$AAk?$AA?5?$AAC?$AAo?$AAm?$AAp?$AAu?$AAt?$AAi?$AAn?$AAg?$AA?2?$AAW?$AAi?$AAn?$AAZ@ 004946e0     ClearDlg.obj
 0002:00001728       ??_C@_1BC@FBLNNNLJ@?$AAf?$AAi?$AAl?$AAe?$AAm?$AAe?$AAn?$AAu?$AA?$AA@ 00494728     ClearDlg.obj
 0002:0000173c       ??_C@_1CI@DOPIMAAC@?$AAI?$AAD?$AAS?$AA_?$AAC?$AAL?$AAE?$AAA?$AAN?$AAI?$AAN?$AAG?$AA_?$AAW?$AAI?$AAN?$AAZ?$AAI?$AAP?$AA?$AA@ 0049473c     ClearDlg.obj
 0002:00001764       ??_C@_1BE@CMOPGDBE@?$AAL?$AAa?$AAs?$AAt?$AA?5?$AAF?$AAi?$AAl?$AAe?$AA?$AA@ 00494764     ClearDlg.obj
 0002:00001778       ??_C@_1M@NGLCEANB@?$AAF?$AAi?$AAl?$AAe?$AA4?$AA?$AA@ 00494778     ClearDlg.obj
 0002:00001784       ??_C@_1M@ELGFHIGI@?$AAF?$AAi?$AAl?$AAe?$AA3?$AA?$AA@ 00494784     ClearDlg.obj
 0002:00001790       ??_C@_1M@PDNJBPAN@?$AAF?$AAi?$AAl?$AAe?$AA2?$AA?$AA@ 00494790     ClearDlg.obj
 0002:0000179c       ??_C@_1M@OBGMLAOD@?$AAF?$AAi?$AAl?$AAe?$AA1?$AA?$AA@ 0049479c     ClearDlg.obj
 0002:000017a8       ??_C@_1DO@LLPKELIP@?$AA?2?$AAI?$AAD?$AAM?$AAC?$AAo?$AAm?$AAp?$AA?2?$AAU?$AAl?$AAt?$AAr?$AAa?$AAE?$AAd?$AAi?$AAt?$AA?2?$AAU?$AAe?$AAd?$AAi?$AAt?$AA3?$AA2?$AA?4?$AAI?$AAN?$AAI?$AA?$AA@ 004947a8     ClearDlg.obj
 0002:000017e8       ??_C@_1CO@MAGHABPJ@?$AAI?$AAD?$AAS?$AA_?$AAC?$AAL?$AAE?$AAA?$AAN?$AAI?$AAN?$AAG?$AA_?$AAU?$AAL?$AAT?$AAR?$AAA?$AAE?$AAD?$AAI?$AAT?$AA?$AA@ 004947e8     ClearDlg.obj
 0002:00001818       ??_C@_1DG@MOKGFHGC@?$AAI?$AAD?$AAS?$AA_?$AAC?$AAL?$AAE?$AAA?$AAN?$AAI?$AAN?$AAG?$AA_?$AAO?$AAF?$AAF?$AAI?$AAC?$AAE?$AAH?$AAI?$AAS?$AAT?$AAO?$AAR?$AAY?$AA?$AA@ 00494818     ClearDlg.obj
 0002:00001850       ??_C@_1DC@LCCKFMA@?$AA?2?$AAM?$AAi?$AAc?$AAr?$AAo?$AAs?$AAo?$AAf?$AAt?$AA?2?$AAO?$AAf?$AAf?$AAi?$AAc?$AAe?$AA?2?$AAR?$AAe?$AAc?$AAe?$AAn?$AAt?$AA?$AA@ 00494850     ClearDlg.obj
 0002:00001884       ??_C@_1DM@COICEJLK@?$AAI?$AAD?$AAS?$AA_?$AAC?$AAL?$AAE?$AAA?$AAN?$AAI?$AAN?$AAG?$AA_?$AAO?$AAF?$AAF?$AAI?$AAC?$AAE?$AAT?$AAE?$AAM?$AAP?$AAF?$AAO?$AAL?$AAD?$AAE?$AAR?$AA?$AA@ 00494884     ClearDlg.obj
 0002:000018c0       ??_C@_1DA@KHALDLEK@?$AAO?$AAu?$AAt?$AAl?$AAo?$AAo?$AAk?$AAS?$AAe?$AAc?$AAu?$AAr?$AAe?$AAT?$AAe?$AAm?$AAp?$AAF?$AAo?$AAl?$AAd?$AAe?$AAr?$AA?$AA@ 004948c0     ClearDlg.obj
 0002:000018f0       ??_C@_1GA@OBLFFAOL@?$AAS?$AAo?$AAf?$AAt?$AAw?$AAa?$AAr?$AAe?$AA?2?$AAM?$AAi?$AAc?$AAr?$AAo?$AAs?$AAo?$AAf?$AAt?$AA?2?$AAO?$AAf?$AAf?$AAi?$AAc?$AAe?$AA?2?$AA1?$AA1?$AA?4?$AA0?$AA?2?$AAO@ 004948f0     ClearDlg.obj
 0002:00001950       ??_C@_1DO@FENINNHI@?$AAI?$AAD?$AAS?$AA_?$AAC?$AAL?$AAE?$AAA?$AAN?$AAI?$AAN?$AAG?$AA_?$AAO?$AAU?$AAT?$AAL?$AAO?$AAO?$AAK?$AAT?$AAE?$AAM?$AAP?$AAF?$AAO?$AAL?$AAD?$AAE?$AAR?$AA?$AA@ 00494950     ClearDlg.obj
 0002:00001990       ??_C@_1HE@EJINNDBF@?$AAS?$AAo?$AAf?$AAt?$AAw?$AAa?$AAr?$AAe?$AA?2?$AAM?$AAi?$AAc?$AAr?$AAo?$AAs?$AAo?$AAf?$AAt?$AA?2?$AAW?$AAi?$AAn?$AAd?$AAo?$AAw?$AAs?$AA?2?$AAC?$AAu?$AAr?$AAr?$AAe@ 00494990     ClearDlg.obj
 0002:00001a04       ??_C@_1CK@NOONPAAO@?$AAI?$AAD?$AAS?$AA_?$AAC?$AAL?$AAE?$AAA?$AAN?$AAI?$AAN?$AAG?$AA_?$AAW?$AAO?$AAR?$AAD?$AAP?$AAA?$AAD?$AA?$AA@ 00494a04     ClearDlg.obj
 0002:00001a30       ??_C@_19LBFCMBEN@?$AAM?$AAR?$AAU?$AA9?$AA?$AA@ 00494a30     ClearDlg.obj
 0002:00001a3c       ??_C@_19JOOKGCI@?$AAM?$AAR?$AAU?$AA8?$AA?$AA@ 00494a3c     ClearDlg.obj
 0002:00001a48       ??_C@_19FBINLGHO@?$AAM?$AAR?$AAU?$AA7?$AA?$AA@ 00494a48     ClearDlg.obj
 0002:00001a54       ??_C@_19OJDBNBBL@?$AAM?$AAR?$AAU?$AA6?$AA?$AA@ 00494a54     ClearDlg.obj
 0002:00001a60       ??_C@_19PLIEHOPF@?$AAM?$AAR?$AAU?$AA5?$AA?$AA@ 00494a60     ClearDlg.obj
 0002:00001a70       ??_C@_1FO@BMPJPEJO@?$AAS?$AAo?$AAf?$AAt?$AAw?$AAa?$AAr?$AAe?$AA?2?$AAM?$AAi?$AAc?$AAr?$AAo?$AAs?$AAo?$AAf?$AAt?$AA?2?$AAO?$AAf?$AAf?$AAi?$AAc?$AAe?$AA?2?$AA1?$AA2?$AA?4?$AA0?$AA?2?$AAA@ 00494a70     ClearDlg.obj
 0002:00001ad0       ??_C@_1FO@DGEFEEBG@?$AAS?$AAo?$AAf?$AAt?$AAw?$AAa?$AAr?$AAe?$AA?2?$AAM?$AAi?$AAc?$AAr?$AAo?$AAs?$AAo?$AAf?$AAt?$AA?2?$AAO?$AAf?$AAf?$AAi?$AAc?$AAe?$AA?2?$AA1?$AA1?$AA?4?$AA0?$AA?2?$AAA@ 00494ad0     ClearDlg.obj
 0002:00001b30       ??_C@_1FO@JJABNGFB@?$AAS?$AAo?$AAf?$AAt?$AAw?$AAa?$AAr?$AAe?$AA?2?$AAM?$AAi?$AAc?$AAr?$AAo?$AAs?$AAo?$AAf?$AAt?$AA?2?$AAO?$AAf?$AAf?$AAi?$AAc?$AAe?$AA?2?$AA1?$AA0?$AA?4?$AA0?$AA?2?$AAA@ 00494b30     ClearDlg.obj
 0002:00001b90       ??_C@_1FM@BLAONKDE@?$AAS?$AAo?$AAf?$AAt?$AAw?$AAa?$AAr?$AAe?$AA?2?$AAM?$AAi?$AAc?$AAr?$AAo?$AAs?$AAo?$AAf?$AAt?$AA?2?$AAO?$AAf?$AAf?$AAi?$AAc?$AAe?$AA?2?$AA9?$AA?4?$AA0?$AA?2?$AAA?$AAc@ 00494b90     ClearDlg.obj
 0002:00001bec       ??_C@_19EDDIBJJA@?$AAM?$AAR?$AAU?$AA4?$AA?$AA@ 00494bec     ClearDlg.obj
 0002:00001bf8       ??_C@_19NOOPCBCJ@?$AAM?$AAR?$AAU?$AA3?$AA?$AA@ 00494bf8     ClearDlg.obj
 0002:00001c04       ??_C@_19GGFDEGEM@?$AAM?$AAR?$AAU?$AA2?$AA?$AA@ 00494c04     ClearDlg.obj
 0002:00001c10       ??_C@_1FM@LEEKEIHD@?$AAS?$AAo?$AAf?$AAt?$AAw?$AAa?$AAr?$AAe?$AA?2?$AAM?$AAi?$AAc?$AAr?$AAo?$AAs?$AAo?$AAf?$AAt?$AA?2?$AAO?$AAf?$AAf?$AAi?$AAc?$AAe?$AA?2?$AA8?$AA?4?$AA0?$AA?2?$AAA?$AAc@ 00494c10     ClearDlg.obj
 0002:00001c6c       ??_C@_19HEOGOJKC@?$AAM?$AAR?$AAU?$AA1?$AA?$AA@ 00494c6c     ClearDlg.obj
 0002:00001c78       ??_C@_1CI@KKCCHJJN@?$AAI?$AAD?$AAS?$AA_?$AAC?$AAL?$AAE?$AAA?$AAN?$AAI?$AAN?$AAG?$AA_?$AAA?$AAC?$AAC?$AAE?$AAS?$AAS?$AA?$AA@ 00494c78     ClearDlg.obj
 0002:00001ca0       ??_C@_1FE@JOAGDNN@?$AAS?$AAo?$AAf?$AAt?$AAw?$AAa?$AAr?$AAe?$AA?2?$AAM?$AAi?$AAc?$AAr?$AAo?$AAs?$AAo?$AAf?$AAt?$AA?2?$AAO?$AAf?$AAf?$AAi?$AAc?$AAe?$AA?2?$AA1?$AA2?$AA?4?$AA0?$AA?2?$AAP@ 00494ca0     ClearDlg.obj
 0002:00001cf8       ??_C@_1FE@ENEBEGMF@?$AAS?$AAo?$AAf?$AAt?$AAw?$AAa?$AAr?$AAe?$AA?2?$AAM?$AAi?$AAc?$AAr?$AAo?$AAs?$AAo?$AAf?$AAt?$AA?2?$AAO?$AAf?$AAf?$AAi?$AAc?$AAe?$AA?2?$AA1?$AA1?$AA?4?$AA0?$AA?2?$AAP@ 00494cf8     ClearDlg.obj
 0002:00001d50       ??_C@_1FE@HBCBKFMN@?$AAS?$AAo?$AAf?$AAt?$AAw?$AAa?$AAr?$AAe?$AA?2?$AAM?$AAi?$AAc?$AAr?$AAo?$AAs?$AAo?$AAf?$AAt?$AA?2?$AAO?$AAf?$AAf?$AAi?$AAc?$AAe?$AA?2?$AA1?$AA0?$AA?4?$AA0?$AA?2?$AAP@ 00494d50     ClearDlg.obj
 0002:00001da8       ??_C@_1FC@ONOFBOIN@?$AAS?$AAo?$AAf?$AAt?$AAw?$AAa?$AAr?$AAe?$AA?2?$AAM?$AAi?$AAc?$AAr?$AAo?$AAs?$AAo?$AAf?$AAt?$AA?2?$AAO?$AAf?$AAf?$AAi?$AAc?$AAe?$AA?2?$AA9?$AA?4?$AA0?$AA?2?$AAP?$AAo@ 00494da8     ClearDlg.obj
 0002:00001e00       ??_C@_1FC@NBIFPNIF@?$AAS?$AAo?$AAf?$AAt?$AAw?$AAa?$AAr?$AAe?$AA?2?$AAM?$AAi?$AAc?$AAr?$AAo?$AAs?$AAo?$AAf?$AAt?$AA?2?$AAO?$AAf?$AAf?$AAi?$AAc?$AAe?$AA?2?$AA8?$AA?4?$AA0?$AA?2?$AAP?$AAo@ 00494e00     ClearDlg.obj
 0002:00001e54       ??_C@_1CC@PIPLMNK@?$AAR?$AAe?$AAc?$AAe?$AAn?$AAt?$AA?5?$AAF?$AAi?$AAl?$AAe?$AA?5?$AAL?$AAi?$AAs?$AAt?$AA?$AA@ 00494e54     ClearDlg.obj
 0002:00001e78       ??_C@_1DA@DHKLMKCC@?$AAI?$AAD?$AAS?$AA_?$AAC?$AAL?$AAE?$AAA?$AAN?$AAI?$AAN?$AAG?$AA_?$AAP?$AAO?$AAW?$AAE?$AAR?$AAP?$AAO?$AAI?$AAN?$AAT?$AA?$AA@ 00494e78     ClearDlg.obj
 0002:00001ea8       ??_C@_1EK@OKIGINGI@?$AAS?$AAo?$AAf?$AAt?$AAw?$AAa?$AAr?$AAe?$AA?2?$AAM?$AAi?$AAc?$AAr?$AAo?$AAs?$AAo?$AAf?$AAt?$AA?2?$AAO?$AAf?$AAf?$AAi?$AAc?$AAe?$AA?2?$AA1?$AA2?$AA?4?$AA0?$AA?2?$AAE@ 00494ea8     ClearDlg.obj
 0002:00001ef8       ??_C@_1EK@EFCPMAKC@?$AAS?$AAo?$AAf?$AAt?$AAw?$AAa?$AAr?$AAe?$AA?2?$AAM?$AAi?$AAc?$AAr?$AAo?$AAs?$AAo?$AAf?$AAt?$AA?2?$AAO?$AAf?$AAf?$AAi?$AAc?$AAe?$AA?2?$AA1?$AA1?$AA?4?$AA0?$AA?2?$AAE@ 00494ef8     ClearDlg.obj
 0002:00001f48       ??_C@_1EK@CAEIPLOE@?$AAS?$AAo?$AAf?$AAt?$AAw?$AAa?$AAr?$AAe?$AA?2?$AAM?$AAi?$AAc?$AAr?$AAo?$AAs?$AAo?$AAf?$AAt?$AA?2?$AAO?$AAf?$AAf?$AAi?$AAc?$AAe?$AA?2?$AA1?$AA0?$AA?4?$AA0?$AA?2?$AAE@ 00494f48     ClearDlg.obj
 0002:00001f98       ??_C@_1EI@PJLKOKMH@?$AAS?$AAo?$AAf?$AAt?$AAw?$AAa?$AAr?$AAe?$AA?2?$AAM?$AAi?$AAc?$AAr?$AAo?$AAs?$AAo?$AAf?$AAt?$AA?2?$AAO?$AAf?$AAf?$AAi?$AAc?$AAe?$AA?2?$AA9?$AA?4?$AA0?$AA?2?$AAE?$AAx@ 00494f98     ClearDlg.obj
 0002:00001fe0       ??_C@_1EI@JMNNNBIB@?$AAS?$AAo?$AAf?$AAt?$AAw?$AAa?$AAr?$AAe?$AA?2?$AAM?$AAi?$AAc?$AAr?$AAo?$AAs?$AAo?$AAf?$AAt?$AA?2?$AAO?$AAf?$AAf?$AAi?$AAc?$AAe?$AA?2?$AA8?$AA?4?$AA0?$AA?2?$AAE?$AAx@ 00494fe0     ClearDlg.obj
 0002:00002028       ??_C@_1BK@IFBLBFC@?$AAR?$AAe?$AAc?$AAe?$AAn?$AAt?$AA?5?$AAF?$AAi?$AAl?$AAe?$AAs?$AA?$AA@ 00495028     ClearDlg.obj
 0002:00002044       ??_C@_1CG@HCNOPIAG@?$AAI?$AAD?$AAS?$AA_?$AAC?$AAL?$AAE?$AAA?$AAN?$AAI?$AAN?$AAG?$AA_?$AAE?$AAX?$AAC?$AAE?$AAL?$AA?$AA@ 00495044     ClearDlg.obj
 0002:00002070       ??_C@_1EI@JFJJEPOF@?$AAS?$AAo?$AAf?$AAt?$AAw?$AAa?$AAr?$AAe?$AA?2?$AAM?$AAi?$AAc?$AAr?$AAo?$AAs?$AAo?$AAf?$AAt?$AA?2?$AAO?$AAf?$AAf?$AAi?$AAc?$AAe?$AA?2?$AA1?$AA2?$AA?4?$AA0?$AA?2?$AAW@ 00495070     ClearDlg.obj
 0002:000020b8       ??_C@_1BC@JOKGPIJC@?$AAF?$AAi?$AAl?$AAe?$AA?5?$AAM?$AAR?$AAU?$AA?$AA@ 004950b8     ClearDlg.obj
 0002:000020d0       ??_C@_1FC@POEJDEEG@?$AAS?$AAo?$AAf?$AAt?$AAw?$AAa?$AAr?$AAe?$AA?2?$AAM?$AAi?$AAc?$AAr?$AAo?$AAs?$AAo?$AAf?$AAt?$AA?2?$AAO?$AAf?$AAf?$AAi?$AAc?$AAe?$AA?2?$AA1?$AA1?$AA?4?$AA0?$AA?2?$AAW@ 004950d0     ClearDlg.obj
 0002:00002128       ??_C@_1FC@PPPMMJFL@?$AAS?$AAo?$AAf?$AAt?$AAw?$AAa?$AAr?$AAe?$AA?2?$AAM?$AAi?$AAc?$AAr?$AAo?$AAs?$AAo?$AAf?$AAt?$AA?2?$AAO?$AAf?$AAf?$AAi?$AAc?$AAe?$AA?2?$AA1?$AA0?$AA?4?$AA0?$AA?2?$AAW@ 00495128     ClearDlg.obj
 0002:00002180       ??_C@_1FA@JEKGGDLD@?$AAS?$AAo?$AAf?$AAt?$AAw?$AAa?$AAr?$AAe?$AA?2?$AAM?$AAi?$AAc?$AAr?$AAo?$AAs?$AAo?$AAf?$AAt?$AA?2?$AAO?$AAf?$AAf?$AAi?$AAc?$AAe?$AA?2?$AA8?$AA?4?$AA0?$AA?2?$AAW?$AAo@ 00495180     ClearDlg.obj
 0002:000021d0       ??_C@_1FA@JFBDJOKO@?$AAS?$AAo?$AAf?$AAt?$AAw?$AAa?$AAr?$AAe?$AA?2?$AAM?$AAi?$AAc?$AAr?$AAo?$AAs?$AAo?$AAf?$AAt?$AA?2?$AAO?$AAf?$AAf?$AAi?$AAc?$AAe?$AA?2?$AA9?$AA?4?$AA0?$AA?2?$AAW?$AAo@ 004951d0     ClearDlg.obj
 0002:00002220       ??_C@_1BC@PFDDLKEP@?$AAS?$AAe?$AAt?$AAt?$AAi?$AAn?$AAg?$AAs?$AA?$AA@ 00495220     ClearDlg.obj
 0002:00002234       ??_C@_1CE@DAAGMFFM@?$AAI?$AAD?$AAS?$AA_?$AAC?$AAL?$AAE?$AAA?$AAN?$AAI?$AAN?$AAG?$AA_?$AAW?$AAO?$AAR?$AAD?$AA?$AA@ 00495234     ClearDlg.obj
 0002:00002258       ??_C@_1CK@LKOMDCLI@?$AAI?$AAD?$AAS?$AA_?$AAC?$AAL?$AAE?$AAA?$AAN?$AAI?$AAN?$AAG?$AA_?$AAC?$AAO?$AAO?$AAK?$AAI?$AAE?$AAS?$AA?$AA@ 00495258     ClearDlg.obj
 0002:00002284       ??_C@_1DI@FLHJKKGD@?$AAS?$AAO?$AAF?$AAT?$AAW?$AAA?$AAR?$AAE?$AA?2?$AAC?$AAy?$AAb?$AAe?$AAr?$AAL?$AAi?$AAn?$AAk?$AA?2?$AAP?$AAo?$AAw?$AAe?$AAr?$AAD?$AAV?$AAD?$AA?$AA@ 00495284     ClearDlg.obj
 0002:000022bc       ??_C@_1BE@PBBAHMLH@?$AAU?$AAI?$AAI?$AAn?$AAi?$AAt?$AAD?$AAi?$AAr?$AA?$AA@ 004952bc     ClearDlg.obj
 0002:000022d0       ??_C@_1EA@GLPIGAGD@?$AA?2?$AAC?$AAy?$AAb?$AAe?$AAr?$AAL?$AAi?$AAn?$AAk?$AA?2?$AAP?$AAo?$AAw?$AAe?$AAr?$AAD?$AAV?$AAD?$AA?2?$AAD?$AAe?$AAf?$AAa?$AAu?$AAl?$AAt?$AA?4?$AAP?$AAL?$AAS?$AA?$AA@ 004952d0     ClearDlg.obj
 0002:00002310       ??_C@_1CM@MLGLJLLK@?$AAI?$AAD?$AAS?$AA_?$AAC?$AAL?$AAE?$AAA?$AAN?$AAI?$AAN?$AAG?$AA_?$AAP?$AAO?$AAW?$AAE?$AAR?$AAD?$AAV?$AAD?$AA?$AA@ 00495310     ClearDlg.obj
 0002:00002340       ??_C@_1GC@BHPJINMC@?$AAS?$AAo?$AAf?$AAt?$AAw?$AAa?$AAr?$AAe?$AA?2?$AAR?$AAe?$AAa?$AAl?$AAN?$AAe?$AAt?$AAw?$AAo?$AAr?$AAk?$AAs?$AA?2?$AAR?$AAe?$AAa?$AAl?$AAP?$AAl?$AAa?$AAy?$AAe?$AAr@ 00495340     ClearDlg.obj
 0002:000023a4       ??_C@_1CC@GLIKEFEC@?$AAM?$AAo?$AAs?$AAt?$AAR?$AAe?$AAc?$AAe?$AAn?$AAt?$AAC?$AAl?$AAi?$AAp?$AAs?$AA1?$AA?$AA@ 004953a4     ClearDlg.obj
 0002:000023c8       ??_C@_1DA@HGOIIHII@?$AAI?$AAD?$AAS?$AA_?$AAC?$AAL?$AAE?$AAA?$AAN?$AAI?$AAN?$AAG?$AA_?$AAR?$AAE?$AAA?$AAL?$AAP?$AAL?$AAA?$AAY?$AAE?$AAR?$AA?$AA@ 004953c8     ClearDlg.obj
 0002:000023f8       ??_C@_1EM@CLKLMCOF@?$AAS?$AAo?$AAf?$AAt?$AAw?$AAa?$AAr?$AAe?$AA?2?$AAM?$AAi?$AAc?$AAr?$AAo?$AAs?$AAo?$AAf?$AAt?$AA?2?$AAM?$AAe?$AAd?$AAi?$AAa?$AAP?$AAl?$AAa?$AAy?$AAe?$AAr?$AA?2?$AAP@ 004953f8     ClearDlg.obj
 0002:00002444       ??_C@_1BO@FGFDMGBK@?$AAR?$AAe?$AAc?$AAe?$AAn?$AAt?$AAF?$AAi?$AAl?$AAe?$AAL?$AAi?$AAs?$AAt?$AA?$AA@ 00495444     ClearDlg.obj
 0002:00002464       ??_C@_1DE@GAAKFJNE@?$AAI?$AAD?$AAS?$AA_?$AAC?$AAL?$AAE?$AAA?$AAN?$AAI?$AAN?$AAG?$AA_?$AAM?$AAE?$AAD?$AAI?$AAA?$AAL?$AAP?$AAL?$AAA?$AAY?$AAE?$AAR?$AA?$AA@ 00495464     ClearDlg.obj
 0002:00002498       ??_C@_1BE@OPPAHBEF@?$AAT?$AAy?$AAp?$AAe?$AAd?$AAU?$AAR?$AAL?$AAs?$AA?$AA@ 00495498     ClearDlg.obj
 0002:000024ac       ??_C@_1DE@JAJPIJIH@?$AAI?$AAD?$AAS?$AA_?$AAC?$AAL?$AAE?$AAA?$AAN?$AAI?$AAN?$AAG?$AA_?$AAI?$AAE?$AAA?$AAD?$AAD?$AAR?$AAE?$AAS?$AAS?$AAB?$AAA?$AAR?$AA?$AA@ 004954ac     ClearDlg.obj
 0002:000024e0       ??_C@_1BE@JKPNDCEC@?$AA?2?$AAP?$AAr?$AAe?$AAf?$AAe?$AAt?$AAc?$AAh?$AA?$AA@ 004954e0     ClearDlg.obj
 0002:000024f4       ??_C@_1DC@ELMLIPOD@?$AAI?$AAD?$AAS?$AA_?$AAC?$AAL?$AAE?$AAA?$AAN?$AAI?$AAN?$AAG?$AA_?$AAP?$AAR?$AAE?$AAR?$AAE?$AAA?$AAD?$AAF?$AAI?$AAL?$AAE?$AA?$AA@ 004954f4     ClearDlg.obj
 0002:00002528       ??_C@_1IC@PGABIOJL@?$AAS?$AAo?$AAf?$AAt?$AAw?$AAa?$AAr?$AAe?$AA?2?$AAC?$AAl?$AAa?$AAs?$AAs?$AAe?$AAs?$AA?2?$AAL?$AAo?$AAc?$AAa?$AAl?$AA?5?$AAS?$AAe?$AAt?$AAt?$AAi?$AAn?$AAg?$AAs?$AA?2@ 00495528     ClearDlg.obj
 0002:000025ac       ??_C@_1BC@JJJFLGEP@?$AAM?$AAu?$AAi?$AAC?$AAa?$AAc?$AAh?$AAe?$AA?$AA@ 004955ac     ClearDlg.obj
 0002:000025c0       ??_C@_1CM@CCIFBEHK@?$AAI?$AAD?$AAS?$AA_?$AAC?$AAL?$AAE?$AAA?$AAN?$AAI?$AAN?$AAG?$AA_?$AAO?$AAP?$AAE?$AAN?$AAF?$AAI?$AAL?$AAE?$AA?$AA@ 004955c0     ClearDlg.obj
 0002:000025f0       ??_C@_1FE@FKJBAGFL@?$AAS?$AAo?$AAf?$AAt?$AAw?$AAa?$AAr?$AAe?$AA?2?$AAM?$AAi?$AAc?$AAr?$AAo?$AAs?$AAo?$AAf?$AAt?$AA?2?$AAS?$AAe?$AAa?$AAr?$AAc?$AAh?$AA?5?$AAA?$AAs?$AAs?$AAi?$AAs?$AAt@ 004955f0     ClearDlg.obj
 0002:00002644       ??_C@_19DHOJNEON@?$AA5?$AA6?$AA0?$AA3?$AA?$AA@ 00495644     ClearDlg.obj
 0002:00002650       ??_C@_1CO@GKKFBLLO@?$AAI?$AAD?$AAS?$AA_?$AAC?$AAL?$AAE?$AAA?$AAN?$AAI?$AAN?$AAG?$AA_?$AAW?$AAI?$AAN?$AAS?$AAE?$AAA?$AAR?$AAC?$AAH?$AA?$AA@ 00495650     ClearDlg.obj
 0002:00002680       ??_C@_1CO@LLNFGGPJ@?$AAI?$AAD?$AAS?$AA_?$AAC?$AAL?$AAE?$AAA?$AAN?$AAI?$AAN?$AAG?$AA_?$AAC?$AAL?$AAI?$AAP?$AAB?$AAO?$AAA?$AAR?$AAD?$AA?$AA@ 00495680     ClearDlg.obj
 0002:000026b0       ??_C@_1GG@BOCMHPKL@?$AAS?$AAo?$AAf?$AAt?$AAw?$AAa?$AAr?$AAe?$AA?2?$AAM?$AAi?$AAc?$AAr?$AAo?$AAs?$AAo?$AAf?$AAt?$AA?2?$AAW?$AAi?$AAn?$AAd?$AAo?$AAw?$AAs?$AA?2?$AAC?$AAu?$AAr?$AAr?$AAe@ 004956b0     ClearDlg.obj
 0002:00002718       ??_C@_1O@JEOLMKHP@?$AAR?$AAu?$AAn?$AAM?$AAR?$AAU?$AA?$AA@ 00495718     ClearDlg.obj
 0002:00002728       ??_C@_1CO@DDJAMGKK@?$AAI?$AAD?$AAS?$AA_?$AAC?$AAL?$AAE?$AAA?$AAN?$AAI?$AAN?$AAG?$AA_?$AAR?$AAU?$AAN?$AAD?$AAI?$AAA?$AAL?$AAO?$AAG?$AA?$AA@ 00495728     ClearDlg.obj
 0002:00002758       ??_C@_1DE@HMLDEOHK@?$AAI?$AAD?$AAS?$AA_?$AAC?$AAL?$AAE?$AAA?$AAN?$AAI?$AAN?$AAG?$AA_?$AAN?$AAE?$AAT?$AAW?$AAO?$AAR?$AAK?$AAP?$AAL?$AAA?$AAC?$AAE?$AA?$AA@ 00495758     ClearDlg.obj
 0002:0000278c       ??_C@_1DE@CNACFJCC@?$AAI?$AAD?$AAS?$AA_?$AAC?$AAL?$AAE?$AAA?$AAN?$AAI?$AAN?$AAG?$AA_?$AAS?$AAT?$AAA?$AAR?$AAT?$AAM?$AAE?$AAN?$AAU?$AAD?$AAO?$AAC?$AA?$AA@ 0049578c     ClearDlg.obj
 0002:000027c0       ??_C@_1DG@CFINHBBE@?$AAI?$AAD?$AAS?$AA_?$AAC?$AAL?$AAE?$AAA?$AAN?$AAI?$AAN?$AAG?$AA_?$AAW?$AAI?$AAN?$AAT?$AAE?$AAM?$AAP?$AAF?$AAO?$AAL?$AAD?$AAE?$AAR?$AA?$AA@ 004957c0     ClearDlg.obj
 0002:000027f8       ??_C@_1CO@OFDDGGGA@?$AAC?$AAL?$AAE?$AAA?$AAN?$AAI?$AAN?$AAG?$AA_?$AAW?$AAI?$AAN?$AAT?$AAE?$AAM?$AAP?$AAF?$AAO?$AAL?$AAD?$AAE?$AAR?$AA?$AA@ 004957f8     ClearDlg.obj
 0002:00002828       ??_C@_1GE@FDEGPILF@?$AAS?$AAo?$AAf?$AAt?$AAw?$AAa?$AAr?$AAe?$AA?2?$AAM?$AAi?$AAc?$AAr?$AAo?$AAs?$AAo?$AAf?$AAt?$AA?2?$AAI?$AAn?$AAt?$AAe?$AAr?$AAn?$AAe?$AAt?$AA?5?$AAE?$AAx?$AAp?$AAl@ 00495828     ClearDlg.obj
 0002:0000288c       ??_C@_1CI@HKDFOGMO@?$AAI?$AAD?$AAS?$AA_?$AAC?$AAL?$AAE?$AAA?$AAN?$AAI?$AAN?$AAG?$AA_?$AAI?$AAE?$AAF?$AAO?$AAR?$AAM?$AA?$AA@ 0049588c     ClearDlg.obj
 0002:000028b4       ??_C@_1BO@NLKHLJBH@?$AAC?$AAL?$AAE?$AAA?$AAN?$AAI?$AAN?$AAG?$AAI?$AAE?$AAF?$AAO?$AAR?$AAM?$AA?$AA@ 004958b4     ClearDlg.obj
 0002:000028d8       ??_C@_1EK@BEFPGINO@?$AAS?$AAo?$AAf?$AAt?$AAw?$AAa?$AAr?$AAe?$AA?2?$AAM?$AAi?$AAc?$AAr?$AAo?$AAs?$AAo?$AAf?$AAt?$AA?2?$AAI?$AAn?$AAt?$AAe?$AAr?$AAn?$AAe?$AAt?$AA?5?$AAE?$AAx?$AAp?$AAl@ 004958d8     ClearDlg.obj
 0002:00002924       ??_C@_1BK@LEDDNICJ@?$AAI?$AAn?$AAt?$AAe?$AAl?$AAl?$AAi?$AAF?$AAo?$AAr?$AAm?$AAs?$AA?$AA@ 00495924     ClearDlg.obj
 0002:00002940       ??_C@_1DA@GOLHEKBM@?$AAI?$AAD?$AAS?$AA_?$AAC?$AAL?$AAE?$AAA?$AAN?$AAI?$AAN?$AAG?$AA_?$AAI?$AAE?$AAP?$AAA?$AAS?$AAS?$AAW?$AAO?$AAR?$AAD?$AA?$AA@ 00495940     ClearDlg.obj
 0002:00002970       ??_C@_1CG@LPJBLPBL@?$AAC?$AAL?$AAE?$AAA?$AAN?$AAI?$AAN?$AAG?$AAI?$AAE?$AAP?$AAA?$AAS?$AAS?$AAW?$AAO?$AAR?$AAD?$AA?$AA@ 00495970     ClearDlg.obj
 0002:00002998       ??_C@_19KGEMHLFE@?$AAD?$AAD?$AAD?$AAD?$AA?$AA@ 00495998     ClearDlg.obj
 0002:000029a4       ??_C@_17LHLFGLJB@?$AAD?$AAD?$AAD?$AA?$AA@ 004959a4     ClearDlg.obj
 0002:000029ac       ??_C@_1DK@DPLFGMGP@?$AAI?$AAD?$AAS?$AA_?$AAC?$AAL?$AAE?$AAA?$AAN?$AAP?$AAR?$AAI?$AAV?$AA_?$AAI?$AAN?$AAI?$AAT?$AAC?$AAO?$AAM?$AAF?$AAA?$AAI?$AAL?$AAU?$AAR?$AAE?$AA?$AA@ 004959ac     ClearDlg.obj
 0002:000029e8       ??_C@_1BO@ELDHGCIP@?$AAI?$AAN?$AAI?$AAT?$AAC?$AAO?$AAM?$AAF?$AAA?$AAI?$AAL?$AAU?$AAR?$AAE?$AA?$AA@ 004959e8     ClearDlg.obj
 0002:00002a08       ??_C@_1DA@HDPJHCO@?$AAI?$AAD?$AAS?$AA_?$AAC?$AAL?$AAE?$AAA?$AAN?$AAI?$AAN?$AAG?$AA_?$AAW?$AAE?$AAB?$AAH?$AAI?$AAS?$AAT?$AAO?$AAR?$AAY?$AA?$AA@ 00495a08     ClearDlg.obj
 0002:00002a38       ??_C@_1CG@NGBJGCCJ@?$AAC?$AAL?$AAE?$AAA?$AAN?$AAI?$AAN?$AAG?$AAW?$AAE?$AAB?$AAH?$AAI?$AAS?$AAT?$AAO?$AAR?$AAY?$AA?$AA@ 00495a38     ClearDlg.obj
 0002:00002a60       ??_C@_1CK@MBOENJKL@?$AAI?$AAD?$AAS?$AA_?$AAC?$AAL?$AAE?$AAA?$AAN?$AAI?$AAN?$AAG?$AA_?$AAT?$AAE?$AAM?$AAP?$AAW?$AAE?$AAB?$AA?$AA@ 00495a60     ClearDlg.obj
 0002:00002a8c       ??_C@_13FPGAJAPJ@?$AA?2?$AA?$AA@ 00495a8c     ClearDlg.obj
 0002:00002a90       ??_C@_1BE@DMPMACBK@?$AAi?$AAn?$AAd?$AAe?$AAx?$AA?4?$AAd?$AAa?$AAt?$AA?$AA@ 00495a90     ClearDlg.obj
 0002:00002aa4       ??_C@_1BI@IBKJFPKC@?$AAd?$AAe?$AAs?$AAk?$AAt?$AAo?$AAp?$AA?4?$AAi?$AAn?$AAi?$AA?$AA@ 00495aa4     ClearDlg.obj
 0002:00002abc       ??_C@_15DDHGOCBH@?$AA?4?$AA?4?$AA?$AA@ 00495abc     ClearDlg.obj
 0002:00002ac4       ??_C@_13JOFGPIOO@?$AA?4?$AA?$AA@ 00495ac4     ClearDlg.obj
 0002:00002ac8       ??_C@_17ECHFBE@?$AA?$CK?$AA?4?$AA?$CK?$AA?$AA@ 00495ac8     ClearDlg.obj
 0002:00002ad0       ??_C@_19CFMCKEMN@?$AA?2?$AA?$CK?$AA?4?$AA?$CK?$AA?$AA@ 00495ad0     ClearDlg.obj
 0002:00002ae0       ??_C@_1FG@MFFOEHKB@?$AA?2?$AAD?$AAa?$AAt?$AAa?$AA?2?$AAe?$AA1?$AA6?$AA1?$AA2?$AA5?$AA5?$AAa?$AA?9?$AA3?$AA7?$AAc?$AA3?$AA?9?$AA1?$AA1?$AAd?$AA2?$AA?9?$AAb?$AAc?$AAa?$AAa?$AA?9?$AA0?$AA0@ 00495ae0     ClearDlg.obj
 0002:00002b38       ??_C@_1EM@BKPBMPFC@?$AA?2?$AAe?$AA1?$AA6?$AA1?$AA2?$AA5?$AA5?$AAa?$AA?9?$AA3?$AA7?$AAc?$AA3?$AA?9?$AA1?$AA1?$AAd?$AA2?$AA?9?$AAb?$AAc?$AAa?$AAa?$AA?9?$AA0?$AA0?$AAc?$AA0?$AA4?$AAf?$AAd@ 00495b38     ClearDlg.obj
 0002:00002b84       ??_C@_1M@CFGCPGFD@?$AA?2?$AAD?$AAa?$AAt?$AAa?$AA?$AA@ 00495b84     ClearDlg.obj
 0002:00002b90       ??_C@_1GM@JNFECJKB@?$AAS?$AAo?$AAf?$AAt?$AAw?$AAa?$AAr?$AAe?$AA?2?$AAM?$AAi?$AAc?$AAr?$AAo?$AAs?$AAo?$AAf?$AAt?$AA?2?$AAP?$AAr?$AAo?$AAt?$AAe?$AAc?$AAt?$AAe?$AAd?$AA?5?$AAS?$AAt?$AAo@ 00495b90     ClearDlg.obj
 0002:00002bfc       ??_C@_13IMODFHAA@?$AA?9?$AA?$AA@ 00495bfc     ClearDlg.obj
 0002:00002c00       ??_C@_17IJMNDCL@?$AA?$CF?$AAl?$AAu?$AA?$AA@ 00495c00     ClearDlg.obj
 0002:00002c08       ??_C@_1BA@CPCFMBAJ@?$AAS?$AA?9?$AA1?$AA?9?$AA?$CF?$AAl?$AAu?$AA?$AA@ 00495c08     ClearDlg.obj
 0002:00002c18       ??_C@_19EKJEMHGI@?$AA?4?$AAL?$AAN?$AAK?$AA?$AA@ 00495c18     ClearDlg.obj
 0002:00002c24       ??_C@_19BEHMAPDG@?$AA?4?$AAl?$AAn?$AAk?$AA?$AA@ 00495c24     ClearDlg.obj
 0002:00002c30       ??_C@_1M@HOCFJCLG@?$AA?$CK?$AA?4?$AAl?$AAn?$AAk?$AA?$AA@ 00495c30     ClearDlg.obj
 0002:00002c3c       ??_C@_1O@NJLFHHKO@?$AA?2?$AA?$CK?$AA?4?$AAl?$AAn?$AAk?$AA?$AA@ 00495c3c     ClearDlg.obj
 0002:00002c4c       ??_C@_0L@IBICDCHM@?$CFs?$FL?$CFd?$FN?3?5?$CFs?$AA@ 00495c4c     CppSQLite3.obj
 0002:00002c57       ??_C@_00CNPNBAHC@?$AA@     00495c57     CppSQLite3.obj
 0002:00002c5c       ??_7CppSQLite3Exception@@6B@ 00495c5c     CppSQLite3.obj
 0002:00002c60       ??_C@_02DKCKIIND@?$CFs?$AA@ 00495c60     CppSQLite3.obj
 0002:00002c64       ??_C@_0O@BAEJJDKB@UNKNOWN_ERROR?$AA@ 00495c64     CppSQLite3.obj
 0002:00002c74       ??_C@_0BA@EFEEDEI@CPPSQLITE_ERROR?$AA@ 00495c74     CppSQLite3.obj
 0002:00002c84       ??_C@_0M@CDMBFBFC@SQLITE_DONE?$AA@ 00495c84     CppSQLite3.obj
 0002:00002c90       ??_C@_0L@PAPCPJLD@SQLITE_ROW?$AA@ 00495c90     CppSQLite3.obj
 0002:00002c9c       ??_C@_0N@GBHDMBEA@SQLITE_RANGE?$AA@ 00495c9c     CppSQLite3.obj
 0002:00002cac       ??_C@_0O@MMFFEBJH@SQLITE_FORMAT?$AA@ 00495cac     CppSQLite3.obj
 0002:00002cbc       ??_C@_0M@HAJKDBDC@SQLITE_AUTH?$AA@ 00495cbc     CppSQLite3.obj
 0002:00002cc8       ??_C@_0N@BNAEKKKK@SQLITE_NOLFS?$AA@ 00495cc8     CppSQLite3.obj
 0002:00002cd8       ??_C@_0O@PMLNPELO@SQLITE_MISUSE?$AA@ 00495cd8     CppSQLite3.obj
 0002:00002ce8       ??_C@_0BA@JHOKMLPE@SQLITE_MISMATCH?$AA@ 00495ce8     CppSQLite3.obj
 0002:00002cf8       ??_C@_0BC@JCKACJPO@SQLITE_CONSTRAINT?$AA@ 00495cf8     CppSQLite3.obj
 0002:00002d0c       ??_C@_0O@JDPLJPDP@SQLITE_TOOBIG?$AA@ 00495d0c     CppSQLite3.obj
 0002:00002d1c       ??_C@_0O@FPDKIKDJ@SQLITE_SCHEMA?$AA@ 00495d1c     CppSQLite3.obj
 0002:00002d2c       ??_C@_0N@PCIBHOLK@SQLITE_EMPTY?$AA@ 00495d2c     CppSQLite3.obj
 0002:00002d3c       ??_C@_0BA@HAJLALGB@SQLITE_PROTOCOL?$AA@ 00495d3c     CppSQLite3.obj
 0002:00002d4c       ??_C@_0BA@MMJIFHIM@SQLITE_CANTOPEN?$AA@ 00495d4c     CppSQLite3.obj
 0002:00002d5c       ??_C@_0M@LEODNKOO@SQLITE_FULL?$AA@ 00495d5c     CppSQLite3.obj
 0002:00002d68       ??_C@_0BA@GEIJDFKA@SQLITE_NOTFOUND?$AA@ 00495d68     CppSQLite3.obj
 0002:00002d78       ??_C@_0P@MCFCKNNF@SQLITE_CORRUPT?$AA@ 00495d78     CppSQLite3.obj
 0002:00002d88       ??_C@_0N@HPDNOPHF@SQLITE_IOERR?$AA@ 00495d88     CppSQLite3.obj
 0002:00002d98       ??_C@_0BB@FNHFLBEN@SQLITE_INTERRUPT?$AA@ 00495d98     CppSQLite3.obj
 0002:00002dac       ??_C@_0BA@LMGDOCID@SQLITE_READONLY?$AA@ 00495dac     CppSQLite3.obj
 0002:00002dbc       ??_C@_0N@HDLPEMEJ@SQLITE_NOMEM?$AA@ 00495dbc     CppSQLite3.obj
 0002:00002dcc       ??_C@_0O@FNAFEFLK@SQLITE_LOCKED?$AA@ 00495dcc     CppSQLite3.obj
 0002:00002ddc       ??_C@_0M@GBKMHOHH@SQLITE_BUSY?$AA@ 00495ddc     CppSQLite3.obj
 0002:00002de8       ??_C@_0N@FCBJOOEL@SQLITE_ABORT?$AA@ 00495de8     CppSQLite3.obj
 0002:00002df8       ??_C@_0M@EPJFAGI@SQLITE_PERM?$AA@ 00495df8     CppSQLite3.obj
 0002:00002e04       ??_C@_0BA@JGDLGEMB@SQLITE_INTERNAL?$AA@ 00495e04     CppSQLite3.obj
 0002:00002e14       ??_C@_0N@EJLPCDDI@SQLITE_ERROR?$AA@ 00495e14     CppSQLite3.obj
 0002:00002e24       ??_C@_09HIPHMGOA@SQLITE_OK?$AA@ 00495e24     CppSQLite3.obj
 0002:00002e30       ??_C@_0BH@DBCLIABC@Cannot?5allocate?5memory?$AA@ 00495e30     CppSQLite3.obj
 0002:00002e48       ??_C@_0BF@FOIEFOMO@Cannot?5decode?5binary?$AA@ 00495e48     CppSQLite3.obj
 0002:00002e64       ??_7CppSQLite3Query@@6B@   00495e64     CppSQLite3.obj
 0002:00002e68       ??_C@_0BO@PGKOCGAN@Invalid?5field?5index?5requested?$AA@ 00495e68     CppSQLite3.obj
 0002:00002e88       ??_C@_0BN@NJACLMPI@Invalid?5field?5name?5requested?$AA@ 00495e88     CppSQLite3.obj
 0002:00002ea8       ??_C@_0BN@NBBBEKOF@Null?5Virtual?5Machine?5pointer?$AA@ 00495ea8     CppSQLite3.obj
 0002:00002ecc       ??_7CppSQLite3Table@@6B@   00495ecc     CppSQLite3.obj
 0002:00002ed0       ??_C@_0BM@ENKPIMON@Invalid?5row?5index?5requested?$AA@ 00495ed0     CppSQLite3.obj
 0002:00002eec       ??_C@_0BF@LPOPBFBJ@Null?5Results?5pointer?$AA@ 00495eec     CppSQLite3.obj
 0002:00002f08       ??_7CppSQLite3Statement@@6B@ 00495f08     CppSQLite3.obj
 0002:00002f0c       ??_C@_0BL@KGDFOOAO@Error?5binding?5string?5param?$AA@ 00495f0c     CppSQLite3.obj
 0002:00002f28       ??_C@_0BI@DEDJCBKK@Error?5binding?5int?5param?$AA@ 00495f28     CppSQLite3.obj
 0002:00002f40       ??_C@_0BL@KPMDMGPB@Error?5binding?5double?5param?$AA@ 00495f40     CppSQLite3.obj
 0002:00002f5c       ??_C@_0BJ@DDEPMLG@Error?5binding?5blob?5param?$AA@ 00495f5c     CppSQLite3.obj
 0002:00002f78       ??_C@_0BJ@EMNEIGFG@Error?5binding?5NULL?5param?$AA@ 00495f78     CppSQLite3.obj
 0002:00002f94       ??_C@_0BC@OJBCFODA@Database?5not?5open?$AA@ 00495f94     CppSQLite3.obj
 0002:00002fac       ??_7CppSQLite3DB@@6B@      00495fac     CppSQLite3.obj
 0002:00002fb0       ??_C@_0EE@NJOPNEKP@select?5count?$CI?$CK?$CJ?5from?5sqlite_mast@ 00495fb0     CppSQLite3.obj
 0002:00002ff4       ??_C@_0BF@BADLIHJE@Invalid?5scalar?5query?$AA@ 00495ff4     CppSQLite3.obj
 0002:00003038       ??_C@_1EO@MNDPLDEJ@?$AAd?$AA?3?$AA?2?$AAm?$AAy?$AA?5?$AAp?$AAr?$AAo?$AAg?$AAr?$AAa?$AAm?$AA?2?$AAt?$AA2?$AA?2?$AAh?$AAi?$AAd?$AAe?$AAd?$AAr?$AAa?$AAg?$AAo?$AAn?$AA?2?$AAc?$AAw?$AAe?$AAb@ 00496038     CWebPage.obj
 0002:00003088       ??_C@_1BI@KIAFJAPF@?$AAa?$AAb?$AAo?$AAu?$AAt?$AA?3?$AAb?$AAl?$AAa?$AAn?$AAk?$AA?$AA@ 00496088     CWebPage.obj
 0002:000030a0       ??_C@_1BK@PANEPNOB@?$AAM?$AAy?$AA?5?$AAH?$AAo?$AAs?$AAt?$AA?5?$AAN?$AAa?$AAm?$AAe?$AA?$AA@ 004960a0     CWebPage.obj
 0002:000030bc       ??_C@_08CJKOCAIG@?2HDDB?4db?$AA@ 004960bc     DBClass.obj
 0002:000030cc       ??_7DBClass@@6B@           004960cc     DBClass.obj
 0002:000030d0       ??_C@_0DO@EHKJDINL@create?5table?5AutoReserve?$CIProcess@ 004960d0     DBClass.obj
 0002:00003110       ??_C@_0M@EHMIKEJF@AutoReserve?$AA@ 00496110     DBClass.obj
 0002:00003120       ??_C@_0EK@DIFLCBNN@create?5table?5HabitMemory?$CIProcess@ 00496120     DBClass.obj
 0002:0000316c       ??_C@_0M@PIFNGNMG@HabitMemory?$AA@ 0049616c     DBClass.obj
 0002:00003178       ??_C@_0HF@JJMGCHPJ@create?5table?5BKHotkey?$CIaHK?5int?0?5P@ 00496178     DBClass.obj
 0002:000031f0       ??_C@_08EDLHGFID@BKHotkey?$AA@ 004961f0     DBClass.obj
 0002:00003200       ??_C@_0EG@EJHEBHIG@create?5table?5SizePos?$CIid?5int?0?5lef@ 00496200     DBClass.obj
 0002:00003248       ??_C@_07CIKFKCJF@SizePos?$AA@ 00496248     DBClass.obj
 0002:00003250       ??_C@_0FG@ECAIIOCF@create?5table?5IconTitle?$CIProcessNa@ 00496250     DBClass.obj
 0002:000032a8       ??_C@_09HHFBEGJN@IconTitle?$AA@ 004962a8     DBClass.obj
 0002:000032b4       ??_C@_0DI@DHNCPONF@create?5table?5AutoHide?$CIProcessNam@ 004962b4     DBClass.obj
 0002:000032ec       ??_C@_08KMNDHNEJ@AutoHide?$AA@ 004962ec     DBClass.obj
 0002:000032f8       ??_C@_0CK@EDEJNMNE@insert?5into?5AutoHide?5values?5?$CI?8?$CFs@ 004962f8     DBClass.obj
 0002:00003324       ??_C@_0DB@PMIBJJJL@select?5?$CK?5from?5AutoHide?5where?5Pro@ 00496324     DBClass.obj
 0002:00003358       ??_C@_0CP@OEKNKDJC@delete?5from?5AutoHide?5where?5Proce@ 00496358     DBClass.obj
 0002:00003388       ??_C@_0CL@NDGPICKP@insert?5into?5AutoReserve?5values?5?$CI@ 00496388     DBClass.obj
 0002:000033b4       ??_C@_0CO@OPKFMGHG@insert?5into?5SizePos?5values?5?$CI?$CFd?0?$CF@ 004963b4     DBClass.obj
 0002:000033e4       ??_C@_0DA@GOLADOBN@insert?5into?5IconTitle?5values?5?$CI?8?$CF@ 004963e4     DBClass.obj
 0002:00003414       ??_C@_0DL@FNAOHEKK@update?5IconTitle?5set?5Title?5?$DN?5?8?$CFs@ 00496414     DBClass.obj
 0002:00003450       ??_C@_0DO@MOBFDNJN@update?5IconTitle?5set?5IconPath?5?$DN?5@ 00496450     DBClass.obj
 0002:00003490       ??_C@_0DC@PLGBLCKA@select?5?$CK?5from?5IconTitle?5where?5Pr@ 00496490     DBClass.obj
 0002:000034c8       ??_C@_0FA@MBCDMOFI@update?5SizePos?5set?5left?5?$DN?5?$CFd?5?0?5r@ 004964c8     DBClass.obj
 0002:00003518       ??_C@_0CO@MKMFEGMG@insert?5into?5HabitMemory?5values?5?$CI@ 00496518     DBClass.obj
 0002:00003548       ??_C@_0DO@CLENEPKF@insert?5into?5BKHotkey?5values?5?$CI?$CFd?0@ 00496548     DBClass.obj
 0002:00003588       ??_C@_0IJ@KJPDCBBA@update?5BKHotkey?5set?5aHK?5?$DN?5?$CFd?5?0PI@ 00496588     DBClass.obj
 0002:00003614       ??_C@_0DB@JFFGICGF@select?5?$CK?5from?5BKHotkey?5where?5Pro@ 00496614     DBClass.obj
 0002:00003648       ??_C@_0DA@HLJHBGOJ@delete?5from?5BKHotkey?5where?5MF?5?$DN?5@ 00496648     DBClass.obj
 0002:00003678       ??_C@_0DC@CFDICHH@select?5?$CK?5from?5BKHotkey?5where?5MF?5@ 00496678     DBClass.obj
 0002:000036ac       ??_C@_0DE@NAJLDPFJ@select?5?$CK?5from?5AutoReserve?5where?5@ 004966ac     DBClass.obj
 0002:000036e0       ??_C@_0DE@HHDBFFBK@select?5?$CK?5from?5HabitMemory?5where?5@ 004966e0     DBClass.obj
 0002:00003714       ??_C@_0DC@MIDLLGFE@delete?5from?5AutoReserve?5where?5Pr@ 00496714     DBClass.obj
 0002:00003748       ??_C@_0DA@ICKFCGDO@delete?5from?5IconTitle?5where?5Proc@ 00496748     DBClass.obj
 0002:00003778       ??_C@_0DP@CHFLJFNN@select?5IconPath?0Title?5from?5IconT@ 00496778     DBClass.obj
 0002:000037b8       ??_C@_0DJ@LJDGAMGC@update?5IconTitle?5set?5Title?5?$DN?5?8?8w@ 004967b8     DBClass.obj
 0002:000037f4       ??_C@_0DM@LIHFNBDL@update?5IconTitle?5set?5IconPath?5?$DN?5@ 004967f4     DBClass.obj
 0002:00003830       ??_C@_0DC@GPJBNMBH@delete?5from?5HabitMemory?5where?5Pr@ 00496830     DBClass.obj
 0002:00003864       ??_C@_0CP@INHKLIGM@delete?5from?5BKHotkey?5where?5Proce@ 00496864     DBClass.obj
 0002:00003894       ??_C@_0DO@HECEGEDA@update?5HabitMemory?5set?5UseTime?5?$DN@ 00496894     DBClass.obj
 0002:000038d4       ??_C@_0DK@FCKEFCHF@select?5UseTime?5from?5HabitMemory?5@ 004968d4     DBClass.obj
 0002:00003910       ??_C@_0EM@JKMMGLI@select?5PID?0aHK?0Title?0hWnd?0MF?0VK?0@ 00496910     DBClass.obj
 0002:0000395c       ??_C@_0DI@LJFLFIDJ@select?5left?0right?0top?0bottom?5fro@ 0049695c     DBClass.obj
 0002:00003994       ??_C@_0BH@FBMDCJIE@select?$CK?5from?5AutoHide?5?$AA@ 00496994     DBClass.obj
 0002:000039ac       ??_C@_0CI@OHFGBI@create?5table?5UserName?$CIName?5char?$CI@ 004969ac     DBClass.obj
 0002:000039d4       ??_C@_08KAFEAHEM@UserName?$AA@ 004969d4     DBClass.obj
 0002:000039e0       ??_C@_0CF@PLHKEBGB@insert?5into?5UserName?5values?5?$CI?8?$CFs@ 004969e0     DBClass.obj
 0002:00003a08       ??_C@_0CB@BKEPOLMA@update?5UserName?5set?5Name?5?$DN?5?8?$CFs?8?$DL@ 00496a08     DBClass.obj
 0002:00003a2c       ??_C@_0BJ@INAMJPJA@select?5?$CK?5from?5UserName?5?$DL?$AA@ 00496a2c     DBClass.obj
 0002:00003a48       ??_C@_0BM@ECLOEFPB@select?5Name?5from?5UserName?5?$DL?$AA@ 00496a48     DBClass.obj
 0002:00003a64       ??_C@_1BA@JIHHIEDE@?$AAT?$AAy?$AAp?$AAe?$AAL?$AAi?$AAb?$AA?$AA@ 00496a64     hd.obj
 0002:00003a74       ??_C@_1BC@EAHCMADO@?$AAS?$AAo?$AAf?$AAt?$AAw?$AAa?$AAr?$AAe?$AA?$AA@ 00496a74     hd.obj
 0002:00003a88       ??_C@_1O@GBFINDKL@?$AAS?$AAY?$AAS?$AAT?$AAE?$AAM?$AA?$AA@ 00496a88     hd.obj
 0002:00003a98       ??_C@_1BC@IBECJAAI@?$AAS?$AAE?$AAC?$AAU?$AAR?$AAI?$AAT?$AAY?$AA?$AA@ 00496a98     hd.obj
 0002:00003aac       ??_C@_17OMAOINJK@?$AAS?$AAA?$AAM?$AA?$AA@ 00496aac     hd.obj
 0002:00003ab4       ??_C@_19HLLLM@?$AAM?$AAi?$AAm?$AAe?$AA?$AA@ 00496ab4     hd.obj
 0002:00003ac0       ??_C@_1BC@MAICEHGI@?$AAH?$AAa?$AAr?$AAd?$AAw?$AAa?$AAr?$AAe?$AA?$AA@ 00496ac0     hd.obj
 0002:00003ad4       ??_C@_1BE@EKPAFMCP@?$AAI?$AAn?$AAt?$AAe?$AAr?$AAf?$AAa?$AAc?$AAe?$AA?$AA@ 00496ad4     hd.obj
 0002:00003ae8       ??_C@_1BC@NKMMNMGL@?$AAF?$AAi?$AAl?$AAe?$AAT?$AAy?$AAp?$AAe?$AA?$AA@ 00496ae8     hd.obj
 0002:00003afc       ??_C@_1CK@OEKPKBNA@?$AAC?$AAo?$AAm?$AAp?$AAo?$AAn?$AAe?$AAn?$AAt?$AA?5?$AAC?$AAa?$AAt?$AAe?$AAg?$AAo?$AAr?$AAi?$AAe?$AAs?$AA?$AA@ 00496afc     hd.obj
 0002:00003b28       ??_C@_1M@KANJNLFF@?$AAC?$AAL?$AAS?$AAI?$AAD?$AA?$AA@ 00496b28     hd.obj
 0002:00003b34       ??_C@_1M@EJNEECMJ@?$AAA?$AAp?$AAp?$AAI?$AAD?$AA?$AA@ 00496b34     hd.obj
 0002:00003b40       ??_C@_1O@JDLOHAN@?$AAD?$AAe?$AAl?$AAe?$AAt?$AAe?$AA?$AA@ 00496b40     hd.obj
 0002:00003b50       ??_C@_1BC@GCKHIPE@?$AAN?$AAo?$AAR?$AAe?$AAm?$AAo?$AAv?$AAe?$AA?$AA@ 00496b50     hd.obj
 0002:00003b64       ??_C@_1BI@JFAIJMHL@?$AAF?$AAo?$AAr?$AAc?$AAe?$AAR?$AAe?$AAm?$AAo?$AAv?$AAe?$AA?$AA@ 00496b64     hd.obj
 0002:00003b7c       ??_C@_17LLMMEOJD@?$AAV?$AAa?$AAl?$AA?$AA@ 00496b7c     hd.obj
 0002:00003b84       ??_C@_13OPKGLAFF@?$AAB?$AA?$AA@ 00496b84     hd.obj
 0002:00003b88       ??_C@_13MKMNOPIJ@?$AAD?$AA?$AA@ 00496b88     hd.obj
 0002:00003b8c       ??_C@_13LHMFKAAD@?$AAM?$AA?$AA@ 00496b8c     hd.obj
 0002:00003b90       ??_C@_13HADIAKP@?$AAS?$AA?$AA@ 00496b90     hd.obj
 0002:00003b94       ?_Min@?$AtlLimits@H@ATL@@2HB 00496b94     hd.obj
 0002:00003b98       ?_Max@?$AtlLimits@H@ATL@@2HB 00496b98     hd.obj
 0002:00003b9c       ?_Min@?$AtlLimits@I@ATL@@2IB 00496b9c     hd.obj
 0002:00003ba0       ?_Max@?$AtlLimits@I@ATL@@2IB 00496ba0     hd.obj
 0002:00003ba4       ?_Min@?$AtlLimits@J@ATL@@2JB 00496ba4     hd.obj
 0002:00003ba8       ?_Max@?$AtlLimits@J@ATL@@2JB 00496ba8     hd.obj
 0002:00003bac       ?_Min@?$AtlLimits@K@ATL@@2KB 00496bac     hd.obj
 0002:00003bb0       ?_Max@?$AtlLimits@K@ATL@@2KB 00496bb0     hd.obj
 0002:00003bb8       ?_Min@?$AtlLimits@_J@ATL@@2_JB 00496bb8     hd.obj
 0002:00003bc0       ?_Max@?$AtlLimits@_J@ATL@@2_JB 00496bc0     hd.obj
 0002:00003bc8       ?_Min@?$AtlLimits@_K@ATL@@2_KB 00496bc8     hd.obj
 0002:00003bd0       ?_Max@?$AtlLimits@_K@ATL@@2_KB 00496bd0     hd.obj
 0002:00003bd8       ?VT@?$CVarTypeInfo@D@ATL@@2GB 00496bd8     hd.obj
 0002:00003bdc       ?pmField@?$CVarTypeInfo@D@ATL@@2QQtagVARIANT@@DQ3@ 00496bdc     hd.obj
 0002:00003be0       ?VT@?$CVarTypeInfo@E@ATL@@2GB 00496be0     hd.obj
 0002:00003be4       ?pmField@?$CVarTypeInfo@E@ATL@@2QQtagVARIANT@@EQ3@ 00496be4     hd.obj
 0002:00003be8       ?VT@?$CVarTypeInfo@PAD@ATL@@2GB 00496be8     hd.obj
 0002:00003bec       ?pmField@?$CVarTypeInfo@PAD@ATL@@2QQtagVARIANT@@PADQ3@ 00496bec     hd.obj
 0002:00003bf0       ?VT@?$CVarTypeInfo@PAE@ATL@@2GB 00496bf0     hd.obj
 0002:00003bf4       ?pmField@?$CVarTypeInfo@PAE@ATL@@2QQtagVARIANT@@PAEQ3@ 00496bf4     hd.obj
 0002:00003bf8       ?VT@?$CVarTypeInfo@F@ATL@@2GB 00496bf8     hd.obj
 0002:00003bfc       ?pmField@?$CVarTypeInfo@F@ATL@@2QQtagVARIANT@@FQ3@ 00496bfc     hd.obj
 0002:00003c00       ?VT@?$CVarTypeInfo@PAF@ATL@@2GB 00496c00     hd.obj
 0002:00003c04       ?pmField@?$CVarTypeInfo@PAF@ATL@@2QQtagVARIANT@@PAFQ3@ 00496c04     hd.obj
 0002:00003c08       ?VT@?$CVarTypeInfo@G@ATL@@2GB 00496c08     hd.obj
 0002:00003c0c       ?pmField@?$CVarTypeInfo@G@ATL@@2QQtagVARIANT@@GQ3@ 00496c0c     hd.obj
 0002:00003c10       ?VT@?$CVarTypeInfo@PAG@ATL@@2GB 00496c10     hd.obj
 0002:00003c14       ?pmField@?$CVarTypeInfo@PAG@ATL@@2QQtagVARIANT@@PAGQ3@ 00496c14     hd.obj
 0002:00003c18       ?VT@?$CVarTypeInfo@H@ATL@@2GB 00496c18     hd.obj
 0002:00003c1c       ?pmField@?$CVarTypeInfo@H@ATL@@2QQtagVARIANT@@HQ3@ 00496c1c     hd.obj
 0002:00003c20       ?VT@?$CVarTypeInfo@PAH@ATL@@2GB 00496c20     hd.obj
 0002:00003c24       ?pmField@?$CVarTypeInfo@PAH@ATL@@2QQtagVARIANT@@PAHQ3@ 00496c24     hd.obj
 0002:00003c28       ?VT@?$CVarTypeInfo@I@ATL@@2GB 00496c28     hd.obj
 0002:00003c2c       ?pmField@?$CVarTypeInfo@I@ATL@@2QQtagVARIANT@@IQ3@ 00496c2c     hd.obj
 0002:00003c30       ?VT@?$CVarTypeInfo@PAI@ATL@@2GB 00496c30     hd.obj
 0002:00003c34       ?pmField@?$CVarTypeInfo@PAI@ATL@@2QQtagVARIANT@@PAIQ3@ 00496c34     hd.obj
 0002:00003c38       ?VT@?$CVarTypeInfo@J@ATL@@2GB 00496c38     hd.obj
 0002:00003c3c       ?pmField@?$CVarTypeInfo@J@ATL@@2QQtagVARIANT@@JQ3@ 00496c3c     hd.obj
 0002:00003c40       ?VT@?$CVarTypeInfo@PAJ@ATL@@2GB 00496c40     hd.obj
 0002:00003c44       ?pmField@?$CVarTypeInfo@PAJ@ATL@@2QQtagVARIANT@@PAJQ3@ 00496c44     hd.obj
 0002:00003c48       ?VT@?$CVarTypeInfo@K@ATL@@2GB 00496c48     hd.obj
 0002:00003c4c       ?pmField@?$CVarTypeInfo@K@ATL@@2QQtagVARIANT@@KQ3@ 00496c4c     hd.obj
 0002:00003c50       ?VT@?$CVarTypeInfo@PAK@ATL@@2GB 00496c50     hd.obj
 0002:00003c54       ?pmField@?$CVarTypeInfo@PAK@ATL@@2QQtagVARIANT@@PAKQ3@ 00496c54     hd.obj
 0002:00003c58       ?VT@?$CVarTypeInfo@_J@ATL@@2GB 00496c58     hd.obj
 0002:00003c5c       ?pmField@?$CVarTypeInfo@_J@ATL@@2QQtagVARIANT@@_JQ3@ 00496c5c     hd.obj
 0002:00003c60       ?VT@?$CVarTypeInfo@PA_J@ATL@@2GB 00496c60     hd.obj
 0002:00003c64       ?pmField@?$CVarTypeInfo@PA_J@ATL@@2QQtagVARIANT@@PA_JQ3@ 00496c64     hd.obj
 0002:00003c68       ?VT@?$CVarTypeInfo@_K@ATL@@2GB 00496c68     hd.obj
 0002:00003c6c       ?pmField@?$CVarTypeInfo@_K@ATL@@2QQtagVARIANT@@_KQ3@ 00496c6c     hd.obj
 0002:00003c70       ?VT@?$CVarTypeInfo@PA_K@ATL@@2GB 00496c70     hd.obj
 0002:00003c74       ?pmField@?$CVarTypeInfo@PA_K@ATL@@2QQtagVARIANT@@PA_KQ3@ 00496c74     hd.obj
 0002:00003c78       ?VT@?$CVarTypeInfo@M@ATL@@2GB 00496c78     hd.obj
 0002:00003c7c       ?pmField@?$CVarTypeInfo@M@ATL@@2QQtagVARIANT@@MQ3@ 00496c7c     hd.obj
 0002:00003c80       ?VT@?$CVarTypeInfo@PAM@ATL@@2GB 00496c80     hd.obj
 0002:00003c84       ?pmField@?$CVarTypeInfo@PAM@ATL@@2QQtagVARIANT@@PAMQ3@ 00496c84     hd.obj
 0002:00003c88       ?VT@?$CVarTypeInfo@N@ATL@@2GB 00496c88     hd.obj
 0002:00003c8c       ?pmField@?$CVarTypeInfo@N@ATL@@2QQtagVARIANT@@NQ3@ 00496c8c     hd.obj
 0002:00003c90       ?VT@?$CVarTypeInfo@PAN@ATL@@2GB 00496c90     hd.obj
 0002:00003c94       ?pmField@?$CVarTypeInfo@PAN@ATL@@2QQtagVARIANT@@PANQ3@ 00496c94     hd.obj
 0002:00003c98       ?VT@?$CVarTypeInfo@UtagVARIANT@@@ATL@@2GB 00496c98     hd.obj
 0002:00003c9c       ?VT@?$CVarTypeInfo@PA_W@ATL@@2GB 00496c9c     hd.obj
 0002:00003ca0       ?pmField@?$CVarTypeInfo@PA_W@ATL@@2QQtagVARIANT@@PA_WQ3@ 00496ca0     hd.obj
 0002:00003ca4       ?VT@?$CVarTypeInfo@PAPA_W@ATL@@2GB 00496ca4     hd.obj
 0002:00003ca8       ?pmField@?$CVarTypeInfo@PAPA_W@ATL@@2QQtagVARIANT@@PAPA_WQ3@ 00496ca8     hd.obj
 0002:00003cac       ?VT@?$CVarTypeInfo@PAUIUnknown@@@ATL@@2GB 00496cac     hd.obj
 0002:00003cb0       ?pmField@?$CVarTypeInfo@PAUIUnknown@@@ATL@@2QQtagVARIANT@@PAUIUnknown@@Q3@ 00496cb0     hd.obj
 0002:00003cb4       ?VT@?$CVarTypeInfo@PAPAUIUnknown@@@ATL@@2GB 00496cb4     hd.obj
 0002:00003cb8       ?pmField@?$CVarTypeInfo@PAPAUIUnknown@@@ATL@@2QQtagVARIANT@@PAPAUIUnknown@@Q3@ 00496cb8     hd.obj
 0002:00003cbc       ?VT@?$CVarTypeInfo@PAUIDispatch@@@ATL@@2GB 00496cbc     hd.obj
 0002:00003cc0       ?pmField@?$CVarTypeInfo@PAUIDispatch@@@ATL@@2QQtagVARIANT@@PAUIDispatch@@Q3@ 00496cc0     hd.obj
 0002:00003cc4       ?VT@?$CVarTypeInfo@PAPAUIDispatch@@@ATL@@2GB 00496cc4     hd.obj
 0002:00003cc8       ?pmField@?$CVarTypeInfo@PAPAUIDispatch@@@ATL@@2QQtagVARIANT@@PAPAUIDispatch@@Q3@ 00496cc8     hd.obj
 0002:00003ccc       ?VT@?$CVarTypeInfo@TtagCY@@@ATL@@2GB 00496ccc     hd.obj
 0002:00003cd0       ?pmField@?$CVarTypeInfo@TtagCY@@@ATL@@2QQtagVARIANT@@TtagCY@@Q3@ 00496cd0     hd.obj
 0002:00003cd4       ?VT@?$CVarTypeInfo@PATtagCY@@@ATL@@2GB 00496cd4     hd.obj
 0002:00003cd8       ?pmField@?$CVarTypeInfo@PATtagCY@@@ATL@@2QQtagVARIANT@@PATtagCY@@Q3@ 00496cd8     hd.obj
 0002:00003cdc       _LIBID_ATLLib              00496cdc     hd.obj
 0002:00003cec       _CLSID_Registrar           00496cec     hd.obj
 0002:00003cfc       _IID_IRegistrar            00496cfc     hd.obj
 0002:00003d0c       _IID_IAxWinHostWindow      00496d0c     hd.obj
 0002:00003d1c       _IID_IAxWinAmbientDispatch 00496d1c     hd.obj
 0002:00003d2c       _IID_IInternalConnection   00496d2c     hd.obj
 0002:00003d3c       _IID_IDocHostUIHandlerDispatch 00496d3c     hd.obj
 0002:00003d4c       _IID_IAxWinHostWindowLic   00496d4c     hd.obj
 0002:00003d5c       _IID_IAxWinAmbientDispatchEx 00496d5c     hd.obj
 0002:00003d8c       ?MAX_VALUE@CRegParser@ATL@@1HB 00496d8c     hd.obj
 0002:00003d90       ?MAX_TYPE@CRegParser@ATL@@1HB 00496d90     hd.obj
 0002:00003d94       ?rgszNeverDelete@CRegParser@ATL@@1QBQB_WB 00496d94     hd.obj
 0002:00003dc4       ?cbNeverDelete@CRegParser@ATL@@1HB 00496dc4     hd.obj
 0002:00003dc8       ??_C@_1CE@LCPJCLCK@?$AAV?$AAe?$AAr?$AAs?$AAi?$AAo?$AAn?$AAI?$AAn?$AAf?$AAo?$AA2?$AA8?$AA?4?$AAh?$AAd?$AAv?$AA?$AA@ 00496dc8     hd.obj
 0002:00003df0       ??_C@_1FM@FBLEIMOM@?$AAE?$AAR?$AAR?$AAO?$AAR?$AA?9?$AA?9?$AA?9?$AA?9?$AA?9?$AAR?$AAe?$AAa?$AAd?$AAV?$AAe?$AAr?$AAs?$AAi?$AAo?$AAn?$AAI?$AAn?$AAf?$AAo?$AAF?$AAi?$AAl?$AAe?$AA?9?$AA?9?$AA?9@ 00496df0     hd.obj
 0002:00003e4c       ??_C@_15LJEABJDH@?$AAH?$AAD?$AA?$AA@ 00496e4c     hd.obj
 0002:00003e54       ??_C@_1DM@INFNJDBP@?$AAO?$AAp?$AAe?$AAn?$AA?5?$AAv?$AAe?$AAr?$AAs?$AAi?$AAo?$AAn?$AAi?$AAn?$AAf?$AAo?$AA2?$AA8?$AA?4?$AAh?$AAd?$AAv?$AA?5?$AAe?$AAr?$AAr?$AAo?$AAr?$AA?4?$AA?$AA@ 00496e54     hd.obj
 0002:00003e90       ??_C@_1CE@CJFMGHEF@?$AAV?$AAe?$AAr?$AAs?$AAi?$AAo?$AAn?$AAI?$AAn?$AAf?$AAo?$AA2?$AA9?$AA?4?$AAh?$AAd?$AAv?$AA?$AA@ 00496e90     hd.obj
 0002:00003eb4       ??_C@_1BO@NHBOKGNC@?$AAH?$AAD?$AA_?$AAM?$AAs?$AAg?$AA_?$AAG?$AAe?$AAt?$AAI?$AAc?$AAo?$AAn?$AA?$AA@ 00496eb4     hd.obj
 0002:00003ed4       ??_C@_15NGKHHHOM@?$AA?9?$AAA?$AA?$AA@ 00496ed4     hd.obj
 0002:00003edc       ??_C@_15OBHJIHNO@?$AA?9?$AAD?$AA?$AA@ 00496edc     hd.obj
 0002:00003ee4       ??_C@_02KEDOHJFP@?9D?$AA@  00496ee4     hd.obj
 0002:00003ee8       ??_C@_1BM@MFCIMBB@?$AAM?$AAS?$AA?5?$AAS?$AAa?$AAn?$AAs?$AA?5?$AAS?$AAe?$AAr?$AAi?$AAf?$AA?$AA@ 00496ee8     hd.obj
 0002:00003f04       ??_C@_15BHOFONJE@?$AA?$CF?$AAX?$AA?$AA@ 00496f04     hd.obj
 0002:00003f0c       ??_C@_17BJPFHBEJ@?$AAC?$AA?3?$AA?2?$AA?$AA@ 00496f0c     hd.obj
 0002:00003f14       ??_C@_1BI@BDMBBNML@?$AA?2?$AAm?$AAi?$AAs?$AAc?$AA3?$AA5?$AA?4?$AAh?$AAd?$AAo?$AA?$AA@ 00496f14     hd.obj
 0002:00003f2c       ??_C@_1BI@ODHINJIN@?$AA?2?$AAH?$AAi?$AAd?$AAe?$AAD?$AAr?$AAa?$AAg?$AAo?$AAn?$AA?$AA@ 00496f2c     hd.obj
 0002:00003f48       ??_C@_1LA@FIHHKGPI@?$AAH?$AAH?$AAH?$AAH?$AAH?$AAH?$AAH?$AAH?$AAH?$AAH?$AAH?$AAH?$AAH?$AAH?$AAH?$AAH?$AAH?$AAH?$AAH?$AAH?$AAH?$AAH?$AAH?$AAH?$AAH?$AAH?$AAH?$AAH?$AAH?$AAH?$AAH?$AAH@ 00496f48     hd.obj
 0002:00003ff8       ??_C@_1EA@DBILCFEM@?$AAI?$AAD?$AAS?$AA_?$AAM?$AAE?$AAS?$AAS?$AAA?$AAG?$AAE?$AAB?$AAO?$AAX?$AA_?$AAN?$AAO?$AAT?$AAF?$AAO?$AAU?$AAN?$AAD?$AAL?$AAA?$AAN?$AAG?$AAP?$AAA?$AAC?$AAK?$AA?$AA@ 00496ff8     hd.obj
 0002:00004038       ??_C@_1GE@HPMIHDNH@?$AAN?$AAo?$AAt?$AA?5?$AAf?$AAo?$AAu?$AAn?$AAd?$AA?5?$AAl?$AAa?$AAn?$AAg?$AAu?$AAa?$AAg?$AAe?$AA?5?$AAp?$AAa?$AAc?$AAk?$AA?0?$AAo?$AAr?$AA?5?$AAl?$AAo?$AAa?$AAd?$AA?5@ 00497038     hd.obj
 0002:0000409c       ??_C@_1CO@IKFHJFAN@?$AAI?$AAD?$AAS?$AA_?$AAH?$AAE?$AAL?$AAP?$AAL?$AAI?$AAN?$AAK?$AA_?$AAV?$AAI?$AAD?$AAE?$AAO?$AAH?$AAE?$AAL?$AAP?$AA?$AA@ 0049709c     hd.obj
 0002:000040d0       ??_C@_1FA@ECLLDMDG@?$AAI?$AAn?$AA?5?$AAW?$AAi?$AAn?$AAd?$AAo?$AAw?$AA?5?$AAL?$AAi?$AAs?$AAt?$AA?5?$AAs?$AAe?$AAl?$AAe?$AAc?$AAt?$AAe?$AAd?$AA?5?$AAi?$AAt?$AAe?$AAm?$AA?5?$AAw?$AAi?$AAl@ 004970d0     hd.obj
 0002:00004120       ??_C@_1GK@MMKOBCBP@?$AAC?$AAh?$AAe?$AAc?$AAk?$AA?5?$AAb?$AAe?$AAl?$AAo?$AAw?$AA?5?$AAw?$AAi?$AAn?$AAd?$AAo?$AAw?$AA?5?$AAl?$AAi?$AAs?$AAt?$AA?5?$AAi?$AAt?$AAe?$AAm?$AA?5?$AAc?$AAa?$AAn@ 00497120     hd.obj
 0002:0000418c       ??_C@_1CM@FFBGIIMP@?$AAI?$AAD?$AAS?$AA_?$AAH?$AAE?$AAL?$AAP?$AAL?$AAI?$AAN?$AAK?$AA_?$AAP?$AAU?$AAR?$AAC?$AAH?$AAA?$AAS?$AAE?$AA?$AA@ 0049718c     hd.obj
 0002:000041b8       ??_C@_1CI@JEHLEBA@?$AAI?$AAD?$AAS?$AA_?$AAH?$AAE?$AAL?$AAP?$AAL?$AAI?$AAN?$AAK?$AA_?$AAM?$AAA?$AAN?$AAU?$AAA?$AAL?$AA?$AA@ 004971b8     hd.obj
 0002:000041e0       ??_C@_1CK@LDCCFKME@?$AAI?$AAD?$AAS?$AA_?$AAH?$AAE?$AAL?$AAP?$AAL?$AAI?$AAN?$AAK?$AA_?$AAS?$AAU?$AAG?$AAG?$AAE?$AAS?$AAT?$AA?$AA@ 004971e0     hd.obj
 0002:0000420c       ??_C@_1CE@GCHKMCOF@?$AAI?$AAD?$AAS?$AA_?$AAH?$AAE?$AAL?$AAP?$AAL?$AAI?$AAN?$AAK?$AA_?$AAB?$AAL?$AAO?$AAG?$AA?$AA@ 0049720c     hd.obj
 0002:00004230       ??_C@_1DO@JJJNHGPM@?$AAh?$AAt?$AAt?$AAp?$AA?3?$AA?1?$AA?1?$AAh?$AAi?$AA?4?$AAb?$AAa?$AAi?$AAd?$AAu?$AA?4?$AAc?$AAo?$AAm?$AA?1?$AAh?$AAi?$AAd?$AAe?$AAd?$AAr?$AAa?$AAg?$AAo?$AAn?$AA?$AA@ 00497230     hd.obj
 0002:00004270       ??_C@_1DA@DKOCBNFF@?$AAI?$AAD?$AAS?$AA_?$AAH?$AAE?$AAL?$AAP?$AAL?$AAI?$AAN?$AAK?$AA_?$AAX?$AAP?$AAD?$AAI?$AAS?$AAG?$AAU?$AAI?$AAS?$AAE?$AA?$AA@ 00497270     hd.obj
 0002:000042a0       ??_C@_1CI@HHCEMNJI@?$AAI?$AAD?$AAS?$AA_?$AAH?$AAE?$AAL?$AAP?$AAL?$AAI?$AAN?$AAK?$AA_?$AAX?$AAP?$AAH?$AAI?$AAD?$AAE?$AA?$AA@ 004972a0     hd.obj
 0002:000042c8       ??_C@_1CK@OHAGMLPH@?$AAI?$AAD?$AAS?$AA_?$AAH?$AAE?$AAL?$AAP?$AAL?$AAI?$AAN?$AAK?$AA_?$AAX?$AAP?$AAC?$AAL?$AAE?$AAA?$AAN?$AA?$AA@ 004972c8     hd.obj
 0002:000042f4       ??_C@_1DC@NGOCKJDO@?$AAI?$AAD?$AAS?$AA_?$AAH?$AAE?$AAL?$AAP?$AAL?$AAI?$AAN?$AAK?$AA_?$AAX?$AAP?$AAQ?$AAU?$AAI?$AAC?$AAK?$AAH?$AAI?$AAD?$AAE?$AA?$AA@ 004972f4     hd.obj
 0002:00004328       ??_C@_1CE@IPKKFLMG@?$AAI?$AAD?$AAS?$AA_?$AAH?$AAE?$AAL?$AAP?$AAL?$AAI?$AAN?$AAK?$AA_?$AAX?$AAP?$AAB?$AAK?$AA?$AA@ 00497328     hd.obj
 0002:00004350       ??_C@_1EC@CKIHAOEI@?$AAI?$AAD?$AAS?$AA_?$AAM?$AAE?$AAS?$AAS?$AAA?$AAG?$AAE?$AAB?$AAO?$AAX?$AA_?$AAP?$AAL?$AAE?$AAA?$AAS?$AAE?$AAS?$AAE?$AAL?$AAE?$AAC?$AAT?$AAA?$AAI?$AAT?$AAE?$AAM@ 00497350     hd.obj
 0002:00004394       ??_C@_1CM@KNPNDKMH@?$AAP?$AAl?$AAe?$AAa?$AAs?$AAe?$AA?5?$AAs?$AAe?$AAl?$AAe?$AAc?$AAt?$AA?5?$AAa?$AA?5?$AAi?$AAt?$AAe?$AAm?$AA?4?$AA?$AA@ 00497394     hd.obj
 0002:000043c0       ??_C@_1BK@HDKGJLOB@?$AAH?$AAD?$AAU?$AAp?$AAd?$AAa?$AAt?$AAe?$AA?4?$AAe?$AAx?$AAe?$AA?$AA@ 004973c0     hd.obj
 0002:000043dc       ??_C@_1BK@BGHGKAKL@?$AAI?$AAD?$AAM?$AA_?$AAH?$AAI?$AAD?$AAE?$AAI?$AAC?$AAO?$AAN?$AA?$AA@ 004973dc     hd.obj
 0002:000043f8       ??_C@_1BG@HIOAKJLL@?$AAH?$AAi?$AAd?$AAe?$AA?5?$AA?$CG?$AAI?$AAc?$AAo?$AAn?$AA?$AA@ 004973f8     hd.obj
 0002:00004410       ??_C@_1BK@MEHBFGMC@?$AAI?$AAD?$AAM?$AA_?$AAS?$AAH?$AAO?$AAW?$AAI?$AAC?$AAO?$AAN?$AA?$AA@ 00497410     hd.obj
 0002:0000442c       ??_C@_1BG@KIBLDLGP@?$AAS?$AAh?$AAo?$AAw?$AA?5?$AA?$CG?$AAI?$AAc?$AAo?$AAn?$AA?$AA@ 0049742c     hd.obj
 0002:00004444       ??_C@_1BK@HGJLDCHI@?$AAI?$AAD?$AAM?$AA_?$AAJ?$AAO?$AAB?$AA_?$AAT?$AAI?$AAP?$AA3?$AA?$AA@ 00497444     hd.obj
 0002:00004460       ??_C@_1FO@GHLFOFHE@?$AAU?$AAs?$AAe?$AA?5?$AAU?$AAp?$AAp?$AAe?$AAr?$AA?5?$AAF?$AAu?$AAn?$AAc?$AAt?$AAi?$AAo?$AAn?$AAs?$AA?5?$AAP?$AAl?$AAe?$AAe?$AAa?$AAs?$AAe?$AA?5?$AAS?$AAe?$AAl?$AAe@ 00497460     hd.obj
 0002:000044c0       ??_C@_1BO@IPJAEDEI@?$AAI?$AAD?$AAM?$AA_?$AAS?$AAH?$AAO?$AAW?$AAW?$AAI?$AAN?$AAD?$AAO?$AAW?$AA?$AA@ 004974c0     hd.obj
 0002:000044e0       ??_C@_1CC@GALKGFDF@?$AAS?$AAh?$AAo?$AAw?$AA?5?$AA?$CG?$AAH?$AAi?$AAd?$AAe?$AAD?$AAr?$AAa?$AAg?$AAo?$AAn?$AA?$AA@ 004974e0     hd.obj
 0002:00004504       ??_C@_1BO@FPGLNBJM@?$AAI?$AAD?$AAM?$AA_?$AAH?$AAI?$AAD?$AAE?$AAW?$AAI?$AAN?$AAD?$AAO?$AAW?$AA?$AA@ 00497504     hd.obj
 0002:00004524       ??_C@_1CC@ECNABFGE@?$AAH?$AAi?$AAd?$AAe?$AA?5?$AA?$CG?$AAH?$AAi?$AAd?$AAe?$AAD?$AAr?$AAa?$AAg?$AAo?$AAn?$AA?$AA@ 00497524     hd.obj
 0002:00004548       ??_C@_1KC@HAEJFKNB@?$AAH?$AAi?$AAd?$AAe?$AAD?$AAr?$AAa?$AAg?$AAo?$AAn?$AA?5?$AAh?$AAa?$AAs?$AA?5?$AAm?$AAi?$AAn?$AAi?$AAm?$AAi?$AAz?$AAe?$AAd?$AA?0?$AA?5?$AAy?$AAo?$AAu?$AA?5?$AAc?$AAa@ 00497548     hd.obj
 0002:000045ec       ??_C@_1CK@HOLNCAFH@?$AAI?$AAD?$AAS?$AA_?$AAT?$AAR?$AAA?$AAY?$AAI?$AAC?$AAO?$AAN?$AA_?$AAB?$AAA?$AAL?$AAL?$AAT?$AAI?$AAP?$AA?$AA@ 004975ec     hd.obj
 0002:00004618       ??_C@_1BE@PBPDIAKF@?$JG?$JA?$IO?$KLN?$BD?$FL?$LG?$AA?5?$AA3?$AA?4?$AA3?$AA1?$AA?$AA@ 00497618     hd.obj
 0002:0000462c       ??_C@_1DE@HAHDKFKP@?$AAI?$AAD?$AAS?$AA_?$AAT?$AAR?$AAA?$AAY?$AAI?$AAC?$AAO?$AAN?$AA_?$AAB?$AAA?$AAL?$AAL?$AAT?$AAI?$AAP?$AAT?$AAI?$AAT?$AAL?$AAE?$AA?$AA@ 0049762c     hd.obj
 0002:00004660       ??_C@_1CI@BMCKEEAJ@?$AAD?$AAD?$AAD?$AAD?$AAD?$AAD?$AAD?$AAD?$AAD?$AAD?$AAD?$AAD?$AAD?$AAD?$AAD?$AAD?$AAD?$AAD?$AAD?$AA?$AA@ 00497660     hd.obj
 0002:00004688       ??_C@_1DG@LIAIHIMO@?$AAW?$AAM?$AA_?$AAN?$AAC?$AAA?$AAC?$AAT?$AAI?$AAV?$AAA?$AAT?$AAE?$AA?5?$AAH?$AAD?$AAC?$AA?5?$AAI?$AAs?$AA?5?$AAN?$AAu?$AAl?$AAl?$AA?4?$AA?$AA@ 00497688     hd.obj
 0002:000046c0       ??_C@_1BK@BPIGMGKF@?$AAe?$AAx?$AAp?$AAl?$AAo?$AAr?$AAe?$AAr?$AA?4?$AAe?$AAx?$AAe?$AA?$AA@ 004976c0     hd.obj
 0002:000046dc       ??_C@_1BK@NBNJEGII@?$AAi?$AAe?$AAx?$AAp?$AAl?$AAo?$AAr?$AAe?$AA?4?$AAe?$AAx?$AAe?$AA?$AA@ 004976dc     hd.obj
 0002:000046f8       ??_C@_1CE@CPMGAHIE@?$AAI?$AAD?$AAM?$AA_?$AAC?$AAA?$AAN?$AAC?$AAE?$AAL?$AAR?$AAE?$AAS?$AAE?$AAR?$AAV?$AAE?$AA?$AA@ 004976f8     hd.obj
 0002:0000471c       ??_C@_1CG@DNGIOACD@?$AA?$CG?$AAU?$AAn?$AAc?$AAh?$AAe?$AAc?$AAk?$AA?5?$AAt?$AAh?$AAi?$AAs?$AA?5?$AAi?$AAt?$AAe?$AAm?$AA?$AA@ 0049771c     hd.obj
 0002:00004744       ??_C@_1BI@IGFGIPEC@?$AAI?$AAD?$AAM?$AA_?$AAR?$AAE?$AAS?$AAE?$AAR?$AAV?$AAE?$AA?$AA@ 00497744     hd.obj
 0002:0000475c       ??_C@_1CC@ODKLKIOM@?$AA?$CG?$AAC?$AAh?$AAe?$AAc?$AAk?$AA?5?$AAt?$AAh?$AAi?$AAs?$AA?5?$AAi?$AAt?$AAe?$AAm?$AA?$AA@ 0049775c     hd.obj
 0002:00004780       ??_C@_1CE@GKCLKMJM@?$AA?$CG?$AAC?$AAh?$AAe?$AAc?$AAk?$AA?5?$AAt?$AAh?$AAi?$AAs?$AA?5?$AAi?$AAt?$AAe?$AAm?$AA?4?$AA?$AA@ 00497780     hd.obj
 0002:000047a4       ??_C@_1CA@GMKPCEAK@?$AAI?$AAD?$AAM?$AA_?$AAA?$AAU?$AAT?$AAO?$AAR?$AAE?$AAS?$AAE?$AAR?$AAV?$AAE?$AA?$AA@ 004977a4     hd.obj
 0002:000047c4       ??_C@_1DO@FGHGNGGN@?$AA?$CG?$AAA?$AAu?$AAt?$AAo?$AA?5?$AAs?$AAe?$AAl?$AAe?$AAc?$AAt?$AA?5?$AAt?$AAh?$AAi?$AAs?$AA?5?$AAi?$AAt?$AAe?$AAm?$AA?5?$AAi?$AAn?$AA?5?$AAn?$AAe?$AAx?$AAt?$AA?$AA@ 004977c4     hd.obj
 0002:00004804       ??_C@_1CM@LMOCFIL@?$AAI?$AAD?$AAM?$AA_?$AAC?$AAA?$AAN?$AAC?$AAE?$AAL?$AAA?$AAU?$AAT?$AAO?$AAR?$AAE?$AAS?$AAE?$AAR?$AAV?$AAE?$AA?$AA@ 00497804     hd.obj
 0002:00004830       ??_C@_1CM@MHDCACEB@?$AAC?$AAa?$AAn?$AAc?$AAe?$AAl?$AA?5?$AA?$CG?$AAA?$AAu?$AAt?$AAo?$AA?5?$AAS?$AAe?$AAl?$AAe?$AAc?$AAt?$AAe?$AAd?$AA?$AA@ 00497830     hd.obj
 0002:00004860       ??_C@_1GK@LNBEIBOI@?$AAI?$AAf?$AA?5?$AAe?$AAn?$AAa?$AAb?$AAl?$AAe?$AA?5?$AAm?$AAo?$AAu?$AAs?$AAe?$AA?5?$AA?0?$AAp?$AAr?$AAe?$AAs?$AAs?$AA?5?$AAl?$AAe?$AAf?$AAt?$AA?5?$AA?$CL?$AA?5?$AAr?$AAi@ 00497860     hd.obj
 0002:000048d0       ??_C@_1LM@KHPCOJCD@?$AAS?$AAe?$AAl?$AAe?$AAc?$AAt?$AA?5?$AAu?$AAn?$AAh?$AAi?$AAd?$AAe?$AA?5?$AAo?$AAr?$AA?5?$AAt?$AAo?$AA?5?$AAh?$AAi?$AAd?$AAe?$AA?5?$AAw?$AAi?$AAn?$AAd?$AAo?$AAw?$AA?5@ 004978d0     hd.obj
 0002:0000498c       ??_C@_1CC@OFFDAOCD@?$AAI?$AAD?$AAS?$AA_?$AAT?$AAI?$AAP?$AA_?$AAL?$AAI?$AAS?$AAT?$AAV?$AAI?$AAE?$AAW?$AA?$AA@ 0049798c     hd.obj
 0002:000049b0       ??_C@_1CM@HDKPDIKD@?$AAT?$AAh?$AAe?$AA?5?$AAh?$AAO?$AAl?$AAd?$AAF?$AAo?$AAn?$AAt?$AA?5?$AAI?$AAs?$AA?5?$AAN?$AAU?$AAL?$AAL?$AA?4?$AA?$AA@ 004979b0     hd.obj
 0002:000049dc       ??_C@_19BDAJEHDN@?$AAo?$AAp?$AAe?$AAn?$AA?$AA@ 004979dc     hd.obj
 0002:000049e8       ??_C@_1BC@DPNDMKOI@?$AAI?$AAE?$AAX?$AAP?$AAL?$AAO?$AAR?$AAE?$AA?$AA@ 004979e8     hd.obj
 0002:000049fc       ??_C@_1CM@PGCKFLEK@?$AAI?$AAD?$AAS?$AA_?$AAH?$AAE?$AAL?$AAP?$AAL?$AAI?$AAN?$AAK?$AA_?$AAF?$AAI?$AAR?$AAS?$AAT?$AAR?$AAU?$AAN?$AA?$AA@ 004979fc     hd.obj
 0002:00004a28       ??_C@_1EI@CEJJMAPK@?$AAh?$AAt?$AAt?$AAp?$AA?3?$AA?1?$AA?1?$AAw?$AAw?$AAw?$AA?4?$AAs?$AAt?$AAo?$AAr?$AAe?$AA3?$AA0?$AA0?$AA0?$AA?4?$AAc?$AAo?$AAm?$AA?1?$AAh?$AAi?$AAd?$AAe?$AAd?$AAr?$AAa@ 00497a28     hd.obj
 0002:00004a70       ??_C@_1BE@EEIPNKJK@?$AAS?$AAh?$AAo?$AAw?$AA?5?$AAI?$AAc?$AAo?$AAn?$AA?$AA@ 00497a70     hd.obj
 0002:00004a84       ??_C@_1DC@PIIHHONA@?$AAI?$AAD?$AAS?$AA_?$AAU?$AAS?$AAA?$AAG?$AAE?$AAT?$AAI?$AAP?$AA_?$AAH?$AAI?$AAD?$AAE?$AAS?$AAE?$AAL?$AAI?$AAT?$AAE?$AAM?$AA?$AA@ 00497a84     hd.obj
 0002:00004ab8       ??_C@_1GA@FGALMKEJ@?$AAT?$AAh?$AAe?$AA?5?$AAs?$AAe?$AAl?$AAe?$AAc?$AAt?$AAe?$AAd?$AA?5?$AAi?$AAt?$AAe?$AAm?$AA?5?$AAi?$AAn?$AA?5?$AAt?$AAh?$AAe?$AA?5?$AAW?$AAi?$AAn?$AAd?$AAo?$AAw?$AA?5@ 00497ab8     hd.obj
 0002:00004b18       ??_C@_1EK@BGCOHEDC@?$AAI?$AAD?$AAS?$AA_?$AAU?$AAS?$AAA?$AAG?$AAE?$AAT?$AAI?$AAP?$AA_?$AAS?$AAE?$AAL?$AAW?$AAN?$AAD?$AAL?$AAI?$AAS?$AAT?$AAC?$AAA?$AAN?$AAR?$AAE?$AAS?$AAE?$AAR?$AAV@ 00497b18     hd.obj
 0002:00004b68       ??_C@_1GM@HFFKBIPF@?$AAY?$AAo?$AAu?$AA?5?$AAa?$AAl?$AAs?$AAo?$AA?5?$AAc?$AAa?$AAn?$AA?5?$AAs?$AAe?$AAl?$AAe?$AAc?$AAt?$AA?5?$AAu?$AAn?$AAw?$AAi?$AAl?$AAl?$AA?5?$AAh?$AAi?$AAd?$AAe?$AA?5@ 00497b68     hd.obj
 0002:00004bd8       ??_C@_1EK@CDAPBBGK@?$AAI?$AAD?$AAS?$AA_?$AAU?$AAS?$AAA?$AAG?$AAE?$AAT?$AAI?$AAP?$AA_?$AAP?$AAR?$AAE?$AAS?$AAS?$AAH?$AAO?$AAT?$AAK?$AAE?$AAY?$AAT?$AAO?$AAH?$AAI?$AAD?$AAE?$AAW?$AAI@ 00497bd8     hd.obj
 0002:00004c28       ??_C@_1FO@PCFNDBDB@?$AAP?$AAr?$AAe?$AAs?$AAs?$AA?5?$AAH?$AAi?$AAd?$AAe?$AA?5?$AAW?$AAi?$AAn?$AAd?$AAo?$AAw?$AA?5?$AAH?$AAo?$AAt?$AAk?$AAe?$AAy?$AA?5?$AAc?$AAa?$AAn?$AA?5?$AAh?$AAi?$AAd@ 00497c28     hd.obj
 0002:00004c88       ??_C@_1EG@NGPPMAHM@?$AAI?$AAD?$AAS?$AA_?$AAU?$AAS?$AAA?$AAG?$AAE?$AAT?$AAI?$AAP?$AA_?$AAC?$AAL?$AAI?$AAC?$AAK?$AAL?$AAE?$AAF?$AAT?$AAR?$AAI?$AAG?$AAH?$AAT?$AAH?$AAI?$AAD?$AAE?$AAW@ 00497c88     hd.obj
 0002:00004cd0       ??_C@_1GM@NDNDDGGE@?$AAC?$AAl?$AAi?$AAc?$AAk?$AA?5?$AAm?$AAo?$AAu?$AAs?$AAe?$AA?5?$AAr?$AAi?$AAg?$AAh?$AAt?$AA?5?$AA?$CL?$AA?5?$AAl?$AAe?$AAf?$AAt?$AA?5?$AAb?$AAu?$AAt?$AAt?$AAo?$AAn?$AA?5@ 00497cd0     hd.obj
 0002:00004d40       ??_C@_1EA@OHAAOEMF@?$AAI?$AAD?$AAS?$AA_?$AAU?$AAS?$AAA?$AAG?$AAE?$AAT?$AAI?$AAP?$AA_?$AAC?$AAL?$AAI?$AAC?$AAK?$AAM?$AAI?$AAD?$AAD?$AAL?$AAE?$AAH?$AAI?$AAD?$AAE?$AAW?$AAN?$AAD?$AA?$AA@ 00497d40     hd.obj
 0002:00004d80       ??_C@_1GA@IHOIAMBM@?$AAC?$AAl?$AAi?$AAc?$AAk?$AA?5?$AAm?$AAo?$AAu?$AAs?$AAe?$AA?5?$AAM?$AAi?$AAd?$AAd?$AAl?$AAe?$AA?5?$AAb?$AAu?$AAt?$AAt?$AAo?$AAn?$AA?5?$AAc?$AAa?$AAn?$AA?5?$AAh?$AAi@ 00497d80     hd.obj
 0002:00004de0       ??_C@_1BG@KCMIFCE@?$AAH?$AAi?$AAd?$AAe?$AAD?$AAr?$AAa?$AAg?$AAo?$AAn?$AA?$AA@ 00497de0     hd.obj
 0002:00004df8       ??_C@_1CK@HHAOPAFN@?$AAI?$AAD?$AAS?$AA_?$AAT?$AAR?$AAA?$AAY?$AAI?$AAC?$AAO?$AAN?$AA_?$AAT?$AAO?$AAO?$AAL?$AAT?$AAI?$AAP?$AA?$AA@ 00497df8     hd.obj
 0002:00004e28       ??_C@_1FA@BFMPPHCJ@?$AAI?$AAD?$AAS?$AA_?$AAM?$AAE?$AAS?$AAS?$AAA?$AAG?$AAE?$AAB?$AAO?$AAX?$AA_?$AAR?$AAE?$AAG?$AAS?$AAH?$AAO?$AAW?$AAH?$AAI?$AAD?$AAE?$AAD?$AAR?$AAA?$AAG?$AAO?$AAN@ 00497e28     hd.obj
 0002:00004e78       ??_C@_1EE@IMAEEIJB@?$AAR?$AAe?$AAg?$AAi?$AAs?$AAt?$AAe?$AAr?$AA?5?$AAS?$AAh?$AAo?$AAw?$AA?5?$AAH?$AAi?$AAd?$AAe?$AAD?$AAr?$AAa?$AAg?$AAo?$AAn?$AA?5?$AAF?$AAa?$AAi?$AAl?$AAu?$AAr?$AAe@ 00497e78     hd.obj
 0002:00004ebc       ??_C@_1BC@INNGHEKO@?$AAS?$AAh?$AAo?$AAw?$AAS?$AAe?$AAl?$AAf?$AA?$AA@ 00497ebc     hd.obj
 0002:00004ed0       ??_C@_1EO@GHJOMGHO@?$AAI?$AAD?$AAS?$AA_?$AAM?$AAE?$AAS?$AAS?$AAA?$AAG?$AAE?$AAB?$AAO?$AAX?$AA_?$AAR?$AAE?$AAG?$AAH?$AAI?$AAD?$AAE?$AAA?$AAL?$AAL?$AAW?$AAI?$AAN?$AAD?$AAO?$AAW?$AAF@ 00497ed0     hd.obj
 0002:00004f20       ??_C@_1EK@KKNKDODG@?$AAR?$AAe?$AAg?$AAi?$AAs?$AAt?$AAe?$AAr?$AA?5?$AAH?$AAi?$AAd?$AAe?$AA?5?$AAW?$AAi?$AAn?$AAd?$AAo?$AAw?$AA?5?$AAH?$AAo?$AAt?$AAk?$AAe?$AAy?$AA?5?$AAF?$AAa?$AAi?$AAl@ 00497f20     hd.obj
 0002:00004f6c       ??_C@_1CE@JFKKJHHO@?$AAH?$AAi?$AAd?$AAe?$AAW?$AAi?$AAn?$AAd?$AAo?$AAw?$AAs?$AAH?$AAo?$AAt?$AAK?$AAe?$AAy?$AA?$AA@ 00497f6c     hd.obj
 0002:00004f90       ??_C@_1CC@KPOKNCMJ@?$AAt?$AAo?$AAo?$AAl?$AAt?$AAi?$AAp?$AAs?$AA_?$AAc?$AAl?$AAa?$AAs?$AAs?$AA3?$AA2?$AA?$AA@ 00497f90     hd.obj
 0002:00004fb4       ??_C@_1DM@DFDIFIKL@?$AAF?$AAi?$AAn?$AAd?$AA?5?$AAt?$AAr?$AAa?$AAy?$AAt?$AAo?$AAo?$AAl?$AAb?$AAa?$AAr?$AA?5?$AAw?$AAi?$AAn?$AAd?$AAo?$AAw?$AA?5?$AAe?$AAr?$AAr?$AAo?$AAr?$AA?$AA@ 00497fb4     hd.obj
 0002:00004ff0       ??_C@_1CM@GALFGMFH@?$AAI?$AAD?$AAS?$AA_?$AAL?$AAI?$AAS?$AAT?$AAV?$AAI?$AAE?$AAW?$AA_?$AAT?$AAR?$AAA?$AAY?$AAI?$AAC?$AAO?$AAN?$AA?$AA@ 00497ff0     hd.obj
 0002:0000501c       ??_C@_1BE@HCPEEGLF@?$AAT?$AAr?$AAa?$AAy?$AA?5?$AAI?$AAc?$AAo?$AAn?$AA?$AA@ 0049801c     hd.obj
 0002:00005030       ??_C@_1CO@GLNHGKIP@?$AAI?$AAD?$AAS?$AA_?$AAL?$AAI?$AAS?$AAT?$AAV?$AAI?$AAE?$AAW?$AA_?$AAP?$AAR?$AAO?$AAC?$AAE?$AAS?$AAS?$AAI?$AAD?$AA?$AA@ 00498030     hd.obj
 0002:00005060       ??_C@_1BG@LDNNCFCD@?$AAP?$AAr?$AAo?$AAc?$AAe?$AAs?$AAs?$AA?5?$AAI?$AAD?$AA?$AA@ 00498060     hd.obj
 0002:00005078       ??_C@_1DC@EJJCELEM@?$AAI?$AAD?$AAS?$AA_?$AAL?$AAI?$AAS?$AAT?$AAV?$AAI?$AAE?$AAW?$AA_?$AAW?$AAI?$AAN?$AAD?$AAO?$AAW?$AAT?$AAI?$AAT?$AAL?$AAE?$AA?$AA@ 00498078     hd.obj
 0002:000050ac       ??_C@_1BK@DCOEMLBJ@?$AAW?$AAi?$AAn?$AAd?$AAo?$AAw?$AA?5?$AAT?$AAi?$AAt?$AAl?$AAe?$AA?$AA@ 004980ac     hd.obj
 0002:000050c8       ??_C@_1DE@FJGCMGO@?$AAI?$AAD?$AAS?$AA_?$AAM?$AAO?$AAU?$AAS?$AAE?$AA_?$AAS?$AAT?$AAA?$AAT?$AAU?$AAS?$AA_?$AAD?$AAI?$AAS?$AAA?$AAB?$AAL?$AAE?$AAD?$AA?$AA@ 004980c8     hd.obj
 0002:000050fc       ??_C@_1BA@EHHBCNCC@?$AAD?$AAi?$AAs?$AAa?$AAb?$AAl?$AAe?$AA?$AA@ 004980fc     hd.obj
 0002:0000510c       ??_C@_1DC@KMEIBEOF@?$AAI?$AAD?$AAS?$AA_?$AAM?$AAO?$AAU?$AAS?$AAE?$AA_?$AAS?$AAT?$AAA?$AAT?$AAU?$AAS?$AA_?$AAE?$AAN?$AAA?$AAB?$AAL?$AAE?$AAD?$AA?$AA@ 0049810c     hd.obj
 0002:00005140       ??_C@_1O@PFBIKACK@?$AAE?$AAn?$AAa?$AAb?$AAl?$AAe?$AA?$AA@ 00498140     hd.obj
 0002:00005150       ??_C@_1DC@POOIKBAO@?$AAI?$AAT?$AAE?$AAR?$AAA?$AAT?$AAO?$AAR?$AA?5?$AAL?$AAI?$AAS?$AAT?$AA?5?$AAC?$AAO?$AAR?$AAR?$AAU?$AAP?$AAT?$AAE?$AAD?$AA?$CB?$AA?$AA@ 00498150     hd.obj
 0002:00005188       ??_C@_1IC@MEADOCIB@?$AAc?$AA?3?$AA?2?$AAp?$AAr?$AAo?$AAg?$AAr?$AAa?$AAm?$AA?5?$AAf?$AAi?$AAl?$AAe?$AAs?$AA?2?$AAm?$AAi?$AAc?$AAr?$AAo?$AAs?$AAo?$AAf?$AAt?$AA?5?$AAv?$AAi?$AAs?$AAu?$AAa@ 00498188     hd.obj
 0002:0000520c       ??_C@_19FMFEEEON@?$AAO?$AAp?$AAe?$AAn?$AA?$AA@ 0049820c     hd.obj
 0002:00005218       ??_C@_1DG@COBCECND@?$AAm?$AAa?$AAi?$AAl?$AAt?$AAo?$AA?3?$AAh?$AAd?$AAs?$AAu?$AAp?$AAp?$AAo?$AAr?$AAt?$AA?$EA?$AAg?$AAm?$AAa?$AAi?$AAl?$AA?4?$AAc?$AAo?$AAm?$AA?$AA@ 00498218     hd.obj
 0002:00005250       ??_C@_1DC@LGPNLJIO@?$AAF?$AAe?$AAe?$AAd?$AAb?$AAa?$AAc?$AAk?$AA?5?$AAa?$AAn?$AAd?$AA?5?$AAS?$AAu?$AAg?$AAg?$AAe?$AAs?$AAt?$AAi?$AAo?$AAn?$AA?4?$AA?$AA@ 00498250     hd.obj
 0002:00005284       ??_C@_1BK@OIMGIJAD@?$AAI?$AAD?$AAS?$AA_?$AAT?$AAI?$AAP?$AA_?$AAM?$AAA?$AAI?$AAL?$AA?$AA@ 00498284     hd.obj
 0002:000052a0       ??_C@_1FK@LPHCKFLA@?$AAG?$AAe?$AAt?$AA?5?$AAt?$AAh?$AAe?$AA?5?$AAn?$AAe?$AAw?$AAe?$AAs?$AAt?$AA?5?$AAi?$AAn?$AAf?$AAo?$AAr?$AAm?$AAa?$AAt?$AAi?$AAo?$AAn?$AA?5?$AAa?$AAb?$AAo?$AAu?$AAt@ 004982a0     hd.obj
 0002:000052fc       ??_C@_1BK@JPDDIEGK@?$AAI?$AAD?$AAS?$AA_?$AAT?$AAI?$AAP?$AA_?$AAH?$AAT?$AAT?$AAP?$AA?$AA@ 004982fc     hd.obj
 0002:00005318       ??_C@_1BO@FLHEHDCN@?$AAI?$AAD?$AAS?$AA_?$AAU?$AAN?$AAR?$AAE?$AAG?$AAI?$AAS?$AAT?$AAE?$AAR?$AA?$AA@ 00498318     hd.obj
 0002:00005338       ??_C@_1BE@NIGDKGMB@?$AAI?$AAD?$AAS?$AA_?$AAP?$AAA?$AAR?$AAA?$AA2?$AA?$AA@ 00498338     hd.obj
 0002:0000534c       ??_C@_19KLGIPDEL@?$AA?$AN?$AA?6?$AA?$AN?$AA?6?$AA?$AA@ 0049834c     hd.obj
 0002:00005358       ??_C@_1BI@MKLFHMLN@?$AAI?$AAD?$AAD?$AA1?$AA0?$AA6?$AA_?$AA1?$AA0?$AA2?$AA8?$AA?$AA@ 00498358     hd.obj
 0002:00005370       ??_C@_1BE@PLMHCAKJ@?$AA2?$AA9?$AA7?$AA5?$AA0?$AA0?$AA8?$AA2?$AA0?$AA?$AA@ 00498370     hd.obj
 0002:00005388       ??_C@_1BPE@PEPECLLN@?$AAP?$AAl?$AAe?$AAa?$AAs?$AAe?$AA?5?$AAs?$AAe?$AAn?$AAd?$AA?5?$AAu?$AAs?$AA?5?$AAe?$AAm?$AAa?$AAi?$AAl?$AAs?$AA?5?$AAf?$AAo?$AAr?$AA?5?$AAa?$AAn?$AAy?$AA?5?$AAa?$AAd@ 00498388     hd.obj
 0002:0000557c       ??_C@_1CC@HAABGANK@?$AAI?$AAD?$AAS?$AA_?$AAH?$AAA?$AAV?$AAE?$AAT?$AAR?$AAA?$AAY?$AAI?$AAC?$AAO?$AAN?$AA?$AA@ 0049857c     hd.obj
 0002:000055a0       ??_C@_19FMNKJJBF@?$AAH?$AAa?$AAv?$AAe?$AA?$AA@ 004985a0     hd.obj
 0002:000055b0       ??_C@_1JA@FDGDFCGI@?$AAE?$AAn?$AAu?$AAm?$AAW?$AAi?$AAn?$AAd?$AAo?$AAw?$AAs?$AAP?$AAr?$AAo?$AAc?$AA?5?$AAe?$AAn?$AAt?$AAe?$AAr?$AA?5?$AAr?$AAe?$AAt?$AAu?$AAr?$AAn?$AA?5?$AA1?$AA?$DL?$AA?4@ 004985b0     hd.obj
 0002:00005640       ??_C@_1CA@NLGGCBOO@?$AAP?$AAr?$AAo?$AAg?$AAr?$AAa?$AAm?$AA?5?$AAM?$AAa?$AAn?$AAa?$AAg?$AAe?$AAr?$AA?$AA@ 00498640     hd.obj
 0002:00005660       ??_C@_1BK@ELFHHDLG@?$AAf?$AAl?$AAa?$AAs?$AAh?$AAg?$AAe?$AAt?$AA?4?$AAe?$AAx?$AAe?$AA?$AA@ 00498660     hd.obj
 0002:0000567c       ??_C@_1DK@EOIFANKM@?$AAI?$AAD?$AAS?$AA_?$AAM?$AAE?$AAS?$AAS?$AAA?$AAG?$AAE?$AAB?$AAO?$AAX?$AA_?$AAI?$AAF?$AAN?$AAO?$AAT?$AAC?$AAO?$AAN?$AAF?$AAL?$AAI?$AAC?$AAT?$AA?$AA@ 0049867c     hd.obj
 0002:000056b8       ??_C@_1MI@HHOAHGKP@?$AAT?$AAh?$AAe?$AA?5?$AAc?$AAa?$AAn?$AAc?$AAe?$AAl?$AAl?$AAa?$AAt?$AAi?$AAo?$AAn?$AA?5?$AAo?$AAf?$AA?5?$AAt?$AAh?$AAe?$AA?5?$AAo?$AAp?$AAt?$AAi?$AAo?$AAn?$AA?5?$AAw@ 004986b8     hd.obj
 0002:00005780       ??_C@_1GK@NHJIMLFF@?$AAC?$AAl?$AAi?$AAc?$AAk?$AA?5?$AAm?$AAo?$AAu?$AAs?$AAe?$AA?5?$AAr?$AAi?$AAg?$AAh?$AAt?$AA?5?$AA?$CL?$AA?5?$AAl?$AAe?$AAf?$AAt?$AA?5?$AAb?$AAu?$AAt?$AAt?$AAo?$AAn?$AA?5@ 00498780     hd.obj
 0002:000057f0       ??_C@_1FO@GPHHDAJI@?$AAC?$AAl?$AAi?$AAc?$AAk?$AA?5?$AAm?$AAo?$AAu?$AAs?$AAe?$AA?5?$AAM?$AAi?$AAd?$AAd?$AAl?$AAe?$AA?5?$AAb?$AAu?$AAt?$AAt?$AAo?$AAn?$AA?5?$AAt?$AAo?$AA?5?$AAh?$AAi?$AAd@ 004987f0     hd.obj
 0002:00005850       ??_C@_1GO@MHCLJNGF@?$AAR?$AAe?$AAc?$AAl?$AAi?$AAc?$AAk?$AA?5?$AAm?$AAo?$AAu?$AAs?$AAe?$AA?5?$AAr?$AAi?$AAg?$AAh?$AAt?$AA?5?$AA?$CL?$AA?5?$AAl?$AAe?$AAf?$AAt?$AA?5?$AAb?$AAu?$AAt?$AAt?$AAo@ 00498850     hd.obj
 0002:000058c0       ??_C@_1FA@IHNGCMDI@?$AAI?$AAD?$AAS?$AA_?$AAU?$AAS?$AAA?$AAG?$AAE?$AAT?$AAI?$AAP?$AA_?$AAR?$AAE?$AAC?$AAL?$AAI?$AAC?$AAK?$AAR?$AAI?$AAG?$AAH?$AAT?$AAL?$AAE?$AAF?$AAT?$AAS?$AAH?$AAO@ 004988c0     hd.obj
 0002:00005910       ??_C@_1GC@NNDHOBKB@?$AAR?$AAe?$AAc?$AAl?$AAi?$AAc?$AAk?$AA?5?$AAm?$AAo?$AAu?$AAs?$AAe?$AA?5?$AAm?$AAi?$AAd?$AAd?$AAl?$AAe?$AA?5?$AAb?$AAu?$AAt?$AAt?$AAo?$AAn?$AA?5?$AAt?$AAo?$AA?5?$AAs@ 00498910     hd.obj
 0002:00005978       ??_C@_1EK@FMEMPNOC@?$AAI?$AAD?$AAS?$AA_?$AAU?$AAS?$AAA?$AAG?$AAE?$AAT?$AAI?$AAP?$AA_?$AAR?$AAE?$AAC?$AAL?$AAI?$AAC?$AAK?$AAM?$AAI?$AAD?$AAD?$AAL?$AAE?$AAS?$AAH?$AAO?$AAW?$AAW?$AAI@ 00498978     hd.obj
 0002:000059c4       ??_C@_1DO@OOLLBJNG@?$AAI?$AAD?$AAS?$AA_?$AAU?$AAS?$AAA?$AAG?$AAE?$AAT?$AAI?$AAP?$AA_?$AAM?$AAO?$AAU?$AAS?$AAE?$AAH?$AAO?$AAO?$AAK?$AAD?$AAI?$AAS?$AAA?$AAB?$AAL?$AAE?$AAD?$AA?$AA@ 004989c4     hd.obj
 0002:00005a08       ??_C@_1EG@HFCICOPK@?$AAU?$AAs?$AAe?$AA?5?$AAM?$AAo?$AAu?$AAs?$AAe?$AA?5?$AAh?$AAi?$AAd?$AAe?$AA?5?$AAw?$AAi?$AAn?$AAd?$AAo?$AAw?$AA?5?$AAi?$AAs?$AA?5?$AAd?$AAi?$AAs?$AAa?$AAb?$AAl?$AAe@ 00498a08     hd.obj
 0002:00005a50       ??_C@_1FI@BCACNOME@?$AAR?$AAe?$AA?5?$AAp?$AAr?$AAe?$AAs?$AAs?$AA?5?$AAH?$AAi?$AAd?$AAe?$AA?5?$AAW?$AAi?$AAn?$AAd?$AAo?$AAw?$AA?5?$AAh?$AAo?$AAt?$AAk?$AAe?$AAy?$AA?5?$AAt?$AAo?$AA?5?$AAs@ 00498a50     hd.obj
 0002:00005aa8       ??_C@_1EO@DJAHNKKC@?$AAI?$AAD?$AAS?$AA_?$AAU?$AAS?$AAA?$AAG?$AAE?$AAT?$AAI?$AAP?$AA_?$AAR?$AAE?$AAP?$AAR?$AAE?$AAS?$AAS?$AAH?$AAO?$AAT?$AAK?$AAE?$AAY?$AAT?$AAO?$AAS?$AAH?$AAO?$AAW@ 00498aa8     hd.obj
 0002:00005af8       ??_C@_1FM@LCMMPMCK@?$AAI?$AAD?$AAS?$AA_?$AAM?$AAE?$AAS?$AAS?$AAA?$AAG?$AAE?$AAB?$AAO?$AAX?$AA_?$AAR?$AAE?$AAG?$AAS?$AAH?$AAO?$AAW?$AAH?$AAI?$AAD?$AAE?$AAD?$AAR?$AAA?$AAG?$AAO?$AAN@ 00498af8     hd.obj
 0002:00005b58       ??_C@_1HM@NOOKJIPH@?$AAR?$AAe?$AAg?$AAi?$AAs?$AAt?$AAe?$AAr?$AA?5?$AAS?$AAh?$AAo?$AAw?$AA?5?$AAH?$AAi?$AAd?$AAe?$AAD?$AAr?$AAa?$AAg?$AAo?$AAn?$AA?5?$AAh?$AAo?$AAt?$AAk?$AAe?$AAy?$AA?5@ 00498b58     hd.obj
 0002:00005bd8       ??_C@_1EO@NJBAFJFC@?$AAI?$AAD?$AAS?$AA_?$AAM?$AAE?$AAS?$AAS?$AAA?$AAG?$AAE?$AAB?$AAO?$AAX?$AA_?$AAR?$AAE?$AAG?$AAH?$AAI?$AAD?$AAE?$AAW?$AAN?$AAD?$AAF?$AAA?$AAI?$AAL?$AAU?$AAR?$AAE@ 00498bd8     hd.obj
 0002:00005c28       ??_C@_1HG@HHEBPOOF@?$AAR?$AAe?$AAg?$AAi?$AAs?$AAt?$AAe?$AAr?$AA?5?$AAh?$AAi?$AAd?$AAe?$AA?5?$AAw?$AAi?$AAn?$AAd?$AAo?$AAw?$AA?5?$AAh?$AAo?$AAt?$AAk?$AAe?$AAy?$AA?5?$AAf?$AAa?$AAi?$AAl@ 00498c28     hd.obj
 0002:00005ca0       ??_C@_1CG@GECDAPJE@?$AAD?$AAe?$AAl?$AAe?$AAt?$AAe?$AA?5?$AAA?$AAt?$AAo?$AAm?$AA?5?$AAE?$AAr?$AAr?$AAo?$AAr?$AA?4?$AA?$AA@ 00498ca0     hd.obj
 0002:00005cc8       ??_C@_1CO@NPOFFECD@?$AAI?$AAD?$AAS?$AA_?$AAO?$AAP?$AAT?$AAI?$AAO?$AAN?$AAD?$AAI?$AAA?$AAL?$AAO?$AAG?$AA_?$AAT?$AAI?$AAT?$AAL?$AAE?$AA?$AA@ 00498cc8     hd.obj
 0002:00005cf8       ??_C@_1BA@BBLONAFB@?$AAO?$AAp?$AAt?$AAi?$AAo?$AAn?$AAs?$AA?$AA@ 00498cf8     hd.obj
 0002:00005d08       ??_C@_1CO@CNOCEICJ@?$AAI?$AAD?$AAS?$AA_?$AAO?$AAT?$AAH?$AAE?$AAR?$AAS?$AAE?$AAT?$AAT?$AAI?$AAN?$AAG?$AA_?$AAT?$AAI?$AAT?$AAL?$AAE?$AA?$AA@ 00498d08     hd.obj
 0002:00005d38       ??_C@_1M@KDHOHJAD@?$AAO?$AAt?$AAh?$AAe?$AAr?$AA?$AA@ 00498d38     hd.obj
 0002:00005d44       ??_C@_1CK@IOPHPLPK@?$AAI?$AAD?$AAS?$AA_?$AAA?$AAU?$AAT?$AAO?$AAU?$AAP?$AAD?$AAA?$AAT?$AAE?$AA_?$AAT?$AAI?$AAT?$AAL?$AAE?$AA?$AA@ 00498d44     hd.obj
 0002:00005d70       ??_C@_1CC@NLDDKKOF@?$AAA?$AAu?$AAt?$AAo?$AAm?$AAa?$AAt?$AAi?$AAc?$AA?5?$AAU?$AAp?$AAd?$AAa?$AAt?$AAe?$AA?$AA@ 00498d70     hd.obj
 0002:00005d94       ??_C@_1CI@PGEDJIIM@?$AAI?$AAD?$AAS?$AA_?$AAQ?$AAU?$AAI?$AAC?$AAK?$AAH?$AAI?$AAD?$AAE?$AA_?$AAT?$AAI?$AAT?$AAL?$AAE?$AA?$AA@ 00498d94     hd.obj
 0002:00005dbc       ??_C@_1CE@KJKHBEHI@?$AAQ?$AAu?$AAi?$AAc?$AAk?$AA?5?$AAH?$AAi?$AAd?$AAe?$AA?5?$AAW?$AAi?$AAn?$AAd?$AAo?$AAw?$AA?$AA@ 00498dbc     hd.obj
 0002:00005de0       ??_C@_1CK@JGMGACAP@?$AAI?$AAD?$AAS?$AA_?$AAB?$AAA?$AAC?$AAK?$AAG?$AAR?$AAO?$AAU?$AAN?$AAD?$AA_?$AAT?$AAI?$AAT?$AAL?$AAE?$AA?$AA@ 00498de0     hd.obj
 0002:00005e0c       ??_C@_1BM@GGCIEMAG@?$AAB?$AAa?$AAc?$AAk?$AAg?$AAr?$AAo?$AAu?$AAn?$AAd?$AAi?$AAn?$AAg?$AA?$AA@ 00498e0c     hd.obj
 0002:00005e28       ??_C@_1CG@JEAHFMOH@?$AAI?$AAD?$AAS?$AA_?$AAP?$AAA?$AAS?$AAS?$AAW?$AAO?$AAR?$AAD?$AA_?$AAT?$AAI?$AAT?$AAL?$AAE?$AA?$AA@ 00498e28     hd.obj
 0002:00005e50       ??_C@_1CI@EACJIBPJ@?$AAP?$AAa?$AAs?$AAs?$AAw?$AAo?$AAr?$AAd?$AA?5?$AAP?$AAr?$AAo?$AAt?$AAe?$AAc?$AAt?$AAi?$AAo?$AAn?$AA?$AA@ 00498e50     hd.obj
 0002:00005e78       ??_C@_1CC@KKNOOIAI@?$AAI?$AAD?$AAS?$AA_?$AAH?$AAO?$AAT?$AAK?$AAE?$AAY?$AA_?$AAT?$AAI?$AAT?$AAL?$AAE?$AA?$AA@ 00498e78     hd.obj
 0002:00005e9c       ??_C@_1O@DKEPHEHG@?$AAH?$AAo?$AAt?$AAk?$AAe?$AAy?$AA?$AA@ 00498e9c     hd.obj
 0002:00005eac       ??_C@_1BO@DBDFOAGA@?$AAH?$AAi?$AAd?$AAe?$AAD?$AAr?$AAa?$AAg?$AAo?$AAn?$AA?5?$AA3?$AA?4?$AA6?$AA?$AA@ 00498eac     hd.obj
 0002:00005ed0       ??_C@_1FG@LBOCJBKN@?$AA?2?$AAM?$AAi?$AAc?$AAr?$AAo?$AAs?$AAo?$AAf?$AAt?$AA?2?$AAI?$AAn?$AAt?$AAe?$AAr?$AAn?$AAe?$AAt?$AA?5?$AAE?$AAx?$AAp?$AAl?$AAo?$AAr?$AAe?$AAr?$AA?2?$AAQ?$AAu?$AAi@ 00498ed0     hd.obj
 0002:00005f28       ??_C@_17PLDBGLHA@?$AA?5?$AA?9?$AAA?$AA?$AA@ 00498f28     hd.obj
 0002:00005f30       ??_C@_1FM@OEMODDEO@?$AAS?$AAo?$AAf?$AAt?$AAw?$AAa?$AAr?$AAe?$AA?2?$AAM?$AAi?$AAc?$AAr?$AAo?$AAs?$AAo?$AAf?$AAt?$AA?2?$AAW?$AAi?$AAn?$AAd?$AAo?$AAw?$AAs?$AA?2?$AAC?$AAu?$AAr?$AAr?$AAe@ 00498f30     hd.obj
 0002:00005f8c       ??_C@_1BK@KKICKCPH@?$AAR?$AAI?$AAC?$AAH?$AAE?$AAD?$AA2?$AA0?$AA?4?$AAD?$AAL?$AAL?$AA?$AA@ 00498f8c     hd.obj
 0002:00005fa8       ??_C@_1CM@OMALNBIO@?$AAI?$AAD?$AAS?$AA_?$AAA?$AAB?$AAO?$AAU?$AAT?$AAO?$AAP?$AAT?$AAI?$AAO?$AAN?$AA_?$AAT?$AAI?$AAT?$AAL?$AAE?$AA?$AA@ 00498fa8     hd.obj
 0002:00005fd4       ??_C@_1BC@HLGPHKCB@?$AAA?$AAb?$AAo?$AAu?$AAt?$AA?4?$AA?4?$AA?4?$AA?$AA@ 00498fd4     hd.obj
 0002:00005fe8       ??_C@_1CE@MPLEEGBB@?$AAI?$AAD?$AAS?$AA_?$AAH?$AAI?$AAS?$AAT?$AAO?$AAR?$AAY?$AA_?$AAT?$AAI?$AAT?$AAL?$AAE?$AA?$AA@ 00498fe8     hd.obj
 0002:0000600c       ??_C@_1BA@JJMCCKFL@?$AAH?$AAi?$AAs?$AAt?$AAo?$AAr?$AAy?$AA?$AA@ 0049900c     hd.obj
 0002:0000601c       ??_C@_1CC@IDGMKLOI@?$AAI?$AAD?$AAS?$AA_?$AAR?$AAE?$AAA?$AAD?$AAM?$AAE?$AA_?$AAT?$AAI?$AAT?$AAL?$AAE?$AA?$AA@ 0049901c     hd.obj
 0002:00006040       ??_C@_1O@IKMGEIKK@?$AAR?$AAe?$AAa?$AAd?$AAm?$AAe?$AA?$AA@ 00499040     hd.obj
 0002:00006050       ??_C@_1CA@LAMNGANP@?$AAI?$AAD?$AAS?$AA_?$AAA?$AAB?$AAO?$AAU?$AAT?$AA_?$AAT?$AAI?$AAT?$AAL?$AAE?$AA?$AA@ 00499050     hd.obj
 0002:00006070       ??_C@_1BG@FLPIKMPI@?$AAC?$AAo?$AAp?$AAy?$AAr?$AAi?$AAg?$AAh?$AAt?$AAs?$AA?$AA@ 00499070     hd.obj
 0002:00006088       ??_C@_1BI@CAFKBJCM@?$AA?2?$AAr?$AAe?$AAa?$AAd?$AAm?$AAe?$AA?4?$AAr?$AAt?$AAf?$AA?$AA@ 00499088     hd.obj
 0002:000060a0       ??_C@_1CA@NLBLPPND@?$AA?2?$AAV?$AAe?$AAr?$AAH?$AAi?$AAs?$AAt?$AAo?$AAr?$AAy?$AA?4?$AAr?$AAt?$AAf?$AA?$AA@ 004990a0     hd.obj
 0002:000060c0       ??_C@_01KMDKNFGN@?1?$AA@   004990c0     hd.obj
 0002:000060c4       ??_C@_1CI@DHHDAHAD@?$AAh?$AAN?$AAe?$AAt?$AAw?$AAo?$AAr?$AAk?$AAT?$AAh?$AAr?$AAe?$AAa?$AAd?$AA?5?$AAE?$AAN?$AAD?$AA?4?$AA?$AA@ 004990c4     hd.obj
 0002:000060f0       ??_C@_1EK@JBGMAMNI@?$AA?2?$AAS?$AAt?$AAr?$AAi?$AAn?$AAg?$AAF?$AAi?$AAl?$AAe?$AAI?$AAn?$AAf?$AAo?$AA?2?$AA?$CF?$AA0?$AA4?$AAx?$AA?$CF?$AA0?$AA4?$AAx?$AA?2?$AAF?$AAi?$AAl?$AAe?$AAV?$AAe?$AAr@ 004990f0     hd.obj
 0002:0000613c       ??_C@_1DC@HCLBMGIA@?$AA?2?$AAV?$AAa?$AAr?$AAF?$AAi?$AAl?$AAe?$AAI?$AAn?$AAf?$AAo?$AA?2?$AAT?$AAr?$AAa?$AAn?$AAs?$AAl?$AAa?$AAt?$AAi?$AAo?$AAn?$AA?$AA@ 0049913c     hd.obj
 0002:00006170       ??_C@_1BO@LPNKGBDE@?$AAH?$AAi?$AAd?$AAe?$AAD?$AAr?$AAa?$AAg?$AAo?$AAn?$AA?4?$AAe?$AAx?$AAe?$AA?$AA@ 00499170     hd.obj
 0002:00006190       ??_C@_1BI@NAHECEEK@?$AA?2?$AAD?$AAo?$AAw?$AAn?$AAl?$AAo?$AAa?$AAd?$AAs?$AA?2?$AA?$AA@ 00499190     hd.obj
 0002:000061a8       ??_C@_1CG@NJMNGEOA@?$AAv?$AAe?$AAr?$AAs?$AAi?$AAo?$AAn?$AAi?$AAn?$AAf?$AAo?$AA_?$AAe?$AAn?$AA?4?$AAh?$AAd?$AAv?$AA?$AA@ 004991a8     hd.obj
 0002:000061d0       ??_C@_0P@HOJGPHBA@Content?9Length?$AA@ 004991d0     hd.obj
 0002:000061e0       ??_C@_0BG@DFHPMKBG@en?1VersionInfo_en?4hdv?$AA@ 004991e0     hd.obj
 0002:000061f8       ??_C@_0BD@JFGAGBPB@www?4hidedragon?4com?$AA@ 004991f8     hd.obj
 0002:0000620c       __real@00000000            0049920c     hd.obj
 0002:00006210       ??_C@_0BG@MOLBAHIA@Connection?3Keep?9Alive?$AA@ 00499210     hd.obj
 0002:00006228       ??_C@_0DL@JGIINIBH@User?9Agent?3Mozilla?14?40?5?$CIcompatib@ 00499228     hd.obj
 0002:00006264       ??_C@_0L@EADEJJIF@Accept?3?$CK?1?$CK?$AA@ 00499264     hd.obj
 0002:00006270       ??_C@_05LJIPCHEG@Host?3?$AA@ 00499270     hd.obj
 0002:00006278       ??_C@_02PCIJFNDE@?$AN?6?$AA@ 00499278     hd.obj
 0002:0000627c       ??_C@_09MDJCEGGA@?5HTTP?11?41?$AA@ 0049927c     hd.obj
 0002:00006288       ??_C@_04IBPFIGHK@GET?5?$AA@ 00499288     hd.obj
 0002:00006290       ??_C@_1DG@EBFMKFDC@?$AAI?$AAD?$AAS?$AA_?$AAM?$AAE?$AAS?$AAS?$AAA?$AAG?$AAE?$AAB?$AAO?$AAX?$AA_?$AAS?$AAE?$AAR?$AAI?$AAA?$AAL?$AAE?$AAR?$AAR?$AAO?$AAR?$AA?$AA@ 00499290     hd.obj
 0002:000062c8       ??_C@_1GE@CELNGNID@?$AAR?$AAe?$AAg?$AAi?$AAs?$AAt?$AAe?$AAr?$AA?5?$AAc?$AAo?$AAd?$AAe?$AA?5?$AAi?$AAs?$AA?5?$AAe?$AAr?$AAr?$AAo?$AAr?$AA?0?$AAp?$AAl?$AAe?$AAa?$AAs?$AAe?$AA?5?$AAc?$AAh@ 004992c8     hd.obj
 0002:00006330       ??_C@_1EE@LCEPOAGF@?$AAI?$AAD?$AAS?$AA_?$AAM?$AAE?$AAS?$AAS?$AAA?$AAG?$AAE?$AAB?$AAO?$AAX?$AA_?$AAR?$AAE?$AAG?$AAI?$AAS?$AAT?$AAE?$AAR?$AAS?$AAU?$AAC?$AAC?$AAE?$AAS?$AAS?$AAF?$AAU@ 00499330     hd.obj
 0002:00006378       ??_C@_1JI@ELECPDBD@?$AAR?$AAe?$AAg?$AAi?$AAs?$AAt?$AAe?$AAr?$AA?5?$AAs?$AAu?$AAc?$AAc?$AAe?$AAs?$AAs?$AAf?$AAu?$AAl?$AA?$CB?$AAY?$AAo?$AAu?$AA?5?$AAc?$AAa?$AAn?$AA?5?$AAa?$AAc?$AAq?$AAu@ 00499378     hd.obj
 0002:00006410       ??_C@_19NHCINOKH@?$AAE?$AA1?$AAF?$AAA?$AA?$AA@ 00499410     hd.obj
 0002:0000641c       ??_C@_19JOGPKILI@?$AAA?$AA1?$AA0?$AAF?$AA?$AA@ 0049941c     hd.obj
 0002:00006428       ??_C@_13EHOOFIKC@?$AA?$HN?$AA?$AA@ 00499428     hd.obj
 0002:0000642c       ??_C@_13GCIFAHHO@?$AA?$HL?$AA?$AA@ 0049942c     hd.obj
 0002:00006430       ??_C@_1DO@JNHLBAFO@?$AAI?$AAD?$AAS?$AA_?$AAM?$AAE?$AAS?$AAS?$AAA?$AAG?$AAE?$AAB?$AAO?$AAX?$AA_?$AAU?$AAS?$AAE?$AAR?$AAN?$AAA?$AAM?$AAE?$AAT?$AAO?$AAS?$AAH?$AAO?$AAR?$AAT?$AA?$AA@ 00499430     hd.obj
 0002:00006470       ??_C@_1EA@HKKDGFIA@?$AAU?$AAs?$AAe?$AAr?$AA?5?$AAn?$AAa?$AAm?$AAe?$AA?5?$AAa?$AAt?$AA?5?$AAl?$AAe?$AAa?$AAs?$AAt?$AA?5?$AA3?$AA?5?$AAc?$AAh?$AAa?$AAr?$AAa?$AAc?$AAt?$AAe?$AAr?$AA?4?$AA?$AA@ 00499470     hd.obj
 0002:000064b0       ??_C@_1BK@KPEBMBMC@?$AAI?$AAD?$AAM?$AA_?$AAL?$AAI?$AAN?$AAK?$AA_?$AAB?$AAU?$AAY?$AA?$AA@ 004994b0     hd.obj
 0002:000064d0       ??_C@_1II@PMODPBIG@?$AAL?$AAi?$AAc?$AAe?$AAn?$AAs?$AAe?$AA?5?$AAc?$AAo?$AAd?$AAe?$AA?5?$AAs?$AAe?$AAn?$AAt?$AA?5?$AAa?$AAu?$AAt?$AAo?$AAm?$AAa?$AAt?$AAi?$AAc?$AAa?$AAl?$AAl?$AAy?$AA?5@ 004994d0     hd.obj
 0002:00006558       ??_C@_1CO@LLHDFNFE@?$AAI?$AAD?$AAS?$AA_?$AAT?$AAI?$AAP?$AA_?$AAR?$AAE?$AAG?$AAI?$AAS?$AAT?$AAE?$AAR?$AAB?$AAU?$AAY?$AAU?$AAR?$AAL?$AA?$AA@ 00499558     hd.obj
 0002:00006588       ??_C@_1GC@NDDDBCLK@?$AAP?$AAl?$AAe?$AAa?$AAs?$AAe?$AA?5?$AAf?$AAe?$AAe?$AAl?$AA?5?$AAf?$AAr?$AAe?$AAe?$AA?5?$AAt?$AAo?$AA?5?$AAc?$AAo?$AAn?$AAt?$AAa?$AAc?$AAt?$AA?5?$AAu?$AAs?$AA?5?$AAf@ 00499588     hd.obj
 0002:000065ec       ??_C@_1CM@GKDPPHAA@?$AAI?$AAD?$AAS?$AA_?$AAT?$AAI?$AAP?$AA_?$AAR?$AAE?$AAG?$AAI?$AAS?$AAT?$AAE?$AAR?$AAE?$AAM?$AAA?$AAI?$AAL?$AA?$AA@ 004995ec     hd.obj
 0002:00006618       ??_C@_1BC@KOBEHFD@?$AAI?$AAD?$AAM?$AA_?$AAE?$AAX?$AAI?$AAT?$AA?$AA@ 00499618     hd.obj
 0002:0000662c       ??_C@_1M@LPKGGIBA@?$AA?$CG?$AAE?$AAx?$AAi?$AAt?$AA?$AA@ 0049962c     hd.obj
 0002:00006638       ??_C@_1CM@PLKMJJCP@?$AAh?$AAN?$AAe?$AAt?$AAw?$AAo?$AAr?$AAk?$AAT?$AAh?$AAr?$AAe?$AAa?$AAd?$AA?5?$AAB?$AAE?$AAG?$AAI?$AAN?$AA?4?$AA?$AA@ 00499638     hd.obj
 0002:00006664       ??_C@_1CG@BJFNLPGM@?$AAS?$AAc?$AAa?$AAn?$AAW?$AAe?$AAb?$AAP?$AAr?$AAo?$AAc?$AA?5?$AAE?$AAn?$AAt?$AAe?$AAr?$AA?4?$AA?$AA@ 00499664     hd.obj
 0002:00006690       ??_C@_1EA@GBECOIIA@?$AAI?$AAD?$AAS?$AA_?$AAM?$AAE?$AAS?$AAS?$AAA?$AAG?$AAE?$AAB?$AAO?$AAX?$AA_?$AAP?$AAA?$AAS?$AAS?$AAW?$AAO?$AAR?$AAD?$AAN?$AAO?$AAT?$AAM?$AAA?$AAT?$AAC?$AAH?$AA?$AA@ 00499690     hd.obj
 0002:000066d0       ??_C@_1DE@NBEPAFJI@?$AAP?$AAa?$AAs?$AAs?$AAw?$AAo?$AAr?$AAd?$AA?5?$AAi?$AAs?$AA?5?$AAn?$AAo?$AAt?$AA?5?$AAm?$AAa?$AAt?$AAc?$AAh?$AAi?$AAn?$AAg?$AA?4?$AA?$AA@ 004996d0     hd.obj
 0002:00006708       ??_C@_1EA@HJOJKJNG@?$AAI?$AAD?$AAS?$AA_?$AAM?$AAE?$AAS?$AAS?$AAA?$AAG?$AAE?$AAB?$AAO?$AAX?$AA_?$AAI?$AAF?$AAE?$AAN?$AAA?$AAB?$AAL?$AAE?$AAP?$AAA?$AAS?$AAS?$AAW?$AAO?$AAR?$AAD?$AA?$AA@ 00499708     hd.obj
 0002:00006748       ??_C@_1GA@DPBNOLCE@?$AAI?$AAf?$AA?5?$AAe?$AAn?$AAa?$AAb?$AAl?$AAe?$AA?5?$AAp?$AAa?$AAs?$AAs?$AAw?$AAo?$AAr?$AAd?$AA?5?$AAp?$AAr?$AAo?$AAt?$AAe?$AAc?$AAt?$AA?0?$AAm?$AAu?$AAs?$AAt?$AA?5@ 00499748     hd.obj
 0002:000067a8       ??_C@_1CA@BPIDFFJM@?$AAT?$AAo?$AAo?$AAl?$AAb?$AAa?$AAr?$AAW?$AAi?$AAn?$AAd?$AAo?$AAw?$AA3?$AA2?$AA?$AA@ 004997a8     hd.obj
 0002:000067c8       ??_C@_1BC@DDCAIAOP@?$AAS?$AAy?$AAs?$AAP?$AAa?$AAg?$AAe?$AAr?$AA?$AA@ 004997c8     hd.obj
 0002:000067dc       ??_C@_1BM@OHAPGOLP@?$AAT?$AAr?$AAa?$AAy?$AAN?$AAo?$AAt?$AAi?$AAf?$AAy?$AAW?$AAn?$AAd?$AA?$AA@ 004997dc     hd.obj
 0002:000067f8       ??_C@_1BM@GLLFNEEF@?$AAS?$AAh?$AAe?$AAl?$AAl?$AA_?$AAT?$AAr?$AAa?$AAy?$AAW?$AAn?$AAd?$AA?$AA@ 004997f8     hd.obj
 0002:00006814       ??_C@_1BM@CBEIEMND@?$AA?$FL?$AAH?$AAi?$AAd?$AAd?$AAe?$AAn?$AA?5?$AAI?$AAc?$AAo?$AAn?$AA?$FN?$AA?$AA@ 00499814     hd.obj
 0002:00006830       ??_C@_1FC@MDPLMCEJ@?$AA?$FL?$AAT?$AAo?$AAo?$AAl?$AAT?$AAi?$AAp?$AA?5?$AAw?$AAa?$AAs?$AA?5?$AAe?$AAi?$AAt?$AAh?$AAe?$AAr?$AA?5?$AAt?$AAo?$AAo?$AA?5?$AAl?$AAo?$AAn?$AAg?$AA?5?$AAo?$AAr?$AA?5@ 00499830     hd.obj
 0002:00006884       ??_C@_1DI@KIFNOOMN@?$AAa?$AAr?$AAr?$AAT?$AAr?$AAa?$AAy?$AA?5?$AAa?$AAr?$AAr?$AAa?$AAy?$AA?5?$AAi?$AAs?$AA?5?$AAn?$AAo?$AAt?$AA?5?$AAe?$AAn?$AAo?$AAu?$AAg?$AAh?$AA?$AA@ 00499884     hd.obj
 0002:000068c0       ??_C@_1EI@GICLBNNF@?$AAI?$AAD?$AAS?$AA_?$AAW?$AAI?$AAZ?$AAA?$AAR?$AAD?$AAB?$AAK?$AAF?$AAI?$AAN?$AAI?$AAS?$AAH?$AA_?$AAC?$AAL?$AAI?$AAC?$AAK?$AAF?$AAI?$AAN?$AAI?$AAS?$AAH?$AAT?$AAO@ 004998c0     hd.obj
 0002:00006908       ??_C@_1DE@KNCFGICF@?$AAI?$AAD?$AAS?$AA_?$AAW?$AAI?$AAZ?$AAA?$AAR?$AAD?$AAB?$AAK?$AAF?$AAI?$AAN?$AAS?$AAI?$AAH?$AA_?$AAF?$AAI?$AAN?$AAI?$AAS?$AAH?$AA?$AA@ 00499908     hd.obj
 0002:00006940       ??_C@_1GI@LIBIFMFE@?$AAC?$AAl?$AAi?$AAc?$AAk?$AA?5?$AAF?$AAi?$AAn?$AAi?$AAs?$AAh?$AA?5?$AAt?$AAo?$AA?5?$AAh?$AAi?$AAd?$AAe?$AA?5?$AAt?$AAh?$AAe?$AA?5?$AAs?$AAe?$AAl?$AAe?$AAc?$AAt?$AAe@ 00499940     hd.obj
 0002:000069a8       ??_C@_1O@FBGKEDDG@?$AAF?$AAi?$AAn?$AAi?$AAs?$AAh?$AA?$AA@ 004999a8     hd.obj
 0002:000069b8       ??_C@_1EG@HFMPFKLO@?$AAI?$AAD?$AAS?$AA_?$AAW?$AAI?$AAZ?$AAA?$AAR?$AAD?$AAB?$AAK?$AAS?$AAE?$AAL?$AAW?$AAN?$AAD?$AA_?$AAS?$AAE?$AAL?$AAE?$AAC?$AAT?$AAW?$AAN?$AAD?$AAO?$AAR?$AAI?$AAC@ 004999b8     hd.obj
 0002:00006a00       ??_C@_1DK@LPLAABNG@?$AAI?$AAD?$AAS?$AA_?$AAW?$AAI?$AAZ?$AAA?$AAR?$AAD?$AAB?$AAK?$AAS?$AAE?$AAL?$AAW?$AAN?$AAD?$AA_?$AAF?$AAI?$AAR?$AAS?$AAT?$AAS?$AAT?$AAE?$AAP?$AA?$AA@ 00499a00     hd.obj
 0002:00006a40       ??_C@_1GA@LGNOJKNF@?$AAS?$AAe?$AAl?$AAe?$AAc?$AAt?$AA?5?$AAt?$AAh?$AAe?$AA?5?$AAp?$AAr?$AAo?$AAg?$AAr?$AAa?$AAm?$AAs?$AA?5?$AAo?$AAr?$AA?5?$AAt?$AAr?$AAa?$AAy?$AA?5?$AAi?$AAc?$AAo?$AAn@ 00499a40     hd.obj
 0002:00006aa0       ??_C@_1BG@KAAOKJGD@?$AAF?$AAi?$AAr?$AAs?$AAt?$AA?5?$AAS?$AAt?$AAe?$AAp?$AA?$AA@ 00499aa0     hd.obj
 0002:00006ab8       ??_C@_1EK@KNKMGFAP@?$AAI?$AAD?$AAS?$AA_?$AAM?$AAE?$AAS?$AAS?$AAA?$AAG?$AAE?$AAB?$AAO?$AAX?$AA_?$AAP?$AAL?$AAE?$AAA?$AAS?$AAE?$AAS?$AAE?$AAL?$AAE?$AAC?$AAT?$AAW?$AAN?$AAD?$AAO?$AAR@ 00499ab8     hd.obj
 0002:00006b08       ??_C@_1GC@MDNCDIHD@?$AAP?$AAl?$AAe?$AAa?$AAs?$AAe?$AA?5?$AAs?$AAe?$AAl?$AAe?$AAc?$AAt?$AA?5?$AAt?$AAh?$AAe?$AA?5?$AAi?$AAc?$AAo?$AAn?$AAs?$AA?5?$AAo?$AAr?$AA?5?$AAw?$AAi?$AAn?$AAd?$AAo@ 00499b08     hd.obj
 0002:00006b6c       ??_C@_1CM@OHMAFNJF@?$AAI?$AAD?$AAS?$AA_?$AAW?$AAI?$AAZ?$AAA?$AAR?$AAD?$AAB?$AAE?$AAG?$AAI?$AAN?$AA_?$AAT?$AAI?$AAT?$AAL?$AAE?$AA?$AA@ 00499b6c     hd.obj
 0002:00006b98       ??_C@_1FG@GMFLCCAA@?$AAT?$AAh?$AAe?$AA?5?$AAs?$AAp?$AAe?$AAc?$AAi?$AAf?$AAi?$AAe?$AAd?$AA?5?$AAb?$AAa?$AAc?$AAk?$AAg?$AAr?$AAo?$AAu?$AAn?$AAd?$AA?5?$AAp?$AAr?$AAo?$AAc?$AAe?$AAs?$AAs@ 00499b98     hd.obj
 0002:00006bf0       ??_C@_1FC@EFGPIKHB@?$AAI?$AAD?$AAS?$AA_?$AAM?$AAE?$AAS?$AAS?$AAA?$AAG?$AAE?$AAB?$AAO?$AAX?$AA_?$AAS?$AAE?$AAL?$AAE?$AAC?$AAT?$AAE?$AAD?$AAW?$AAN?$AAD?$AAO?$AAR?$AAI?$AAC?$AAO?$AAN@ 00499bf0     hd.obj
 0002:00006c48       ??_C@_1BAE@GFDBIALA@?$AAY?$AAo?$AAu?$AA?5?$AAh?$AAa?$AAv?$AAe?$AA?5?$AAs?$AAe?$AAl?$AAe?$AAc?$AAt?$AAe?$AAd?$AA?5?$AAt?$AAh?$AAe?$AA?5?$AAw?$AAi?$AAn?$AAd?$AAo?$AAw?$AAs?$AA?5?$AAo?$AAr@ 00499c48     hd.obj
 0002:00006d4c       ??_C@_1DG@NJLFIHGD@?$AAI?$AAD?$AAS?$AA_?$AAW?$AAI?$AAZ?$AAA?$AAR?$AAD?$AAS?$AAE?$AAL?$AAW?$AAN?$AAD?$AA_?$AAP?$AAR?$AAO?$AAC?$AAE?$AAS?$AAS?$AAI?$AAD?$AA?$AA@ 00499d4c     hd.obj
 0002:00006d84       ??_C@_1DK@MLDPCN@?$AAI?$AAD?$AAS?$AA_?$AAW?$AAI?$AAZ?$AAA?$AAR?$AAD?$AAS?$AAE?$AAL?$AAW?$AAN?$AAD?$AA_?$AAR?$AAE?$AAL?$AAA?$AAT?$AAE?$AAD?$AAT?$AAE?$AAX?$AAT?$AA?$AA@ 00499d84     hd.obj
 0002:00006dc0       ??_C@_1GI@ICPMDAGF@?$AAW?$AAi?$AAn?$AAd?$AAo?$AAw?$AA?5?$AAt?$AAi?$AAt?$AAl?$AAe?$AAs?$AA?5?$AAo?$AAr?$AA?5?$AAt?$AAo?$AAo?$AAl?$AAt?$AAi?$AAp?$AAs?$AA?5?$AAr?$AAe?$AAl?$AAa?$AAt?$AAe@ 00499dc0     hd.obj
 0002:00006e28       ??_C@_1DE@OGJOBGPL@?$AAI?$AAD?$AAS?$AA_?$AAW?$AAI?$AAZ?$AAA?$AAR?$AAD?$AAS?$AAE?$AAL?$AAW?$AAN?$AAD?$AA_?$AAT?$AAR?$AAA?$AAY?$AAI?$AAC?$AAO?$AAN?$AA?$AA@ 00499e28     hd.obj
 0002:00006e5c       ??_C@_13NOLLCAOD@?$AA?$AA?$AA?$AA@ 00499e5c     hd.obj
 0002:00006e60       ??_C@_1DG@DKGCLAFK@?$AAI?$AAD?$AAS?$AA_?$AAW?$AAI?$AAZ?$AAA?$AAR?$AAD?$AAF?$AAI?$AAN?$AAI?$AAS?$AAH?$AA_?$AAP?$AAR?$AAO?$AAC?$AAE?$AAS?$AAS?$AAI?$AAD?$AA?$AA@ 00499e60     hd.obj
 0002:00006e98       ??_C@_1DK@FLLGJLAJ@?$AAI?$AAD?$AAS?$AA_?$AAW?$AAI?$AAZ?$AAA?$AAR?$AAD?$AAF?$AAI?$AAN?$AAI?$AAS?$AAH?$AA_?$AAR?$AAE?$AAL?$AAA?$AAT?$AAE?$AAD?$AAT?$AAE?$AAX?$AAT?$AA?$AA@ 00499e98     hd.obj
 0002:00006ed4       ??_C@_1DE@NBALKJAH@?$AAI?$AAD?$AAS?$AA_?$AAW?$AAI?$AAZ?$AAA?$AAR?$AAD?$AAF?$AAI?$AAN?$AAI?$AAS?$AAH?$AA_?$AAT?$AAR?$AAA?$AAY?$AAI?$AAC?$AAO?$AAN?$AA?$AA@ 00499ed4     hd.obj
 0002:00006f08       ??_C@_1IE@MKCPKICO@?$AAl?$AAe?$AAa?$AAv?$AAe?$AA?5?$AAB?$AAe?$AAg?$AAi?$AAn?$AAB?$AAK?$AAM?$AAo?$AAn?$AAi?$AAt?$AAo?$AAr?$AAT?$AAh?$AAr?$AAe?$AAa?$AAd?$AA?4?$AA?4?$AA?4?$AA?4?$AA?4?$AA?4@ 00499f08     hd.obj
 0002:00006f90       ??_C@_1IE@JPFHGCFA@?$AAe?$AAn?$AAt?$AAe?$AAr?$AA?5?$AAB?$AAe?$AAg?$AAi?$AAn?$AAB?$AAK?$AAM?$AAo?$AAn?$AAi?$AAt?$AAo?$AAr?$AAT?$AAh?$AAr?$AAe?$AAa?$AAd?$AA?4?$AA?4?$AA?4?$AA?4?$AA?4?$AA?4@ 00499f90     hd.obj
 0002:00007018       ??_C@_1HI@ONIKNIKP@?$AAl?$AAe?$AAa?$AAv?$AAe?$AA?5?$AAB?$AAK?$AAW?$AAi?$AAn?$AAd?$AAo?$AAw?$AAT?$AAh?$AAr?$AAe?$AAa?$AAd?$AA?4?$AA?4?$AA?4?$AA?4?$AA?4?$AA?4?$AA?4?$AA?4?$AA?4?$AA?4?$AA?4?$AA?4@ 0049a018     hd.obj
 0002:00007090       ??_C@_1HI@BMMDKJCB@?$AAe?$AAn?$AAt?$AAe?$AAr?$AA?5?$AAB?$AAK?$AAW?$AAi?$AAn?$AAd?$AAo?$AAw?$AAT?$AAh?$AAr?$AAe?$AAa?$AAd?$AA?4?$AA?4?$AA?4?$AA?4?$AA?4?$AA?4?$AA?4?$AA?4?$AA?4?$AA?4?$AA?4?$AA?4@ 0049a090     hd.obj
 0002:00007108       ??_C@_1HG@MKADDDLB@?$AAl?$AAe?$AAa?$AAv?$AAe?$AA?5?$AAM?$AAo?$AAn?$AAi?$AAt?$AAo?$AAr?$AAB?$AAK?$AAP?$AAr?$AAo?$AAc?$AA?4?$AA?4?$AA?4?$AA?4?$AA?4?$AA?4?$AA?4?$AA?4?$AA?4?$AA?4?$AA?4?$AA?4?$AA?4@ 0049a108     hd.obj
 0002:00007180       ??_C@_1CK@FDNLADGN@?$AAt?$AAe?$AAr?$AAm?$AAi?$AAm?$AAa?$AAt?$AAe?$AA?5?$AAb?$AAk?$AA?5?$AAt?$AAh?$AAr?$AAe?$AAa?$AAd?$AA?4?$AA?$AA@ 0049a180     hd.obj
 0002:000071b0       ??_C@_1HC@MBBKLOBE@?$AAe?$AAn?$AAt?$AAe?$AAr?$AA?5?$AAb?$AAk?$AAm?$AAo?$AAn?$AAi?$AAt?$AAo?$AAr?$AA?5?$AAt?$AAh?$AAr?$AAe?$AAa?$AAd?$AA?4?$AA?4?$AA?4?$AA?4?$AA?4?$AA?4?$AAi?$AA?5?$AA?$DM?$AA?5@ 0049a1b0     hd.obj
 0002:00007228       ??_C@_1HG@ILLIENDE@?$AAe?$AAn?$AAt?$AAe?$AAr?$AA?5?$AAM?$AAo?$AAn?$AAi?$AAt?$AAo?$AAr?$AAB?$AAK?$AAP?$AAr?$AAo?$AAc?$AA?4?$AA?4?$AA?4?$AA?4?$AA?4?$AA?4?$AA?4?$AA?4?$AA?4?$AA?4?$AA?4?$AA?4?$AA?4@ 0049a228     hd.obj
 0002:000072a0       ??_C@_1LK@JPAALKGL@?$AAl?$AAe?$AAa?$AAv?$AAe?$AA?5?$AAW?$AAa?$AAi?$AAt?$AAF?$AAo?$AAr?$AAS?$AAi?$AAn?$AAg?$AAl?$AAe?$AAO?$AAb?$AAj?$AAe?$AAc?$AAt?$AA?$CI?$AAh?$AAM?$AAo?$AAn?$AAi?$AAt@ 0049a2a0     hd.obj
 0002:00007360       ??_C@_1LK@CPNKLFNI@?$AAs?$AAt?$AAa?$AAr?$AAt?$AA?5?$AAW?$AAa?$AAi?$AAt?$AAF?$AAo?$AAr?$AAS?$AAi?$AAn?$AAg?$AAl?$AAe?$AAO?$AAb?$AAj?$AAe?$AAc?$AAt?$AA?$CI?$AAh?$AAM?$AAo?$AAn?$AAi?$AAt@ 0049a360     hd.obj
 0002:0000741c       ??_C@_1DC@IHHMDMAJ@?$AAI?$AAD?$AAS?$AA_?$AAL?$AAI?$AAS?$AAT?$AAV?$AAI?$AAE?$AAW?$AAB?$AAK?$AA_?$AAP?$AAR?$AAO?$AAC?$AAE?$AAS?$AAS?$AAI?$AAD?$AA?$AA@ 0049a41c     hd.obj
 0002:00007450       ??_C@_1DI@DLIPBNCO@?$AAI?$AAD?$AAS?$AA_?$AAL?$AAI?$AAS?$AAT?$AAV?$AAI?$AAE?$AAW?$AAB?$AAK?$AA_?$AAR?$AAE?$AAL?$AAA?$AAT?$AAE?$AAD?$AAT?$AAI?$AAT?$AAL?$AAE?$AA?$AA@ 0049a450     hd.obj
 0002:00007488       ??_C@_1EI@KKKIKDNE@?$AAW?$AAi?$AAn?$AAd?$AAo?$AAw?$AA?5?$AAT?$AAi?$AAt?$AAl?$AAe?$AA?5?$AAo?$AAr?$AA?5?$AAT?$AAr?$AAa?$AAy?$AA?5?$AAI?$AAc?$AAo?$AAn?$AA?8?$AAs?$AA?5?$AAT?$AAo?$AAo?$AAl@ 0049a488     hd.obj
 0002:000074d0       ??_C@_1DA@BDEECNGF@?$AAI?$AAD?$AAS?$AA_?$AAL?$AAI?$AAS?$AAT?$AAV?$AAI?$AAE?$AAW?$AAB?$AAK?$AA_?$AAT?$AAR?$AAA?$AAY?$AAI?$AAC?$AAO?$AAN?$AA?$AA@ 0049a4d0     hd.obj
 0002:00007500       ??_C@_1DE@IOOOPFFG@?$AAI?$AAD?$AAS?$AA_?$AAQ?$AAU?$AAI?$AAC?$AAK?$AAH?$AAI?$AAD?$AAE?$AA_?$AAD?$AAA?$AAI?$AAL?$AAO?$AAG?$AAT?$AAI?$AAT?$AAL?$AAE?$AA?$AA@ 0049a500     hd.obj
 0002:00007534       ??_C@_1DM@EHCBBAEJ@?$AAP?$AAl?$AAe?$AAa?$AAs?$AAe?$AA?5?$AAS?$AAe?$AAl?$AAe?$AAc?$AAt?$AA?5?$AAE?$AAx?$AAe?$AAc?$AAu?$AAt?$AAa?$AAb?$AAl?$AAe?$AA?5?$AAF?$AAi?$AAl?$AAe?$AA?$AA@ 0049a534     hd.obj
 0002:00007570       ??_C@_1DA@CACHPNDH@?$AAI?$AAD?$AAS?$AA_?$AAQ?$AAU?$AAI?$AAC?$AAK?$AAH?$AAI?$AAD?$AAE?$AA_?$AAF?$AAI?$AAL?$AAE?$AAT?$AAY?$AAP?$AAE?$AA4?$AA?$AA@ 0049a570     hd.obj
 0002:000075a0       ??_C@_1DA@LNPAMFIO@?$AAI?$AAD?$AAS?$AA_?$AAQ?$AAU?$AAI?$AAC?$AAK?$AAH?$AAI?$AAD?$AAE?$AA_?$AAF?$AAI?$AAL?$AAE?$AAT?$AAY?$AAP?$AAE?$AA3?$AA?$AA@ 0049a5a0     hd.obj
 0002:000075d0       ??_C@_1CA@OCOKIIDB@?$AAA?$AAl?$AAl?$AA?5?$AAF?$AAi?$AAl?$AAe?$AAs?$AA?5?$AA?$CI?$AA?$CK?$AA?4?$AA?$CK?$AA?$CJ?$AA?$AA@ 0049a5d0     hd.obj
 0002:000075f0       ??_C@_1DA@FEMKCOL@?$AAI?$AAD?$AAS?$AA_?$AAQ?$AAU?$AAI?$AAC?$AAK?$AAH?$AAI?$AAD?$AAE?$AA_?$AAF?$AAI?$AAL?$AAE?$AAT?$AAY?$AAP?$AAE?$AA2?$AA?$AA@ 0049a5f0     hd.obj
 0002:00007620       ??_C@_1M@KNCNHHG@?$AA?$CK?$AA?4?$AAE?$AAX?$AAE?$AA?$AA@ 0049a620     hd.obj
 0002:0000762c       ??_C@_1DA@BHPJANAF@?$AAI?$AAD?$AAS?$AA_?$AAQ?$AAU?$AAI?$AAC?$AAK?$AAH?$AAI?$AAD?$AAE?$AA_?$AAF?$AAI?$AAL?$AAE?$AAT?$AAY?$AAP?$AAE?$AA1?$AA?$AA@ 0049a62c     hd.obj
 0002:0000765c       ??_C@_1DC@MHEJGPDE@?$AAE?$AAx?$AAe?$AAc?$AAu?$AAt?$AAa?$AAb?$AAl?$AAe?$AA?5?$AAF?$AAi?$AAl?$AAe?$AAs?$AA?5?$AA?$CI?$AA?$CK?$AA?4?$AAE?$AAX?$AAE?$AA?$CJ?$AA?$AA@ 0049a65c     hd.obj
 0002:00007690       ??_C@_1GI@EOHNKCMK@?$AAE?$AAx?$AAe?$AAc?$AAu?$AAt?$AAa?$AAb?$AAl?$AAe?$AA?5?$AAF?$AAi?$AAl?$AAe?$AAs?$AA?5?$AA?$CI?$AA?$CK?$AA?4?$AAE?$AAX?$AAE?$AA?$CJ?$AA?$AA?$AA?$CK?$AA?4?$AAE?$AAX?$AAE?$AA?$AA?$AAA@ 0049a690     hd.obj
 0002:000076f8       ??_C@_19GAILEKPG@?$AA?4?$AAE?$AAX?$AAE?$AA?$AA@ 0049a6f8     hd.obj
 0002:00007704       ??_C@_1DM@LHHGPPJL@?$AAI?$AAD?$AAS?$AA_?$AAM?$AAE?$AAS?$AAS?$AAA?$AAG?$AAE?$AAB?$AAO?$AAX?$AA_?$AAN?$AAE?$AAE?$AAD?$AAS?$AAE?$AAL?$AAP?$AAR?$AAO?$AAG?$AAR?$AAA?$AAM?$AA?$AA@ 0049a704     hd.obj
 0002:00007740       ??_C@_1IO@FDFLAEPN@?$AAI?$AAf?$AA?5?$AAe?$AAn?$AAa?$AAb?$AAl?$AAe?$AA?5?$AAr?$AAu?$AAn?$AA?5?$AAp?$AAr?$AAo?$AAg?$AAr?$AAa?$AAm?$AA?5?$AAa?$AAf?$AAt?$AAe?$AAr?$AA?5?$AAh?$AAi?$AAd?$AAe@ 0049a740     hd.obj
 0002:000077d0       ??_C@_1DE@KGIKEOBP@?$AA?$CG?$AAC?$AAa?$AAn?$AAc?$AAe?$AAl?$AA?5?$AAC?$AAh?$AAe?$AAc?$AAk?$AA?5?$AAT?$AAh?$AAi?$AAs?$AA?5?$AAW?$AAi?$AAn?$AAd?$AAo?$AAw?$AA?$AA@ 0049a7d0     hd.obj
 0002:00007804       ??_C@_1CG@NLPLOCJC@?$AA?$CG?$AAC?$AAh?$AAe?$AAc?$AAk?$AA?5?$AAT?$AAh?$AAi?$AAs?$AA?5?$AAW?$AAi?$AAn?$AAd?$AAo?$AAw?$AA?$AA@ 0049a804     hd.obj
 0002:0000782c       ??_C@_1DK@KMMINKBL@?$AA?$CG?$AAA?$AAu?$AAt?$AAo?$AAm?$AAa?$AAt?$AAi?$AAc?$AA?5?$AAC?$AAh?$AAe?$AAc?$AAk?$AA?5?$AAT?$AAh?$AAi?$AAs?$AA?5?$AAW?$AAi?$AAn?$AAd?$AAo?$AAw?$AA?$AA@ 0049a82c     hd.obj
 0002:00007868       ??_C@_1EI@JHJFECJO@?$AAC?$AAa?$AAn?$AAc?$AAe?$AA?$CG?$AAl?$AA?5?$AAA?$AAu?$AAt?$AAo?$AAm?$AAa?$AAt?$AAi?$AAc?$AA?5?$AAC?$AAh?$AAe?$AAc?$AAk?$AA?5?$AAT?$AAh?$AAi?$AAs?$AA?5?$AAW?$AAi?$AAn@ 0049a868     hd.obj
 0002:000078b0       ??_C@_19LEEBGBHE@?$AAV?$AAa?$AAl?$AA4?$AA?$AA@ 0049a8b0     hd.obj
 0002:000078bc       ??_C@_19CJJGFJMN@?$AAV?$AAa?$AAl?$AA3?$AA?$AA@ 0049a8bc     hd.obj
 0002:000078c8       ??_C@_19JBCKDOKI@?$AAV?$AAa?$AAl?$AA2?$AA?$AA@ 0049a8c8     hd.obj
 0002:000078d4       ??_C@_19IDJPJBEG@?$AAV?$AAa?$AAl?$AA1?$AA?$AA@ 0049a8d4     hd.obj
 0002:000078e0       ??_C@_19MPNAGBB@?$AAV?$AAa?$AAl?$AA5?$AA?$AA@ 0049a8e0     hd.obj
 0002:000078ec       ??_C@_1CI@NLMKFJJO@?$AAS?$AAo?$AAf?$AAt?$AAw?$AAa?$AAr?$AAe?$AA?2?$AAH?$AAi?$AAd?$AAe?$AAD?$AAr?$AAa?$AAg?$AAo?$AAn?$AA?$AA@ 0049a8ec     hd.obj
 0002:00007914       ??_C@_1BO@MEPPHOO@?$AA?$CC?$AAo?$AAu?$AAt?$AA?5?$AAo?$AAf?$AA?5?$AAr?$AAa?$AAn?$AAg?$AAe?$AA?$CC?$AA?$AA@ 0049a914     hd.obj
 0002:00007938       ??_C@_1NE@EEMFHPAE@?$AAs?$AAt?$AAd?$AA?3?$AA?3?$AAl?$AAi?$AAs?$AAt?$AA?$DM?$AAs?$AAt?$AAr?$AAu?$AAc?$AAt?$AA?5?$AAs?$AAB?$AAK?$AAW?$AAH?$AAo?$AAt?$AAk?$AAe?$AAy?$AA?5?$AA?$CK?$AA?0?$AAc?$AAl@ 0049a938     hd.obj
 0002:00007a10       ??_C@_1FG@CMLDHNON@?$AA?$CI?$AA?$CC?$AAS?$AAt?$AAa?$AAn?$AAd?$AAa?$AAr?$AAd?$AA?5?$AAC?$AA?$CL?$AA?$CL?$AA?5?$AAL?$AAi?$AAb?$AAr?$AAa?$AAr?$AAi?$AAe?$AAs?$AA?5?$AAO?$AAu?$AAt?$AA?5?$AAo?$AAf?$AA?5@ 0049aa10     hd.obj
 0002:00007a68       ??_C@_1EC@HILJLMMC@?$AAl?$AAi?$AAs?$AAt?$AA?5?$AAi?$AAt?$AAe?$AAr?$AAa?$AAt?$AAo?$AAr?$AA?5?$AAn?$AAo?$AAt?$AA?5?$AAd?$AAe?$AAr?$AAe?$AAf?$AAe?$AAr?$AAe?$AAn?$AAc?$AAa?$AAb?$AAl?$AAe@ 0049aa68     hd.obj
 0002:00007ab0       ??_C@_1HK@BAKLBEFA@?$AAc?$AA?3?$AA?2?$AAp?$AAr?$AAo?$AAg?$AAr?$AAa?$AAm?$AA?5?$AAf?$AAi?$AAl?$AAe?$AAs?$AA?2?$AAm?$AAi?$AAc?$AAr?$AAo?$AAs?$AAo?$AAf?$AAt?$AA?5?$AAv?$AAi?$AAs?$AAu?$AAa@ 0049aab0     hd.obj
 0002:00007b30       ??_C@_1NG@BILJBGPG@?$AAs?$AAt?$AAd?$AA?3?$AA?3?$AAl?$AAi?$AAs?$AAt?$AA?$DM?$AAs?$AAt?$AAr?$AAu?$AAc?$AAt?$AA?5?$AAs?$AAB?$AAK?$AAW?$AAH?$AAo?$AAt?$AAk?$AAe?$AAy?$AA?5?$AA?$CK?$AA?0?$AAc?$AAl@ 0049ab30     hd.obj
 0002:00007c08       ??_C@_1EA@DOGAGKDH@?$AAl?$AAi?$AAs?$AAt?$AA?5?$AAi?$AAt?$AAe?$AAr?$AAa?$AAt?$AAo?$AAr?$AA?5?$AAn?$AAo?$AAt?$AA?5?$AAi?$AAn?$AAc?$AAr?$AAe?$AAm?$AAe?$AAn?$AAt?$AAa?$AAb?$AAl?$AAe?$AA?$AA@ 0049ac08     hd.obj
 0002:00007c48       ??_C@_1CG@JNLFBNGN@?$AA?$CC?$AAi?$AAn?$AAv?$AAa?$AAl?$AAi?$AAd?$AA?5?$AAa?$AAr?$AAg?$AAu?$AAm?$AAe?$AAn?$AAt?$AA?$CC?$AA?$AA@ 0049ac48     hd.obj
 0002:00007c70       ??_C@_1MO@EHMFMIOJ@?$AAs?$AAt?$AAd?$AA?3?$AA?3?$AAl?$AAi?$AAs?$AAt?$AA?$DM?$AAs?$AAt?$AAr?$AAu?$AAc?$AAt?$AA?5?$AAs?$AAB?$AAK?$AAW?$AAH?$AAo?$AAt?$AAk?$AAe?$AAy?$AA?5?$AA?$CK?$AA?0?$AAc?$AAl@ 0049ac70     hd.obj
 0002:00007d40       ??_C@_1FO@OCPOOAIA@?$AA?$CI?$AA?$CC?$AAS?$AAt?$AAa?$AAn?$AAd?$AAa?$AAr?$AAd?$AA?5?$AAC?$AA?$CL?$AA?$CL?$AA?5?$AAL?$AAi?$AAb?$AAr?$AAa?$AAr?$AAi?$AAe?$AAs?$AA?5?$AAI?$AAn?$AAv?$AAa?$AAl?$AAi?$AAd@ 0049ad40     hd.obj
 0002:00007da0       ??_C@_1DI@MDELDGPI@?$AAl?$AAi?$AAs?$AAt?$AA?5?$AAi?$AAt?$AAe?$AAr?$AAa?$AAt?$AAo?$AAr?$AAs?$AA?5?$AAi?$AAn?$AAc?$AAo?$AAm?$AAp?$AAa?$AAt?$AAi?$AAb?$AAl?$AAe?$AA?$AA@ 0049ada0     hd.obj
 0002:00007ddc       ??_7Thank_you@Define_the_symbol__ATL_MIXED@@6B@ 0049addc     hd.obj
 0002:00007de0       ??_C@_1JC@MEGJFGCM@?$AAc?$AA?3?$AA?2?$AAp?$AAr?$AAo?$AAg?$AAr?$AAa?$AAm?$AA?5?$AAf?$AAi?$AAl?$AAe?$AAs?$AA?2?$AAm?$AAi?$AAc?$AAr?$AAo?$AAs?$AAo?$AAf?$AAt?$AA?5?$AAv?$AAi?$AAs?$AAu?$AAa@ 0049ade0     hd.obj
 0002:00007e74       ??_C@_1BM@NFPICFEL@?$AA_?$AAp?$AAM?$AAo?$AAd?$AAu?$AAl?$AAe?$AA?5?$AA?$DN?$AA?$DN?$AA?5?$AA0?$AA?$AA@ 0049ae74     hd.obj
 0002:00007e94       ??_7CComModule@ATL@@6B@    0049ae94     hd.obj
 0002:00007ebc       ??_C@_1BI@JBLBCKD@?$AAm?$AA_?$AAp?$AAG?$AAI?$AAT?$AA?5?$AA?$CB?$AA?$DN?$AA?5?$AA0?$AA?$AA@ 0049aebc     hd.obj
 0002:00007ed4       __GUID_00000146_0000_0000_c000_000000000046 0049aed4     hd.obj
 0002:00007ee4       ??_C@_1BG@LENCCAOJ@?$AAp?$AAp?$AAG?$AAI?$AAT?$AA?5?$AA?$CB?$AA?$DN?$AA?5?$AA0?$AA?$AA@ 0049aee4     hd.obj
 0002:00007efc       ??_C@_1BC@KAILKFFG@?$AAR?$AAE?$AAG?$AAI?$AAS?$AAT?$AAR?$AAY?$AA?$AA@ 0049aefc     hd.obj
 0002:00007f10       ??_C@_1BG@JBACFMF@?$AAM?$AAo?$AAd?$AAu?$AAl?$AAe?$AA_?$AAR?$AAa?$AAw?$AA?$AA@ 0049af10     hd.obj
 0002:00007f28       ??_C@_1O@MNLDABAF@?$AAM?$AAo?$AAd?$AAu?$AAl?$AAe?$AA?$AA@ 0049af28     hd.obj
 0002:00007f38       ??_C@_1DC@HEJCCJC@?$AA0?$AA?5?$AA?$CB?$AA?$DN?$AA?5?$AAp?$AAM?$AAa?$AAp?$AAE?$AAn?$AAt?$AAr?$AAi?$AAe?$AAs?$AA?9?$AA?$DO?$AAs?$AAz?$AAD?$AAa?$AAt?$AAa?$AA?$AA@ 0049af38     hd.obj
 0002:00007f70       ??_7CRegObject@ATL@@6B@    0049af70     hd.obj
 0002:00007f88       ??_C@_1JC@GKEIHHNI@?$AAc?$AA?3?$AA?2?$AAp?$AAr?$AAo?$AAg?$AAr?$AAa?$AAm?$AA?5?$AAf?$AAi?$AAl?$AAe?$AAs?$AA?2?$AAm?$AAi?$AAc?$AAr?$AAo?$AAs?$AAo?$AAf?$AAt?$AA?5?$AAv?$AAi?$AAs?$AAu?$AAa@ 0049af88     hd.obj
 0002:00008020       ??_C@_1KC@MLBIPPDL@?$AAL?$AA?$CC?$AAs?$AAt?$AAa?$AAt?$AAi?$AAc?$AAa?$AAl?$AAl?$AAy?$AA?5?$AAl?$AAi?$AAn?$AAk?$AAe?$AAd?$AA?5?$AAi?$AAn?$AA?5?$AAC?$AAR?$AAe?$AAg?$AAO?$AAb?$AAj?$AAe?$AAc@ 0049b020     hd.obj
 0002:000080c8       ??_C@_1JM@PMKLGAKF@?$AAs?$AAt?$AAa?$AAt?$AAi?$AAc?$AAa?$AAl?$AAl?$AAy?$AA?5?$AAl?$AAi?$AAn?$AAk?$AAe?$AAd?$AA?5?$AAi?$AAn?$AA?5?$AAC?$AAR?$AAe?$AAg?$AAO?$AAb?$AAj?$AAe?$AAc?$AAt?$AA?5@ 0049b0c8     hd.obj
 0002:00008168       ??_C@_1JC@FPJFAPHK@?$AAc?$AA?3?$AA?2?$AAp?$AAr?$AAo?$AAg?$AAr?$AAa?$AAm?$AA?5?$AAf?$AAi?$AAl?$AAe?$AAs?$AA?2?$AAm?$AAi?$AAc?$AAr?$AAo?$AAs?$AAo?$AAf?$AAt?$AA?5?$AAv?$AAi?$AAs?$AAu?$AAa@ 0049b168     hd.obj
 0002:000081fc       ??_C@_1CA@MNJCDMEH@?$AA?$CB?$AAm?$AA_?$AAb?$AAI?$AAn?$AAi?$AAt?$AAi?$AAa?$AAl?$AAi?$AAz?$AAe?$AAd?$AA?$AA@ 0049b1fc     hd.obj
 0002:0000821c       ??_C@_1BO@BPPEIPCH@?$AAm?$AA_?$AAb?$AAI?$AAn?$AAi?$AAt?$AAi?$AAa?$AAl?$AAi?$AAz?$AAe?$AAd?$AA?$AA@ 0049b21c     hd.obj
 0002:0000823c       ??_C@_1DO@EIGOLNAA@?$AAl?$AAp?$AAs?$AAz?$AAK?$AAe?$AAy?$AA?5?$AA?$CB?$AA?$DN?$AA?5?$AA0?$AA?5?$AA?$CG?$AA?$CG?$AA?5?$AAl?$AAp?$AAs?$AAz?$AAV?$AAa?$AAl?$AAu?$AAe?$AA?5?$AA?$CB?$AA?$DN?$AA?5?$AA0?$AA?$AA@ 0049b23c     hd.obj
 0002:00008280       ??_C@_0EL@IONPGLPE@c?3?2program?5files?2microsoft?5visua@ 0049b280     hd.obj
 0002:000082cc       ??_C@_1CK@DFMKPFAK@?$AAA?$AAt?$AAl?$AAT?$AAh?$AAr?$AAo?$AAw?$AA?3?$AA?5?$AAh?$AAr?$AA?5?$AA?$DN?$AA?5?$AA0?$AAx?$AA?$CF?$AAx?$AA?6?$AA?$AA@ 0049b2cc     hd.obj
 0002:000082f8       ??_C@_1DA@KJKEAFMD@?$AAF?$AAa?$AAi?$AAl?$AAe?$AAd?$AA?5?$AAt?$AAo?$AA?5?$AAL?$AAo?$AAa?$AAd?$AAR?$AAe?$AAs?$AAo?$AAu?$AAr?$AAc?$AAe?$AA?6?$AA?$AA@ 0049b2f8     hd.obj
 0002:00008328       ??_C@_1FC@GJNGJNC@?$AAF?$AAa?$AAi?$AAl?$AAe?$AAd?$AA?5?$AAt?$AAo?$AA?5?$AAF?$AAi?$AAn?$AAd?$AAR?$AAe?$AAs?$AAo?$AAu?$AAr?$AAc?$AAe?$AA?5?$AAo?$AAn?$AA?5?$AAI?$AAD?$AA?3?$AA?$CF?$AAs?$AA?5@ 0049b328     hd.obj
 0002:00008380       ??_C@_1FC@MKLDBNND@?$AAF?$AAa?$AAi?$AAl?$AAe?$AAd?$AA?5?$AAt?$AAo?$AA?5?$AAF?$AAi?$AAn?$AAd?$AAR?$AAe?$AAs?$AAo?$AAu?$AAr?$AAc?$AAe?$AA?5?$AAo?$AAn?$AA?5?$AAI?$AAD?$AA?3?$AA?$CF?$AAd?$AA?5@ 0049b380     hd.obj
 0002:000083d8       ??_C@_0EJ@EOFENAKN@c?3?2program?5files?2microsoft?5visua@ 0049b3d8     hd.obj
 0002:00008424       ??_C@_1DK@KPALHLBM@?$AAF?$AAa?$AAi?$AAl?$AAe?$AAd?$AA?5?$AAt?$AAo?$AA?5?$AAL?$AAo?$AAa?$AAd?$AAL?$AAi?$AAb?$AAr?$AAa?$AAr?$AAy?$AA?5?$AAo?$AAn?$AA?5?$AA?$CF?$AAs?$AA?6?$AA?$AA@ 0049b424     hd.obj
 0002:00008460       ??_C@_1EE@EMAKHHOG@?$AAF?$AAa?$AAi?$AAl?$AAe?$AAd?$AA?5?$AAt?$AAo?$AA?5?$AAr?$AAe?$AAg?$AAi?$AAs?$AAt?$AAe?$AAr?$AA?0?$AA?5?$AAc?$AAl?$AAe?$AAa?$AAn?$AAi?$AAn?$AAg?$AA?5?$AAu?$AAp?$AA?$CB@ 0049b460     hd.obj
 0002:000084a8       ??_C@_1FC@IDFLCCCC@?$AAS?$AAy?$AAn?$AAt?$AAa?$AAx?$AA?5?$AAe?$AAr?$AAr?$AAo?$AAr?$AA?0?$AA?5?$AAe?$AAx?$AAp?$AAe?$AAc?$AAt?$AAi?$AAn?$AAg?$AA?5?$AAa?$AA?5?$AA?$HL?$AA?0?$AA?5?$AAf?$AAo?$AAu@ 0049b4a8     hd.obj
 0002:000084fc       ??_C@_1DK@PLAOGDCE@?$AAH?$AAK?$AAe?$AAy?$AAF?$AAr?$AAo?$AAm?$AAS?$AAt?$AAr?$AAi?$AAn?$AAg?$AA?5?$AAf?$AAa?$AAi?$AAl?$AAe?$AAd?$AA?5?$AAo?$AAn?$AA?5?$AA?$CF?$AAs?$AA?6?$AA?$AA@ 0049b4fc     hd.obj
 0002:00008538       ??_C@_17MJEANDKP@?$AA?$CF?$AAs?$AA?6?$AA?$AA@ 0049b538     hd.obj
 0002:00008540       ?map@?1??HKeyFromString@CRegParser@ATL@@KAPAUHKEY__@@PA_W@Z@4QBUkeymap@?1??123@KAPAU4@0@Z@B 0049b540     hd.obj
 0002:000085b0       ??_C@_19NCHLBIN@?$AAH?$AAK?$AAC?$AAR?$AA?$AA@ 0049b5b0     hd.obj
 0002:000085bc       ??_C@_19JAPAIJDE@?$AAH?$AAK?$AAC?$AAU?$AA?$AA@ 0049b5bc     hd.obj
 0002:000085c8       ??_C@_19PEALEEJB@?$AAH?$AAK?$AAL?$AAM?$AA?$AA@ 0049b5c8     hd.obj
 0002:000085d4       ??_C@_17PJOJPMPB@?$AAH?$AAK?$AAU?$AA?$AA@ 0049b5d4     hd.obj
 0002:000085dc       ??_C@_19PNBHMJPL@?$AAH?$AAK?$AAP?$AAD?$AA?$AA@ 0049b5dc     hd.obj
 0002:000085e8       ??_C@_19GFFAIJHG@?$AAH?$AAK?$AAD?$AAD?$AA?$AA@ 0049b5e8     hd.obj
 0002:000085f4       ??_C@_19OFICIBHH@?$AAH?$AAK?$AAC?$AAC?$AA?$AA@ 0049b5f4     hd.obj
 0002:00008600       ??_C@_1CE@PACHPJFI@?$AAH?$AAK?$AAE?$AAY?$AA_?$AAC?$AAL?$AAA?$AAS?$AAS?$AAE?$AAS?$AA_?$AAR?$AAO?$AAO?$AAT?$AA?$AA@ 0049b600     hd.obj
 0002:00008624       ??_C@_1CE@HLHNCBPM@?$AAH?$AAK?$AAE?$AAY?$AA_?$AAC?$AAU?$AAR?$AAR?$AAE?$AAN?$AAT?$AA_?$AAU?$AAS?$AAE?$AAR?$AA?$AA@ 0049b624     hd.obj
 0002:00008648       ??_C@_1CG@GFBEANJL@?$AAH?$AAK?$AAE?$AAY?$AA_?$AAL?$AAO?$AAC?$AAA?$AAL?$AA_?$AAM?$AAA?$AAC?$AAH?$AAI?$AAN?$AAE?$AA?$AA@ 0049b648     hd.obj
 0002:00008670       ??_C@_1BG@BGODANIO@?$AAH?$AAK?$AAE?$AAY?$AA_?$AAU?$AAS?$AAE?$AAR?$AAS?$AA?$AA@ 0049b670     hd.obj
 0002:00008688       ??_C@_1CM@KHNNAOIC@?$AAH?$AAK?$AAE?$AAY?$AA_?$AAP?$AAE?$AAR?$AAF?$AAO?$AAR?$AAM?$AAA?$AAN?$AAC?$AAE?$AA_?$AAD?$AAA?$AAT?$AAA?$AA?$AA@ 0049b688     hd.obj
 0002:000086b4       ??_C@_1BM@HAGMMHIA@?$AAH?$AAK?$AAE?$AAY?$AA_?$AAD?$AAY?$AAN?$AA_?$AAD?$AAA?$AAT?$AAA?$AA?$AA@ 0049b6b4     hd.obj
 0002:000086d0       ??_C@_1CI@BBJOACGG@?$AAH?$AAK?$AAE?$AAY?$AA_?$AAC?$AAU?$AAR?$AAR?$AAE?$AAN?$AAT?$AA_?$AAC?$AAO?$AAN?$AAF?$AAI?$AAG?$AA?$AA@ 0049b6d0     hd.obj
 0002:000086f8       ??_C@_1EI@CDDJHMMA@?$AAN?$AAe?$AAx?$AAt?$AAT?$AAo?$AAk?$AAe?$AAn?$AA?5?$AA?3?$AA?5?$AAU?$AAn?$AAe?$AAx?$AAp?$AAe?$AAc?$AAt?$AAe?$AAd?$AA?5?$AAE?$AAn?$AAd?$AA?5?$AAo?$AAf?$AA?5?$AAF?$AAi@ 0049b6f8     hd.obj
 0002:00008740       ??_C@_1DG@KOLNJMBJ@?$AAE?$AAr?$AAr?$AAo?$AAr?$AA?5?$AAn?$AAo?$AA?5?$AAc?$AAl?$AAo?$AAs?$AAi?$AAn?$AAg?$AA?5?$AA?$CF?$AA?$CF?$AA?5?$AAf?$AAo?$AAu?$AAn?$AAd?$AA?6?$AA?$AA@ 0049b740     hd.obj
 0002:00008778       ??_C@_1BE@LJOLIMEM@?$AA?$AN?$AA?6?$AA?7?$AA?$HN?$AA?$AN?$AA?6?$AA?$HN?$AA?$AN?$AA?6?$AA?$AA@ 0049b778     hd.obj
 0002:00008790       ??_C@_1EA@NHKLICFA@?$AAH?$AAK?$AAC?$AAU?$AA?$AN?$AA?6?$AA?$HL?$AA?7?$AAS?$AAo?$AAf?$AAt?$AAw?$AAa?$AAr?$AAe?$AA?$AN?$AA?6?$AA?7?$AA?$HL?$AA?$AN?$AA?6?$AA?7?$AA?7?$AAC?$AAl?$AAa?$AAs?$AAs?$AAe?$AAs?$AA?$AA@ 0049b790     hd.obj
 0002:000087d0       ??_C@_1BK@DGLFCBHI@?$AAp?$AAp?$AAs?$AAz?$AAR?$AAe?$AAg?$AA?5?$AA?$CB?$AA?$DN?$AA?5?$AA0?$AA?$AA@ 0049b7d0     hd.obj
 0002:000087ec       ??_C@_1BK@ODFKMBGC@?$AAl?$AAp?$AAs?$AAz?$AAR?$AAe?$AAg?$AA?5?$AA?$CB?$AA?$DN?$AA?5?$AA0?$AA?$AA@ 0049b7ec     hd.obj
 0002:00008808       ??_C@_1O@JFMKDNFA@?$AAp?$AA?5?$AA?$CB?$AA?$DN?$AA?5?$AA0?$AA?$AA@ 0049b808     hd.obj
 0002:00008818       ??_C@_1CK@BCPDHANH@?$AAM?$AAa?$AAp?$AA?5?$AAE?$AAn?$AAt?$AAr?$AAy?$AA?5?$AAn?$AAo?$AAt?$AA?5?$AAf?$AAo?$AAu?$AAn?$AAd?$AA?6?$AA?$AA@ 0049b818     hd.obj
 0002:00008844       ??_C@_1CC@JKOACKEF@?$AAD?$AAe?$AAl?$AAe?$AAt?$AAi?$AAn?$AAg?$AA?5?$AAK?$AAe?$AAy?$AA?5?$AA?$CF?$AAs?$AA?6?$AA?$AA@ 0049b844     hd.obj
 0002:00008868       ??_C@_1EO@BKDAEJNB@?$AAD?$AAe?$AAl?$AAe?$AAt?$AAi?$AAn?$AAg?$AA?5?$AAn?$AAo?$AAn?$AA?9?$AAe?$AAm?$AAp?$AAt?$AAy?$AA?5?$AAs?$AAu?$AAb?$AAk?$AAe?$AAy?$AA?5?$AA?$CF?$AAs?$AA?5?$AAb?$AAy?$AA?5@ 0049b868     hd.obj
 0002:000088b8       ??_C@_1CM@OHCCCDHD@?$AAE?$AAn?$AAd?$AAi?$AAn?$AAg?$AA?5?$AAR?$AAe?$AAc?$AAo?$AAv?$AAe?$AAr?$AAy?$AA?5?$AAM?$AAo?$AAd?$AAe?$AA?6?$AA?$AA@ 0049b8b8     hd.obj
 0002:000088e8       ??_C@_1FI@KFEJHGHP@?$AAI?$AAg?$AAn?$AAo?$AAr?$AAi?$AAn?$AAg?$AA?5?$AAO?$AAp?$AAe?$AAn?$AA?5?$AAk?$AAe?$AAy?$AA?5?$AAo?$AAn?$AA?5?$AA?$CF?$AAs?$AA?5?$AA?3?$AA?5?$AAI?$AAn?$AA?5?$AAR?$AAe?$AAc@ 0049b8e8     hd.obj
 0002:00008940       ??_C@_1BO@PKECKKMP@?$AAO?$AAp?$AAe?$AAn?$AAe?$AAd?$AA?5?$AAK?$AAe?$AAy?$AA?5?$AA?$CF?$AAs?$AA?6?$AA?$AA@ 0049b940     hd.obj
 0002:00008960       ??_C@_1CC@NFFNJDLL@?$AAC?$AAr?$AAe?$AAa?$AAt?$AAi?$AAn?$AAg?$AA?5?$AAk?$AAe?$AAy?$AA?5?$AA?$CF?$AAs?$AA?6?$AA?$AA@ 0049b960     hd.obj
 0002:00008984       ??_C@_1BK@MHPAEFB@?$AAD?$AAe?$AAl?$AAe?$AAt?$AAi?$AAn?$AAg?$AA?5?$AA?$CF?$AAs?$AA?6?$AA?$AA@ 0049b984     hd.obj
 0002:000089a0       ??_C@_1BM@KJDIPNJ@?$AAN?$AAu?$AAm?$AA?5?$AAE?$AAl?$AAs?$AA?5?$AA?$DN?$AA?5?$AA?$CF?$AAd?$AA?6?$AA?$AA@ 0049b9a0     hd.obj
 0002:000089bc       ??_C@_1BI@JPOONHGO@?$AAm?$AA_?$AAh?$AAK?$AAe?$AAy?$AA?5?$AA?$DN?$AA?$DN?$AA?5?$AA0?$AA?$AA@ 0049b9bc     hd.obj
 0002:000089d4       ??_C@_0BA@LILAPHGE@RegDeleteKeyExW?$AA@ 0049b9d4     hd.obj
 0002:000089e4       ??_C@_1BK@BIGILECK@?$AAA?$AAd?$AAv?$AAa?$AAp?$AAi?$AA3?$AA2?$AA?4?$AAd?$AAl?$AAl?$AA?$AA@ 0049b9e4     hd.obj
 0002:00008a00       ??_C@_1BI@KCHMLGAI@?$AAm?$AA_?$AAh?$AAK?$AAe?$AAy?$AA?5?$AA?$CB?$AA?$DN?$AA?5?$AA0?$AA?$AA@ 0049ba00     hd.obj
 0002:00008a18       ??_C@_1CA@JAHJEEHI@?$AAh?$AAK?$AAe?$AAy?$AAP?$AAa?$AAr?$AAe?$AAn?$AAt?$AA?5?$AA?$CB?$AA?$DN?$AA?5?$AA0?$AA?$AA@ 0049ba18     hd.obj
 0002:00008a38       ??_C@_1BG@OMKLFNDM@?$AAl?$AAR?$AAe?$AAs?$AA?5?$AA?$DN?$AA?$DN?$AA?5?$AA0?$AAL?$AA?$AA@ 0049ba38     hd.obj
 0002:00008a50       ??_C@_0EJ@DCOPOHMB@c?3?2program?5files?2microsoft?5visua@ 0049ba50     hd.obj
 0002:00008aa0       ??_C@_1HO@IFGDBDNA@?$AAC?$AAR?$AAe?$AAg?$AAK?$AAe?$AAy?$AA?3?$AA?3?$AAR?$AAe?$AAc?$AAu?$AAr?$AAs?$AAe?$AAD?$AAe?$AAl?$AAe?$AAt?$AAe?$AAK?$AAe?$AAy?$AA?5?$AA?3?$AA?5?$AAF?$AAa?$AAi?$AAl@ 0049baa0     hd.obj
 0002:00008b20       ??_C@_1FK@OIDGAAMP@?$AAB?$AAi?$AAn?$AAa?$AAr?$AAy?$AA?5?$AAD?$AAa?$AAt?$AAa?$AA?5?$AAd?$AAo?$AAe?$AAs?$AA?5?$AAn?$AAo?$AAt?$AA?5?$AAf?$AAa?$AAl?$AAl?$AA?5?$AAo?$AAn?$AA?5?$AAB?$AAY?$AAT@ 0049bb20     hd.obj
 0002:00008b7c       ??_C@_1DA@KALLBDED@?$AAS?$AAe?$AAt?$AAt?$AAi?$AAn?$AAg?$AA?5?$AAV?$AAa?$AAl?$AAu?$AAe?$AA?5?$AA?$CF?$AAd?$AA?5?$AAa?$AAt?$AA?5?$AA?$CF?$AAs?$AA?6?$AA?$AA@ 0049bb7c     hd.obj
 0002:00008bac       ??_C@_1DA@GPDGEFDP@?$AAS?$AAe?$AAt?$AAt?$AAi?$AAn?$AAg?$AA?5?$AAV?$AAa?$AAl?$AAu?$AAe?$AA?5?$AA?$CF?$AAs?$AA?5?$AAa?$AAt?$AA?5?$AA?$CF?$AAs?$AA?6?$AA?$AA@ 0049bbac     hd.obj
 0002:00008bdc       ??_C@_1BA@HANLFFFG@?$AAd?$AAe?$AAf?$AAa?$AAu?$AAl?$AAt?$AA?$AA@ 0049bbdc     hd.obj
 0002:00008bec       ??_C@_1CO@NPPCGFAH@?$AA?$CF?$AAs?$AA?5?$AAT?$AAy?$AAp?$AAe?$AA?5?$AAn?$AAo?$AAt?$AA?5?$AAs?$AAu?$AAp?$AAp?$AAo?$AAr?$AAt?$AAe?$AAd?$AA?6?$AA?$AA@ 0049bbec     hd.obj
 0002:00008c20       ??_C@_1EO@OGKOBPLN@?$AA?$CI?$AAd?$AAw?$AAT?$AAy?$AAp?$AAe?$AA?5?$AA?$DN?$AA?$DN?$AA?5?$AA?$CI?$AA?5?$AA1?$AA?5?$AA?$CJ?$AA?$CJ?$AA?5?$AA?$HM?$AA?$HM?$AA?5?$AA?$CI?$AAd?$AAw?$AAT?$AAy?$AAp?$AAe?$AA?5?$AA?$DN?$AA?$DN?$AA?5@ 0049bc20     hd.obj
 0002:00008c70       ??_C@_1BM@GBBOFEAE@?$AA_?$AA_?$AAa?$AAt?$AAl?$AA_?$AAc?$AAo?$AAn?$AAd?$AAV?$AAa?$AAl?$AA?$AA@ 0049bc70     hd.obj
 0002:00008c90       ??_C@_1FG@GHMNLDOA@?$AAB?$AAo?$AAg?$AAu?$AAs?$AA?5?$AAv?$AAa?$AAl?$AAu?$AAe?$AA?5?$AA?$CF?$AAc?$AA?5?$AAp?$AAa?$AAs?$AAs?$AAe?$AAd?$AA?5?$AAa?$AAs?$AA?5?$AAb?$AAi?$AAn?$AAa?$AAr?$AAy?$AA?5@ 0049bc90     hd.obj
 0002:00008ce8       ??_C@_13COJANIEC@?$AA0?$AA?$AA@ 0049bce8     hd.obj
 0002:00008cec       ??_C@_1CM@LNIALBHN@?$AAS?$AAh?$AAo?$AAu?$AAl?$AAd?$AA?5?$AAn?$AAo?$AAt?$AA?5?$AAb?$AAe?$AA?5?$AAh?$AAe?$AAr?$AAe?$AA?$CB?$AA?$CB?$AA?6?$AA?$AA@ 0049bcec     hd.obj
 0002:00008d18       ??_C@_1HK@DFMOIGDB@?$AAE?$AAR?$AAR?$AAO?$AAR?$AA?5?$AA?3?$AA?5?$AAU?$AAn?$AAa?$AAb?$AAl?$AAe?$AA?5?$AAt?$AAo?$AA?5?$AAi?$AAn?$AAi?$AAt?$AAi?$AAa?$AAl?$AAi?$AAz?$AAe?$AA?5?$AAc?$AAr?$AAi@ 0049bd18     hd.obj
 0002:00008d94       ??_C@_1CC@DNHFMIHP@?$AA_?$AAp?$AAA?$AAt?$AAl?$AAM?$AAo?$AAd?$AAu?$AAl?$AAe?$AA?5?$AA?$DN?$AA?$DN?$AA?5?$AA0?$AA?$AA@ 0049bd94     hd.obj
 0002:00008db8       ??_C@_1M@PPPPCDEP@?$AAA?$AAP?$AAP?$AAI?$AAD?$AA?$AA@ 0049bdb8     hd.obj
 0002:00008dc8       ??_C@_1JK@FIDGGKLC@?$AAc?$AA?3?$AA?2?$AAp?$AAr?$AAo?$AAg?$AAr?$AAa?$AAm?$AA?5?$AAf?$AAi?$AAl?$AAe?$AAs?$AA?2?$AAm?$AAi?$AAc?$AAr?$AAo?$AAs?$AAo?$AAf?$AAt?$AA?5?$AAv?$AAi?$AAs?$AAu?$AAa@ 0049bdc8     hd.obj
 0002:00008e68       ??_C@_1EA@JHMKKLFC@?$AAn?$AAI?$AAn?$AAd?$AAe?$AAx?$AA?5?$AA?$DO?$AA?$DN?$AA?5?$AA0?$AA?5?$AA?$CG?$AA?$CG?$AA?5?$AAn?$AAI?$AAn?$AAd?$AAe?$AAx?$AA?5?$AA?$DM?$AA?5?$AAm?$AA_?$AAn?$AAS?$AAi?$AAz?$AAe?$AA?$AA@ 0049be68     hd.obj
 0002:00008ea8       ??_C@_1BC@EMCLECFJ@?$AAm?$AA_?$AAp?$AA?5?$AA?$DN?$AA?$DN?$AA?5?$AA0?$AA?$AA@ 0049bea8     hd.obj
 0002:00008ec0       ??_C@_1JE@NJKOJMEK@?$AAc?$AA?3?$AA?2?$AAp?$AAr?$AAo?$AAg?$AAr?$AAa?$AAm?$AA?5?$AAf?$AAi?$AAl?$AAe?$AAs?$AA?2?$AAm?$AAi?$AAc?$AAr?$AAo?$AAs?$AAo?$AAf?$AAt?$AA?5?$AAv?$AAi?$AAs?$AAu?$AAa@ 0049bec0     hd.obj
 0002:00008f54       ??_C@_1DI@MFNMACAP@?$AAD?$AAe?$AAl?$AAe?$AAt?$AAe?$AA?5?$AAB?$AAi?$AAt?$AAm?$AAa?$AAp?$AA?5?$AAO?$AAb?$AAj?$AAe?$AAc?$AAt?$AA?5?$AAE?$AAr?$AAr?$AAo?$AAr?$AA?4?$AA?$AA@ 0049bf54     hd2.obj
 0002:00008f8c       ??_C@_1DE@OCEKHDAO@?$AAC?$AAr?$AAe?$AAa?$AAt?$AAe?$AAC?$AAo?$AAm?$AAp?$AAa?$AAt?$AAi?$AAb?$AAl?$AAe?$AAD?$AAC?$AA?5?$AAE?$AAr?$AAr?$AAo?$AAr?$AA?4?$AA?$AA@ 0049bf8c     hd2.obj
 0002:00008fc0       ??_C@_1CK@DIJHGEEK@?$AA?2?$AAA?$AAu?$AAt?$AAo?$AAR?$AAe?$AAs?$AAe?$AAr?$AAv?$AAe?$AAF?$AAi?$AAl?$AAe?$AA?4?$AAa?$AAr?$AAf?$AA?$AA@ 0049bfc0     hd2.obj
 0002:00008fec       ??_C@_0BF@DOMIAOL@Already?5In?5File?5List?$AA@ 0049bfec     hd2.obj
 0002:00009004       ??_C@_0CD@FMACIMD@A?5Error?5Occur?0The?5ARFile?5Size?5Is@ 0049c004     hd2.obj
 0002:00009028       ??_C@_0CB@DFBHNAEG@Create?5AutoReserveFileList?5Error@ 0049c028     hd2.obj
 0002:0000904c       ??_C@_0BN@GBLONNLN@The?5ARF?5File?5Records?5Is?5Zero?$AA@ 0049c04c     hd2.obj
 0002:0000906c       ??_C@_1CE@PHDCJBHB@?$AA?2?$AAH?$AAa?$AAb?$AAi?$AAt?$AAM?$AAe?$AAm?$AAF?$AAi?$AAl?$AAe?$AA?4?$AAh?$AAm?$AAf?$AA?$AA@ 0049c06c     hd2.obj
 0002:00009090       ??_C@_0BP@GMHFNHLC@Not?5Have?5This?5Item?5Between?5Del?$AA@ 0049c090     hd2.obj
 0002:000090b0       ??_C@_0CF@BMIONNAO@Not?5Have?5This?5Item?5Between?5Add?5T@ 0049c0b0     hd2.obj
 0002:000090d8       ??_C@_0CG@CCBLPABC@Not?5Have?5This?5Item?5Between?5IsHav@ 0049c0d8     hd2.obj
 0002:00009100       ??_C@_1CE@LBDOJOCP@?$AAC?$AAu?$AAr?$AAr?$AAe?$AAn?$AAt?$AAL?$AAa?$AAn?$AAg?$AAu?$AAa?$AAg?$AAe?$AAI?$AAD?$AA?$AA@ 0049c100     hd2.obj
 0002:00009124       ??_C@_1M@PBBINKHD@?$AAF?$AAi?$AAr?$AAs?$AAt?$AA?$AA@ 0049c124     hd2.obj
 0002:00009130       ??_C@_1CM@HGKBMAKI@?$AAW?$AAr?$AAi?$AAt?$AAe?$AA?5?$AAL?$AAa?$AAn?$AAg?$AAu?$AAa?$AAg?$AAe?$AA?5?$AAE?$AAr?$AAr?$AAo?$AAr?$AA?4?$AA?$AA@ 0049c130     hd2.obj
 0002:0000915c       ??_C@_1BA@HJOOKMBB@?$AAS?$AAe?$AAt?$AAt?$AAi?$AAn?$AAg?$AA?$AA@ 0049c15c     hd2.obj
 0002:0000916c       ??_C@_1CA@KOOGNCIL@?$AAC?$AAu?$AAr?$AAr?$AAe?$AAn?$AAt?$AAL?$AAa?$AAn?$AAg?$AAu?$AAa?$AAg?$AAe?$AA?$AA@ 0049c16c     hd2.obj
 0002:0000918c       ??_C@_1BA@CLLEDPIF@?$AAE?$AAn?$AAg?$AAl?$AAi?$AAs?$AAh?$AA?$AA@ 0049c18c     hd2.obj
 0002:0000919c       ??_C@_1DE@OLNFGJAA@?$AA?2?$AAL?$AAa?$AAn?$AAg?$AAu?$AAa?$AAg?$AAe?$AA?2?$AAL?$AAa?$AAn?$AAg?$AAS?$AAe?$AAt?$AAt?$AAi?$AAn?$AAg?$AA?4?$AAi?$AAn?$AAi?$AA?$AA@ 0049c19c     hd2.obj
 0002:000091d0       ??_C@_1CA@FKCAOHFD@?$AAL?$AAa?$AAn?$AAg?$AAS?$AAe?$AAt?$AAt?$AAi?$AAn?$AAg?$AA?4?$AAi?$AAn?$AAi?$AA?$AA@ 0049c1d0     hd2.obj
 0002:000091f0       ??_C@_1BG@ECGNGEPP@?$AAL?$AAa?$AAn?$AAg?$AAu?$AAa?$AAg?$AAe?$AAI?$AAD?$AA?$AA@ 0049c1f0     hd2.obj
 0002:00009208       ??_C@_1BG@EOAJDBOL@?$AA?2?$AAL?$AAa?$AAn?$AAg?$AAu?$AAa?$AAg?$AAe?$AA?2?$AA?$AA@ 0049c208     hd2.obj
 0002:00009220       ??_C@_1CA@OFNFFKNB@?$AA?2?$AAL?$AAa?$AAn?$AAg?$AAu?$AAa?$AAg?$AAe?$AA?2?$AA?$CK?$AA?4?$AAi?$AAn?$AAi?$AA?$AA@ 0049c220     hd2.obj
 0002:00009240       ??_C@_1BC@KHBNKMMK@?$AAL?$AAa?$AAn?$AAg?$AAu?$AAa?$AAg?$AAe?$AA?$AA@ 0049c240     hd2.obj
 0002:00009254       ??_C@_1BI@KIDIBDHE@?$AAI?$AAD?$AAD?$AA?$CF?$AAd?$AA_?$AAT?$AAi?$AAt?$AAl?$AAe?$AA?$AA@ 0049c254     hd2.obj
 0002:0000926c       ??_C@_1O@PLHFJNFA@?$AAS?$AAt?$AAr?$AAi?$AAn?$AAg?$AA?$AA@ 0049c26c     hd2.obj
 0002:0000927c       ??_C@_1BI@HOJBDJHM@?$AAI?$AAD?$AAD?$AA1?$AA8?$AA1?$AA_?$AA1?$AA2?$AA2?$AA6?$AA?$AA@ 0049c27c     hd2.obj
 0002:00009294       ??_C@_1BG@CKHDKODA@?$AAI?$AAD?$AAD?$AA1?$AA0?$AA_?$AA1?$AA6?$AA6?$AA4?$AA?$AA@ 0049c294     hd2.obj
 0002:000092ac       ??_C@_1BG@DKEFEEKK@?$AAI?$AAD?$AAD?$AA1?$AA0?$AA_?$AA1?$AA0?$AA0?$AA4?$AA?$AA@ 0049c2ac     hd2.obj
 0002:000092c4       ??_C@_1BC@EPINIHPB@?$AAI?$AAD?$AAD?$AA?$CF?$AAd?$AA_?$AA?$CF?$AAd?$AA?$AA@ 0049c2c4     hd2.obj
 0002:000092d8       ??_C@_1CG@PLEPBHHP@?$AAw?$AAw?$AAw?$AA?4?$AAh?$AAi?$AAd?$AAe?$AAd?$AAr?$AAa?$AAg?$AAo?$AAn?$AA?4?$AAc?$AAo?$AAm?$AA?$AA@ 0049c2d8     hd2.obj
 0002:00009300       ??_C@_1BA@GBHGOCBB@?$AAh?$AAt?$AAt?$AAp?$AA?3?$AA?1?$AA?1?$AA?$AA@ 0049c300     hd2.obj
 0002:00009310       ??_C@_1CI@NNFFOBHK@?$AAI?$AAD?$AAM?$AA_?$AAA?$AAC?$AAQ?$AAU?$AAI?$AAR?$AAE?$AAL?$AAA?$AAN?$AAG?$AAU?$AAA?$AAG?$AAE?$AA?$AA@ 0049c310     hd2.obj
 0002:00009338       ??_C@_1CC@EEDFOGGE@?$AAI?$AAD?$AAM?$AA_?$AAA?$AAU?$AAT?$AAO?$AAH?$AAI?$AAD?$AAE?$AA_?$AAD?$AAE?$AAL?$AA?$AA@ 0049c338     hd2.obj
 0002:0000935c       ??_C@_1CC@CDNBDEK@?$AAI?$AAD?$AAM?$AA_?$AAA?$AAU?$AAT?$AAO?$AAH?$AAI?$AAD?$AAE?$AA_?$AAA?$AAD?$AAD?$AA?$AA@ 0049c35c     hd2.obj
 0002:00009380       ??_C@_1CI@OGFKFALH@?$AAI?$AAD?$AAM?$AA_?$AAP?$AAR?$AAO?$AAC?$AAE?$AAS?$AAS?$AAL?$AAI?$AAS?$AAT?$AA_?$AAE?$AAN?$AAD?$AA?$AA@ 0049c380     hd2.obj
 0002:000093a8       ??_C@_1CK@JDBOKFHH@?$AAI?$AAD?$AAM?$AA_?$AAP?$AAR?$AAO?$AAC?$AAE?$AAS?$AAS?$AAL?$AAI?$AAS?$AAT?$AA_?$AAH?$AAI?$AAD?$AAE?$AA?$AA@ 0049c3a8     hd2.obj
 0002:000093d4       ??_C@_1CG@JHBINCFN@?$AAI?$AAD?$AAM?$AA_?$AAB?$AAK?$AAT?$AAA?$AAB?$AA_?$AAB?$AAK?$AAW?$AAI?$AAZ?$AAA?$AAR?$AAD?$AA?$AA@ 0049c3d4     hd2.obj
 0002:000093fc       ??_C@_1CA@OHJILMEK@?$AAI?$AAD?$AAM?$AA_?$AAB?$AAK?$AAI?$AAT?$AAE?$AAM?$AA_?$AAS?$AAH?$AAO?$AAW?$AA?$AA@ 0049c3fc     hd2.obj
 0002:0000941c       ??_C@_1DC@PJOEPOJO@?$AAI?$AAD?$AAM?$AA_?$AAT?$AAA?$AAB?$AA_?$AAT?$AAR?$AAA?$AAY?$AA_?$AAA?$AAD?$AAD?$AAA?$AAU?$AAT?$AAO?$AAH?$AAI?$AAD?$AAE?$AA?$AA@ 0049c41c     hd2.obj
 0002:00009450       ??_C@_1CE@JGKPGLAH@?$AAI?$AAD?$AAM?$AA_?$AAT?$AAA?$AAB?$AA_?$AAT?$AAR?$AAA?$AAY?$AA_?$AAL?$AAI?$AAS?$AAT?$AA?$AA@ 0049c450     hd2.obj
 0002:00009474       ??_C@_1CA@LOPMDDGI@?$AAI?$AAD?$AAM?$AA_?$AAA?$AAD?$AAD?$AAA?$AAU?$AAT?$AAO?$AAH?$AAI?$AAD?$AAE?$AA?$AA@ 0049c474     hd2.obj
 0002:00009494       ??_C@_1BK@FIIJKJDD@?$AAI?$AAD?$AAM?$AA_?$AAS?$AAE?$AAT?$AAT?$AAO?$AAT?$AAO?$AAP?$AA?$AA@ 0049c494     hd2.obj
 0002:000094b0       ??_C@_1CA@GHNFMBEF@?$AAI?$AAD?$AAM?$AA_?$AAH?$AAE?$AAL?$AAP?$AA_?$AAH?$AAI?$AAD?$AAE?$AAI?$AAP?$AA?$AA@ 0049c4b0     hd2.obj
 0002:000094d0       ??_C@_1BO@BFIPOGC@?$AAI?$AAD?$AAM?$AA_?$AAH?$AAE?$AAL?$AAP?$AA_?$AAC?$AAL?$AAE?$AAA?$AAN?$AA?$AA@ 0049c4d0     hd2.obj
 0002:000094f0       ??_C@_1BO@HDBGGAPL@?$AAI?$AAD?$AAM?$AA_?$AAX?$AAP?$AAD?$AAI?$AAS?$AAG?$AAU?$AAI?$AAS?$AAE?$AA?$AA@ 0049c4f0     hd2.obj
 0002:00009510       ??_C@_1BC@GJOJOBLE@?$AAI?$AAD?$AAM?$AA_?$AAX?$AAP?$AAB?$AAK?$AA?$AA@ 0049c510     hd2.obj
 0002:00009524       ??_C@_1BC@POBODOGP@?$AAI?$AAD?$AAM?$AA_?$AAX?$AAP?$AAQ?$AAH?$AA?$AA@ 0049c524     hd2.obj
 0002:00009538       ??_C@_1BM@CMAGOAEG@?$AAI?$AAD?$AAM?$AA_?$AAB?$AAU?$AAY?$AAO?$AAN?$AAL?$AAI?$AAN?$AAE?$AA?$AA@ 0049c538     hd2.obj
 0002:00009554       ??_C@_1BO@LEMEOAOO@?$AAI?$AAD?$AAM?$AA_?$AAQ?$AAU?$AAI?$AAC?$AAK?$AAS?$AAT?$AAA?$AAR?$AAT?$AA?$AA@ 0049c554     hd2.obj
 0002:00009574       ??_C@_1CG@HNFLNAG@?$AAI?$AAD?$AAM?$AA_?$AAC?$AAH?$AAA?$AAN?$AAG?$AAE?$AAL?$AAA?$AAN?$AAG?$AAU?$AAA?$AAG?$AAE?$AA?$AA@ 0049c574     hd2.obj
 0002:0000959c       ??_C@_1CC@NNMDKKGK@?$AAI?$AAD?$AAM?$AA_?$AAU?$AAN?$AAR?$AAE?$AAG?$AAI?$AAS?$AAT?$AAE?$AAR?$AAH?$AAK?$AA?$AA@ 0049c59c     hd2.obj
 0002:000095c0       ??_C@_1CA@CJEEJPFA@?$AAI?$AAD?$AAM?$AA_?$AAB?$AAK?$AAW?$AAN?$AAD?$AAH?$AAO?$AAT?$AAK?$AAE?$AAY?$AA?$AA@ 0049c5c0     hd2.obj
 0002:000095e0       ??_C@_1BC@NGEOCCLN@?$AAI?$AAD?$AAM?$AA_?$AAT?$AAO?$AAB?$AAK?$AA?$AA@ 0049c5e0     hd2.obj
 0002:000095f4       ??_C@_1BK@FNDBHOBB@?$AAI?$AAD?$AAM?$AA_?$AAR?$AAE?$AAM?$AAE?$AAM?$AAB?$AAE?$AAR?$AA?$AA@ 0049c5f4     hd2.obj
 0002:00009610       ??_C@_1CK@JKOLJDGE@?$AAI?$AAD?$AAM?$AA_?$AAR?$AAE?$AAS?$AAT?$AAO?$AAR?$AAE?$AAI?$AAC?$AAO?$AAN?$AAT?$AAI?$AAT?$AAL?$AAE?$AA?$AA@ 0049c610     hd2.obj
 0002:0000963c       ??_C@_1CA@FMEPHMKM@?$AAI?$AAD?$AAM?$AA_?$AAC?$AAH?$AAA?$AAN?$AAG?$AAE?$AAT?$AAI?$AAT?$AAL?$AAE?$AA?$AA@ 0049c63c     hd2.obj
 0002:0000965c       ??_C@_1BO@KCKGFAFI@?$AAI?$AAD?$AAM?$AA_?$AAC?$AAH?$AAA?$AAN?$AAG?$AAE?$AAI?$AAC?$AAO?$AAN?$AA?$AA@ 0049c65c     hd2.obj
 0002:0000967c       ??_C@_1DC@MGOOFGJJ@?$AAI?$AAD?$AAM?$AA_?$AAT?$AAR?$AAA?$AAN?$AAS?$AAP?$AAA?$AAR?$AAE?$AAN?$AAT?$AA_?$AAM?$AAO?$AAS?$AAT?$AAH?$AAI?$AAG?$AAH?$AA?$AA@ 0049c67c     hd2.obj
 0002:000096b0       ??_C@_1DG@NKPAGDHD@?$AAI?$AAD?$AAM?$AA_?$AAT?$AAR?$AAA?$AAN?$AAS?$AAP?$AAA?$AAR?$AAE?$AAN?$AAT?$AA_?$AAM?$AAI?$AAD?$AAD?$AAL?$AAE?$AAH?$AAI?$AAG?$AAH?$AA?$AA@ 0049c6b0     hd2.obj
 0002:000096e8       ??_C@_1CO@POJJCBOH@?$AAI?$AAD?$AAM?$AA_?$AAT?$AAR?$AAA?$AAN?$AAS?$AAP?$AAA?$AAR?$AAE?$AAN?$AAT?$AA_?$AAM?$AAI?$AAD?$AAD?$AAL?$AAE?$AA?$AA@ 0049c6e8     hd2.obj
 0002:00009718       ??_C@_1DE@FOBEIFHK@?$AAI?$AAD?$AAM?$AA_?$AAT?$AAR?$AAA?$AAN?$AAS?$AAP?$AAA?$AAR?$AAE?$AAN?$AAT?$AA_?$AAM?$AAI?$AAD?$AAD?$AAL?$AAE?$AAL?$AAO?$AAW?$AA?$AA@ 0049c718     hd2.obj
 0002:0000974c       ??_C@_1CI@MBOANNL@?$AAI?$AAD?$AAM?$AA_?$AAT?$AAR?$AAA?$AAN?$AAS?$AAP?$AAA?$AAR?$AAE?$AAN?$AAT?$AA_?$AAL?$AAO?$AAW?$AA?$AA@ 0049c74c     hd2.obj
 0002:00009774       ??_C@_1DA@HMNGFLDB@?$AAI?$AAD?$AAM?$AA_?$AAT?$AAR?$AAA?$AAN?$AAS?$AAP?$AAA?$AAR?$AAE?$AAN?$AAT?$AA_?$AAR?$AAE?$AAS?$AAT?$AAO?$AAR?$AAE?$AA?$AA@ 0049c774     hd2.obj
 0002:000097a4       ??_C@_1CA@GOFNIICF@?$AAI?$AAD?$AAM?$AA_?$AAS?$AAE?$AAT?$AAW?$AAN?$AAD?$AAA?$AAL?$AAP?$AAH?$AAA?$AA?$AA@ 0049c7a4     hd2.obj
 0002:000097c4       ??_C@_1BK@EGAJKKNI@?$AAI?$AAD?$AAM?$AA_?$AAP?$AAR?$AAO?$AAP?$AAE?$AAR?$AAT?$AAY?$AA?$AA@ 0049c7c4     hd2.obj
 0002:000097e0       ??_C@_1BI@PCFHKBIP@?$AAI?$AAD?$AAM?$AA_?$AAH?$AAI?$AAD?$AAE?$AAS?$AAE?$AAL?$AA?$AA@ 0049c7e0     hd2.obj
 0002:000097f8       ??_C@_1BO@CPAGDDBH@?$AAI?$AAD?$AAM?$AA_?$AAR?$AAE?$AAS?$AAE?$AAR?$AAV?$AAE?$AAS?$AAE?$AAL?$AA?$AA@ 0049c7f8     hd2.obj
 0002:00009818       ??_C@_1CI@MCLIHNOB@?$AAI?$AAD?$AAM?$AA_?$AAE?$AAX?$AAP?$AAA?$AAN?$AAD?$AAI?$AAN?$AAF?$AAO?$AAP?$AAA?$AAN?$AAE?$AAL?$AA?$AA@ 0049c818     hd2.obj
 0002:00009840       ??_C@_1CG@KGAINCJB@?$AAI?$AAD?$AAM?$AA_?$AAN?$AAE?$AAW?$AAC?$AAO?$AAM?$AAM?$AAE?$AAR?$AAM?$AAO?$AAD?$AAE?$AAL?$AA?$AA@ 0049c840     hd2.obj
 0002:00009868       ??_C@_1CE@HOELAFFA@?$AAI?$AAD?$AAM?$AA_?$AAH?$AAI?$AAD?$AAE?$AAH?$AAD?$AAP?$AAR?$AAO?$AAC?$AAE?$AAS?$AAS?$AA?$AA@ 0049c868     hd2.obj
 0002:0000988c       ??_C@_1BE@PMALBAIL@?$AAI?$AAD?$AAM?$AA_?$AAO?$AAN?$AAT?$AAO?$AAP?$AA?$AA@ 0049c88c     hd2.obj
 0002:000098a0       ??_C@_1BO@GPCOOPBH@?$AAA?$AAl?$AAw?$AAa?$AAy?$AAs?$AA?5?$AAO?$AAn?$AA?5?$AAT?$AAo?$AA?$CG?$AAp?$AA?$AA@ 0049c8a0     hd2.obj
 0002:000098c0       ??_C@_1BM@ONEMNGJB@?$AAI?$AAD?$AAM?$AA_?$AAM?$AAA?$AAI?$AAN?$AA_?$AAH?$AAE?$AAL?$AAP?$AA?$AA@ 0049c8c0     hd2.obj
 0002:000098dc       ??_C@_1M@HCEJMBLO@?$AA?$CG?$AAH?$AAe?$AAl?$AAp?$AA?$AA@ 0049c8dc     hd2.obj
 0002:000098e8       ??_C@_1BM@NNEFDBLG@?$AAI?$AAD?$AAM?$AA_?$AAM?$AAA?$AAI?$AAN?$AA_?$AAT?$AAO?$AAO?$AAL?$AA?$AA@ 0049c8e8     hd2.obj
 0002:00009904       ??_C@_1M@ECEACGJJ@?$AA?$CG?$AAT?$AAo?$AAo?$AAl?$AA?$AA@ 0049c904     hd2.obj
 0002:00009910       ??_C@_1CI@GLHFEENA@?$AAI?$AAD?$AAM?$AA_?$AAM?$AAA?$AAI?$AAN?$AA_?$AAB?$AAA?$AAC?$AAK?$AAG?$AAR?$AAO?$AAU?$AAN?$AAD?$AA?$AA@ 0049c910     hd2.obj
 0002:00009938       ??_C@_1CE@DPKFCLNO@?$AAI?$AAD?$AAM?$AA_?$AAM?$AAA?$AAI?$AAN?$AA_?$AAD?$AAI?$AAS?$AAG?$AAU?$AAI?$AAS?$AAE?$AA?$AA@ 0049c938     hd2.obj
 0002:0000995c       ??_C@_1BE@KPKEBDJI@?$AA?$CG?$AAD?$AAi?$AAs?$AAg?$AAu?$AAi?$AAs?$AAe?$AA?$AA@ 0049c95c     hd2.obj
 0002:00009970       ??_C@_1BK@DINONPGK@?$AAI?$AAD?$AAM?$AA_?$AAM?$AAA?$AAI?$AAN?$AA_?$AAJ?$AAO?$AAB?$AA?$AA@ 0049c970     hd2.obj
 0002:0000998c       ??_C@_19IOOGLIDM@?$AA?$CG?$AAJ?$AAo?$AAb?$AA?$AA@ 0049c98c     hd2.obj
 0002:00009998       ??_C@_1BM@MDONFEMA@?$AAI?$AAD?$AAM?$AA_?$AAM?$AAA?$AAI?$AAN?$AA_?$AAF?$AAI?$AAL?$AAE?$AA?$AA@ 0049c998     hd2.obj
 0002:000099b4       ??_C@_1M@FMOIEDOP@?$AA?$CG?$AAF?$AAi?$AAl?$AAe?$AA?$AA@ 0049c9b4     hd2.obj
 0002:000099c0       ??_C@_1CE@BBOAOHL@?$AAI?$AAD?$AAM?$AA_?$AAV?$AAI?$AAD?$AAE?$AAO?$AAT?$AAU?$AAR?$AAO?$AAR?$AAI?$AAA?$AAL?$AA?$AA@ 0049c9c0     hd2.obj
 0002:000099e4       ??_C@_1BO@PIIDCBFO@?$AAI?$AAD?$AAM?$AA_?$AAU?$AAS?$AAE?$AAR?$AAM?$AAA?$AAN?$AAU?$AAA?$AAL?$AA?$AA@ 0049c9e4     hd2.obj
 0002:00009a04       ??_C@_1BG@JBBDAMDJ@?$AAI?$AAD?$AAM?$AA_?$AAU?$AAP?$AAD?$AAA?$AAT?$AAE?$AA?$AA@ 0049ca04     hd2.obj
 0002:00009a1c       ??_C@_1BC@IEDJHIJH@?$AAI?$AAD?$AAM?$AA_?$AAB?$AAL?$AAO?$AAG?$AA?$AA@ 0049ca1c     hd2.obj
 0002:00009a30       ??_C@_1BI@ILHBLNHK@?$AAI?$AAD?$AAM?$AA_?$AAS?$AAU?$AAG?$AAG?$AAE?$AAS?$AAT?$AA?$AA@ 0049ca30     hd2.obj
 0002:00009a48       ??_C@_1BK@JLPGAPM@?$AAI?$AAD?$AAM?$AA_?$AAR?$AAE?$AAG?$AAI?$AAS?$AAT?$AAE?$AAR?$AA?$AA@ 0049ca48     hd2.obj
 0002:00009a64       ??_C@_1BE@DPILIMM@?$AAI?$AAD?$AAM?$AA_?$AAA?$AAB?$AAO?$AAU?$AAT?$AA?$AA@ 0049ca64     hd2.obj
 0002:00009a78       ??_C@_1BG@PBGGLNHJ@?$AAI?$AAD?$AAM?$AA_?$AAS?$AAP?$AAE?$AAC?$AAB?$AAK?$AA?$AA@ 0049ca78     hd2.obj
 0002:00009a90       ??_C@_1BG@GPMNAFMK@?$AAI?$AAD?$AAM?$AA_?$AAO?$AAP?$AAT?$AAI?$AAO?$AAN?$AA?$AA@ 0049ca90     hd2.obj
 0002:00009aa8       ??_C@_1BI@JFJPIAMK@?$AAI?$AAD?$AAM?$AA_?$AAH?$AAI?$AAD?$AAE?$AAT?$AAI?$AAP?$AA?$AA@ 0049caa8     hd2.obj
 0002:00009ac0       ??_C@_1DO@LHNKGBMO@?$AA?$CG?$AAG?$AAe?$AAt?$AA?5?$AAM?$AAo?$AAr?$AAe?$AA?5?$AAL?$AAa?$AAn?$AAg?$AAu?$AAa?$AAg?$AAe?$AA?5?$AAp?$AAa?$AAc?$AAk?$AA?5?$AAn?$AAo?$AAw?$AA?4?$AA?4?$AA?4?$AA?$AA@ 0049cac0     hd2.obj
 0002:00009b00       ??_C@_1CK@MDICNEBF@?$AAI?$AAD?$AAS?$AA_?$AAM?$AAA?$AAI?$AAN?$AAD?$AAI?$AAA?$AAL?$AAO?$AAG?$AA_?$AAT?$AAI?$AAT?$AAL?$AAE?$AA?$AA@ 0049cb00     hd2.obj
 0002:00009b2c       ??_C@_19KBJOGOJG@?$AA?$CF?$AA0?$AA4?$AAX?$AA?$AA@ 0049cb2c     hd2.obj
 0002:00009b38       ??_C@_1EA@HKPOEOGK@?$AAI?$AAD?$AAS?$AA_?$AAM?$AAE?$AAS?$AAS?$AAA?$AAG?$AAE?$AAB?$AAO?$AAX?$AA_?$AAU?$AAP?$AAD?$AAA?$AAT?$AAE?$AAL?$AAA?$AAN?$AAG?$AAS?$AAU?$AAC?$AAE?$AAS?$AAS?$AA?$AA@ 0049cb38     hd2.obj
 0002:00009b78       ??_C@_1EC@FDEEGPHL@?$AAU?$AAp?$AAd?$AAa?$AAt?$AAe?$AA?5?$AAL?$AAa?$AAn?$AAg?$AAu?$AAa?$AAg?$AAe?$AA?5?$AAP?$AAa?$AAc?$AAk?$AA?5?$AAS?$AAu?$AAc?$AAc?$AAe?$AAs?$AAs?$AAf?$AAu?$AAl?$AA?4@ 0049cb78     hd2.obj
 0002:00009bbc       ??_C@_1BM@MOCBJLHE@?$AA?1?$AAe?$AAn?$AA?1?$AAL?$AAa?$AAn?$AAg?$AAu?$AAa?$AAg?$AAe?$AA?1?$AA?$AA@ 0049cbbc     hd2.obj
 0002:00009bd8       ??_C@_0O@DDMNGJOE@?1en?1Language?1?$AA@ 0049cbd8     hd2.obj
 0002:00009be8       ??_C@_1BA@LIACFDLB@?$AAV?$AAe?$AAr?$AAs?$AAi?$AAo?$AAn?$AA?$AA@ 0049cbe8     hd2.obj
 0002:00009bf8       ??_C@_1BK@DJOMLEEB@?$AAL?$AAa?$AAn?$AAg?$AAu?$AAa?$AAg?$AAe?$AAF?$AAi?$AAl?$AAe?$AA?$AA@ 0049cbf8     hd2.obj
 0002:00009c14       ??_C@_1BG@JJOIEBBH@?$AAF?$AAi?$AAl?$AAe?$AAN?$AAu?$AAm?$AAb?$AAe?$AAr?$AA?$AA@ 0049cc14     hd2.obj
 0002:00009c2c       ??_C@_1CC@KDEEBKBI@?$AAL?$AAa?$AAn?$AAg?$AAu?$AAa?$AAg?$AAe?$AAL?$AAi?$AAs?$AAt?$AA?4?$AAi?$AAn?$AAi?$AA?$AA@ 0049cc2c     hd2.obj
 0002:00009c50       ??_C@_0BO@HNPNIMKI@?1en?1Language?1LanguageList?4ini?$AA@ 0049cc50     hd2.obj
 0002:00009c70       ??_C@_1CK@NEMENCCB@?$AAg?$AA_?$AAh?$AAU?$AAp?$AAd?$AAa?$AAt?$AAe?$AAH?$AAa?$AAn?$AAd?$AAl?$AAe?$AA?5?$AAE?$AAN?$AAD?$AA?4?$AA?$AA@ 0049cc70     hd2.obj
 0002:00009c9c       ??_C@_1CA@ICLGCIGG@?$AAD?$AAo?$AAw?$AAn?$AAl?$AAo?$AAa?$AAd?$AAs?$AA?2?$AAt?$AAe?$AAm?$AAp?$AA?2?$AA?$AA@ 0049cc9c     hd2.obj
 0002:00009cbc       ??_C@_1CG@LGLOCLMB@?$AA?1?$AAe?$AAn?$AA?1?$AAH?$AAi?$AAd?$AAe?$AAD?$AAr?$AAa?$AAg?$AAo?$AAn?$AA?4?$AAr?$AAa?$AAr?$AA?$AA@ 0049ccbc     hd2.obj
 0002:00009ce4       ??_C@_1BO@EJPEIPLE@?$AAh?$AAi?$AAd?$AAe?$AAd?$AAr?$AAa?$AAg?$AAo?$AAn?$AA?4?$AAr?$AAa?$AAr?$AA?$AA@ 0049cce4     hd2.obj
 0002:00009d04       ??_C@_1CO@OIFCICPM@?$AAg?$AA_?$AAh?$AAU?$AAp?$AAd?$AAa?$AAt?$AAe?$AAH?$AAa?$AAn?$AAd?$AAl?$AAe?$AA?5?$AAB?$AAE?$AAG?$AAI?$AAN?$AA?4?$AA?$AA@ 0049cd04     hd2.obj
 0002:00009d34       ??_C@_15IOMEGHLK@?$AA?9?$AAN?$AA?$AA@ 0049cd34     hd2.obj
 0002:00009d3c       ??_C@_15JNMLHCE@?$AA?9?$AAU?$AA?$AA@ 0049cd3c     hd2.obj
 0002:00009d44       ??_C@_1BM@CBGCNIDG@?$AA?2?$AAH?$AAD?$AAU?$AAp?$AAd?$AAa?$AAt?$AAe?$AA?4?$AAe?$AAx?$AAe?$AA?$AA@ 0049cd44     hd2.obj
 0002:00009d60       ??_C@_1DO@DHJCCBHM@?$AA?2?$AAD?$AAo?$AAw?$AAn?$AAl?$AAo?$AAa?$AAd?$AAs?$AA?2?$AAt?$AAe?$AAm?$AAp?$AA?2?$AAH?$AAi?$AAd?$AAe?$AAD?$AAr?$AAa?$AAg?$AAo?$AAn?$AA?4?$AAe?$AAx?$AAe?$AA?$AA@ 0049cd60     hd2.obj
 0002:00009da0       ??_C@_1DE@OEICFLFE@?$AA?2?$AAD?$AAo?$AAw?$AAn?$AAl?$AAo?$AAa?$AAd?$AAs?$AA?2?$AAH?$AAi?$AAd?$AAe?$AAD?$AAr?$AAa?$AAg?$AAo?$AAn?$AA?4?$AAr?$AAa?$AAr?$AA?$AA@ 0049cda0     hd2.obj
 0002:00009dd4       ??_C@_1BK@KIJOGDNJ@?$AAH?$AAD?$AAU?$AAP?$AAD?$AAA?$AAT?$AAE?$AA?4?$AAE?$AAX?$AAE?$AA?$AA@ 0049cdd4     hd2.obj
 0002:00009df0       ??_C@_1CC@BMPIHOBP@?$AA?2?$AAD?$AAo?$AAw?$AAn?$AAl?$AAo?$AAa?$AAd?$AAs?$AA?2?$AAT?$AAe?$AAm?$AAp?$AA?2?$AA?$AA@ 0049cdf0     hd2.obj
 0002:00009e14       ??_C@_0BL@PIGMJEK@GetLayeredWindowAttributes?$AA@ 0049ce14     hd2.obj
 0002:00009e30       ??_C@_1BG@OILDLIOJ@?$AAu?$AAs?$AAe?$AAr?$AA3?$AA2?$AA?4?$AAd?$AAl?$AAl?$AA?$AA@ 0049ce30     hd2.obj
 0002:00009e48       ??_C@_1DO@EGKBDDKK@?$AAI?$AAD?$AAS?$AA_?$AAM?$AAE?$AAS?$AAS?$AAA?$AAG?$AAE?$AAB?$AAO?$AAX?$AA_?$AAR?$AAE?$AAG?$AAB?$AAK?$AAW?$AAN?$AAD?$AAF?$AAA?$AAI?$AAL?$AAU?$AAR?$AAE?$AA?$AA@ 0049ce48     hd2.obj
 0002:00009e88       ??_C@_1IE@IPGEHDFF@?$AAR?$AAe?$AAg?$AAi?$AAs?$AAt?$AAe?$AAr?$AA?5?$AAC?$AAu?$AAs?$AAt?$AAo?$AAm?$AA?5?$AAB?$AAa?$AAc?$AAk?$AAg?$AAr?$AAo?$AAu?$AAn?$AAd?$AAi?$AAn?$AAg?$AA?5?$AAH?$AAo@ 0049ce88     hd2.obj
 0002:00009f0c       ??_C@_1BE@HPKFOEPN@?$AAR?$AAE?$AAG?$AAH?$AAO?$AAT?$AAK?$AAE?$AAY?$AA?$AA@ 0049cf0c     hd2.obj
 0002:00009f20       ??_C@_1DK@LEIDOGNG@?$AAI?$AAD?$AAS?$AA_?$AAC?$AAH?$AAA?$AAN?$AAG?$AAE?$AAI?$AAC?$AAO?$AAN?$AA_?$AAP?$AAL?$AAE?$AAA?$AAS?$AAE?$AAS?$AAE?$AAL?$AAI?$AAC?$AAO?$AAN?$AA?$AA@ 0049cf20     hd2.obj
 0002:00009f5c       ??_C@_1DO@ILLDAENM@?$AAP?$AAl?$AAe?$AAa?$AAs?$AAe?$AA?5?$AAS?$AAe?$AAl?$AAe?$AAc?$AAt?$AAe?$AA?5?$AAI?$AAc?$AAo?$AAn?$AA?5?$AAT?$AAo?$AA?5?$AAC?$AAh?$AAa?$AAn?$AAg?$AAe?$AAd?$AA?$AA@ 0049cf5c     hd2.obj
 0002:00009fa0       ??_C@_1FO@DNLFPHAA@?$AAI?$AAc?$AAo?$AAn?$AA?5?$AAF?$AAi?$AAl?$AAe?$AAs?$AA?5?$AA?$CI?$AA?$CK?$AA?4?$AAI?$AAC?$AAO?$AA?$CJ?$AA?$AA?$AA?$CK?$AA?4?$AAI?$AAC?$AAO?$AA?$AA?$AAA?$AAl?$AAl?$AA?5?$AAF?$AAi?$AAl@ 0049cfa0     hd2.obj
 0002:0000a000       ??_C@_1DC@KGGMPNHP@?$AAI?$AAD?$AAS?$AA_?$AAC?$AAH?$AAA?$AAN?$AAG?$AAE?$AAI?$AAC?$AAO?$AAN?$AA_?$AAF?$AAI?$AAL?$AAE?$AAT?$AAY?$AAP?$AAE?$AA4?$AA?$AA@ 0049d000     hd2.obj
 0002:0000a034       ??_C@_1DC@DLLLMFMG@?$AAI?$AAD?$AAS?$AA_?$AAC?$AAH?$AAA?$AAN?$AAG?$AAE?$AAI?$AAC?$AAO?$AAN?$AA_?$AAF?$AAI?$AAL?$AAE?$AAT?$AAY?$AAP?$AAE?$AA3?$AA?$AA@ 0049d034     hd2.obj
 0002:0000a068       ??_C@_1BM@IPAMINLH@?$AAA?$AAl?$AAl?$AAF?$AAi?$AAl?$AAe?$AA?5?$AA?$CI?$AA?$CK?$AA?4?$AA?$CK?$AA?$CJ?$AA?$AA@ 0049d068     hd2.obj
 0002:0000a084       ??_C@_1DC@IDAHKCKD@?$AAI?$AAD?$AAS?$AA_?$AAC?$AAH?$AAA?$AAN?$AAG?$AAE?$AAI?$AAC?$AAO?$AAN?$AA_?$AAF?$AAI?$AAL?$AAE?$AAT?$AAY?$AAP?$AAE?$AA2?$AA?$AA@ 0049d084     hd2.obj
 0002:0000a0b8       ??_C@_1M@FLNBNAAF@?$AA?$CK?$AA?4?$AAI?$AAC?$AAO?$AA?$AA@ 0049d0b8     hd2.obj
 0002:0000a0c4       ??_C@_1DC@JBLCANEN@?$AAI?$AAD?$AAS?$AA_?$AAC?$AAH?$AAA?$AAN?$AAG?$AAE?$AAI?$AAC?$AAO?$AAN?$AA_?$AAF?$AAI?$AAL?$AAE?$AAT?$AAY?$AAP?$AAE?$AA1?$AA?$AA@ 0049d0c4     hd2.obj
 0002:0000a0f8       ??_C@_1CG@NLDFGMHL@?$AAI?$AAc?$AAo?$AAn?$AA?5?$AAF?$AAi?$AAl?$AAe?$AAs?$AA?5?$AA?$CI?$AA?$CK?$AA?4?$AAI?$AAC?$AAO?$AA?$CJ?$AA?$AA@ 0049d0f8     hd2.obj
 0002:0000a120       ??_C@_1M@KDMLJIJA@?$AA?2?$AAI?$AAc?$AAo?$AAn?$AA?$AA@ 0049d120     hd2.obj
 0002:0000a12c       ??_C@_19DBIIENIF@?$AA?4?$AAI?$AAC?$AAO?$AA?$AA@ 0049d12c     hd2.obj
 0002:0000a138       ??_C@_1DE@FJOKFFDM@?$AAI?$AAD?$AAS?$AA_?$AAM?$AAE?$AAS?$AAS?$AAA?$AAG?$AAE?$AAB?$AAO?$AAX?$AA_?$AAE?$AAX?$AAP?$AAL?$AAC?$AAA?$AAN?$AAN?$AAO?$AAT?$AA?$AA@ 0049d138     hd2.obj
 0002:0000a170       ??_C@_1EE@IJPOBPFP@?$AAE?$AAx?$AAp?$AAl?$AAo?$AAr?$AAe?$AAr?$AA?4?$AAe?$AAx?$AAe?$AA?5?$AAC?$AAa?$AAn?$AA?5?$AAN?$AAO?$AAT?$AA?5?$AAC?$AAh?$AAa?$AAn?$AAg?$AAe?$AA?5?$AAI?$AAc?$AAo?$AAn@ 0049d170     hd2.obj
 0002:0000a1b4       ??_C@_1CK@GPLGMKLJ@?$AAI?$AAD?$AAS?$AA_?$AAT?$AAI?$AAT?$AAL?$AAE?$AA_?$AAW?$AAI?$AAN?$AAD?$AAO?$AAW?$AAH?$AAE?$AAL?$AAP?$AA?$AA@ 0049d1b4     hd2.obj
 0002:0000a1e0       ??_C@_1BK@DJILGBCC@?$AAW?$AAi?$AAn?$AAd?$AAo?$AAw?$AAs?$AA?5?$AAH?$AAe?$AAl?$AAp?$AA?$AA@ 0049d1e0     hd2.obj
 0002:0000a1fc       ??_C@_1CM@BOJPBAOG@?$AAI?$AAD?$AAS?$AA_?$AAT?$AAI?$AAT?$AAL?$AAE?$AA_?$AAA?$AAD?$AAO?$AAB?$AAE?$AAR?$AAE?$AAA?$AAD?$AAE?$AAR?$AA?$AA@ 0049d1fc     hd2.obj
 0002:0000a228       ??_C@_1BK@CIEIMECP@?$AAA?$AAd?$AAo?$AAb?$AAe?$AA?5?$AAR?$AAe?$AAa?$AAd?$AAe?$AAr?$AA?$AA@ 0049d228     hd2.obj
 0002:0000a244       ??_C@_1CI@GMCMFIJN@?$AAI?$AAD?$AAS?$AA_?$AAT?$AAI?$AAT?$AAL?$AAE?$AA_?$AAU?$AAL?$AAT?$AAR?$AAA?$AAE?$AAD?$AAI?$AAT?$AA?$AA@ 0049d244     hd2.obj
 0002:0000a26c       ??_C@_1CK@PHDMLKHI@?$AAU?$AAl?$AAt?$AAr?$AAa?$AAE?$AAd?$AAi?$AAt?$AA?9?$AA3?$AA2?$AA?5?$AA?9?$AA?5?$AA?$FL?$HP?$BG?$IP?$JB?$AA1?$AA?$FN?$AA?$AA@ 0049d26c     hd2.obj
 0002:0000a298       ??_C@_1BM@LCFMPKIH@?$AAI?$AAD?$AAS?$AA_?$AAT?$AAI?$AAT?$AAL?$AAE?$AA_?$AAC?$AAA?$AAL?$AA?$AA@ 0049d298     hd2.obj
 0002:0000a2b4       ??_C@_17GOOJADEH@?$IL?$KB?$HL?$JHVh?$AA?$AA@ 0049d2b4     hd2.obj
 0002:0000a2bc       ??_C@_1CI@MFCFECKF@?$AAI?$AAD?$AAS?$AA_?$AAT?$AAI?$AAT?$AAL?$AAE?$AA_?$AAP?$AAH?$AAO?$AAT?$AAO?$AAS?$AAH?$AAO?$AAP?$AA?$AA@ 0049d2bc     hd2.obj
 0002:0000a2e4       ??_C@_1CA@GJKCMIJA@?$AAA?$AAd?$AAo?$AAb?$AAe?$AA?5?$AAP?$AAh?$AAo?$AAt?$AAo?$AAs?$AAh?$AAo?$AAp?$AA?$AA@ 0049d2e4     hd2.obj
 0002:0000a304       ??_C@_1CE@JMLDNBPL@?$AAI?$AAD?$AAS?$AA_?$AAT?$AAI?$AAT?$AAL?$AAE?$AA_?$AAO?$AAU?$AAT?$AAL?$AAO?$AAO?$AAK?$AA?$AA@ 0049d304     hd2.obj
 0002:0000a328       ??_C@_1DA@CNBBPPBE@e6N?v?$HL?$LB?$AA?5?$AA?9?$AA?5?$AAM?$AAi?$AAc?$AAr?$AAo?$AAs?$AAo?$AAf?$AAt?$AA?5?$AAO?$AAu?$AAt?$AAl?$AAo?$AAo?$AAk?$AA?$AA@ 0049d328     hd2.obj
 0002:0000a358       ??_C@_1BK@MLIMJJLJ@?$AAI?$AAD?$AAS?$AA_?$AAT?$AAI?$AAT?$AAL?$AAE?$AA_?$AAD?$AAW?$AA?$AA@ 0049d358     hd2.obj
 0002:0000a378       ??_C@_1GM@OOLKIFBG@?$AAM?$AAa?$AAc?$AAr?$AAo?$AAm?$AAe?$AAd?$AAi?$AAa?$AA?5?$AAD?$AAr?$AAe?$AAa?$AAm?$AAw?$AAe?$AAa?$AAv?$AAe?$AAr?$AA?5?$AAM?$AAX?$AA?5?$AA2?$AA0?$AA0?$AA4?$AA?5?$AA?9@ 0049d378     hd2.obj
 0002:0000a3e4       ??_C@_1BO@DPMPDIPD@?$AAI?$AAD?$AAS?$AA_?$AAT?$AAI?$AAT?$AAL?$AAE?$AA_?$AAW?$AAO?$AAR?$AAD?$AA?$AA@ 0049d3e4     hd2.obj
 0002:0000a404       ??_C@_1CM@PMMIBEDA@e?$IHhc?$AA?5?$AA1?$AA?5?$AA?9?$AA?5?$AAM?$AAi?$AAc?$AAr?$AAo?$AAs?$AAo?$AAf?$AAt?$AA?5?$AAW?$AAo?$AAr?$AAd?$AA?$AA@ 0049d404     hd2.obj
 0002:0000a430       ??_C@_1CA@JIENNJEI@?$AAI?$AAD?$AAS?$AA_?$AAT?$AAI?$AAT?$AAL?$AAE?$AA_?$AAE?$AAX?$AAC?$AAE?$AAL?$AA?$AA@ 0049d430     hd2.obj
 0002:0000a450       ??_C@_1DA@DHFPLCJB@?$AAM?$AAi?$AAc?$AAr?$AAo?$AAs?$AAo?$AAf?$AAt?$AA?5?$AAE?$AAx?$AAc?$AAe?$AAl?$AA?5?$AA?9?$AA?5?$AAB?$AAo?$AAo?$AAk?$AA1?$AA?$AA@ 0049d450     hd2.obj
 0002:0000a480       ??_C@_1CE@LNLJNPPG@?$AAI?$AAD?$AAS?$AA_?$AAT?$AAI?$AAT?$AAL?$AAE?$AA_?$AAN?$AAO?$AAT?$AAE?$AAP?$AAA?$AAD?$AA?$AA@ 0049d480     hd2.obj
 0002:0000a4a4       ??_C@_1BE@PFCPDIMG@e?$OAh?$AH?$JI?$JI?$AA?5?$AA?9?$AA?5?$IL?$LAN?$ILg?0?$AA?$AA@ 0049d4a4     hd2.obj
 0002:0000a4b8       ??_C@_1CK@GCFFKPIH@?$AAI?$AAD?$AAS?$AA_?$AAT?$AAI?$AAT?$AAL?$AAE?$AA_?$AAM?$AAY?$AAC?$AAO?$AAM?$AAP?$AAU?$AAT?$AAE?$AAR?$AA?$AA@ 0049d4b8     hd2.obj
 0002:0000a4e4       ??_C@_1BI@EGMFPPFD@?$AAM?$AAy?$AA?5?$AAC?$AAo?$AAm?$AAp?$AAu?$AAt?$AAe?$AAr?$AA?$AA@ 0049d4e4     hd2.obj
 0002:0000a4fc       ??_C@_1CK@PHKFOBHG@?$AAI?$AAD?$AAS?$AA_?$AAT?$AAI?$AAT?$AAL?$AAE?$AA_?$AAM?$AAA?$AAC?$AAR?$AAO?$AAF?$AAL?$AAA?$AAS?$AAH?$AA?$AA@ 0049d4fc     hd2.obj
 0002:0000a528       ??_C@_1GA@OIOHBFCD@?$AAM?$AAa?$AAc?$AAr?$AAo?$AAm?$AAe?$AAd?$AAi?$AAa?$AA?5?$AAF?$AAl?$AAa?$AAs?$AAh?$AA?5?$AAM?$AAX?$AA?5?$AAP?$AAr?$AAo?$AAf?$AAe?$AAs?$AAs?$AAi?$AAo?$AAn?$AAa?$AAl@ 0049d528     hd2.obj
 0002:0000a588       ??_C@_15KNBIKKIN@?$AA?$CF?$AAd?$AA?$AA@ 0049d588     hd2.obj
 0002:0000a590       ??_C@_1DG@GKGLCJKN@?$AAI?$AAD?$AAS?$AA_?$AAP?$AAR?$AAO?$AAP?$AAE?$AAR?$AAT?$AAY?$AAL?$AAI?$AAS?$AAT?$AA_?$AAW?$AAN?$AAD?$AAH?$AAA?$AAN?$AAD?$AAL?$AAE?$AA?$AA@ 0049d590     hd2.obj
 0002:0000a5c8       ??_C@_1BM@BFGDAHBG@?$AAW?$AAi?$AAn?$AAd?$AAo?$AAw?$AA?5?$AAH?$AAa?$AAn?$AAd?$AAl?$AAe?$AA?$AA@ 0049d5c8     hd2.obj
 0002:0000a5e4       ??_C@_1DE@FJHNHMOH@?$AAI?$AAD?$AAS?$AA_?$AAP?$AAR?$AAO?$AAP?$AAE?$AAR?$AAT?$AAY?$AAL?$AAI?$AAS?$AAT?$AA_?$AAW?$AAN?$AAD?$AAT?$AAI?$AAT?$AAL?$AAE?$AA?$AA@ 0049d5e4     hd2.obj
 0002:0000a618       ??_C@_1CG@DAFGCNCJ@?$AAI?$AAD?$AAS?$AA_?$AAP?$AAR?$AAO?$AAP?$AAE?$AAR?$AAT?$AAY?$AA_?$AAT?$AAI?$AAT?$AAL?$AAE?$AA?$AA@ 0049d618     hd2.obj
 0002:0000a640       ??_C@_1BC@PFDAMJID@?$AAP?$AAr?$AAo?$AAp?$AAe?$AAr?$AAt?$AAy?$AA?$AA@ 0049d640     hd2.obj
 0002:0000a654       ??_C@_1DA@KOPEAIA@?$AAI?$AAD?$AAS?$AA_?$AAP?$AAR?$AAO?$AAP?$AAE?$AAR?$AAT?$AAY?$AAO?$AAT?$AAH?$AAE?$AAR?$AA_?$AAT?$AAI?$AAT?$AAL?$AAE?$AA?$AA@ 0049d654     hd2.obj
 0002:0000a684       ??_C@_1CE@EMPJLPMI@?$AAI?$AAD?$AAS?$AA_?$AAG?$AAE?$AAN?$AAE?$AAR?$AAA?$AAL?$AA_?$AAT?$AAI?$AAT?$AAL?$AAE?$AA?$AA@ 0049d684     hd2.obj
 0002:0000a6a8       ??_C@_1BA@GCDNCJOK@?$AAG?$AAe?$AAn?$AAe?$AAr?$AAa?$AAl?$AA?$AA@ 0049d6a8     hd2.obj
 0002:0000a6b8       ??_C@_19NGFMKOON@?$AA?$CF?$AA0?$AA8?$AAX?$AA?$AA@ 0049d6b8     hd2.obj
 0002:0000a6c4       ??_C@_1CG@LKOECDEO@?$AAI?$AAD?$AAS?$AA_?$AAA?$AAU?$AAT?$AAO?$AAR?$AAE?$AAS?$AAE?$AAR?$AAV?$AAE?$AA_?$AAN?$AAO?$AA?$AA@ 0049d6c4     hd2.obj
 0002:0000a6ec       ??_C@_15BICKNCBF@?$AAN?$AAo?$AA?$AA@ 0049d6ec     hd2.obj
 0002:0000a6f4       ??_C@_1CI@MCMABCAF@?$AAI?$AAD?$AAS?$AA_?$AAA?$AAU?$AAT?$AAO?$AAR?$AAE?$AAS?$AAE?$AAR?$AAV?$AAE?$AA_?$AAY?$AAE?$AAS?$AA?$AA@ 0049d6f4     hd2.obj
 0002:0000a71c       ??_C@_17PBAHFJOA@?$AAY?$AAe?$AAs?$AA?$AA@ 0049d71c     hd2.obj
 0002:0000a724       ??_C@_1BK@HCCANLCL@?$AA?2?$AAW?$AAn?$AAd?$AAI?$AAn?$AAf?$AAo?$AA?4?$AAw?$AAi?$AAf?$AA?$AA@ 0049d724     hd2.obj
 0002:0000a740       ??_C@_1BK@BCHLBEB@?$AAP?$AAr?$AAo?$AAc?$AAe?$AAs?$AAs?$AA?5?$AAN?$AAa?$AAm?$AAe?$AA?$AA@ 0049d740     hd2.obj
 0002:0000a75c       ??_C@_1DA@GDAICBA@?$AAI?$AAD?$AAS?$AA_?$AAP?$AAR?$AAO?$AAC?$AAE?$AAS?$AAS?$AAL?$AAI?$AAS?$AAT?$AAV?$AAI?$AAE?$AAW?$AA_?$AAP?$AAI?$AAD?$AA?$AA@ 0049d75c     hd2.obj
 0002:0000a78c       ??_C@_17PDNKEHJO@?$AAP?$AAI?$AAD?$AA?$AA@ 0049d78c     hd2.obj
 0002:0000a794       ??_C@_1DM@KHALAPNN@?$AAI?$AAD?$AAS?$AA_?$AAP?$AAR?$AAO?$AAC?$AAE?$AAS?$AAS?$AAL?$AAI?$AAS?$AAT?$AAV?$AAI?$AAE?$AAW?$AA_?$AAI?$AAM?$AAA?$AAG?$AAE?$AAN?$AAA?$AAM?$AAE?$AA?$AA@ 0049d794     hd2.obj
 0002:0000a7d0       ??_C@_1BG@FCGIGENE@?$AAI?$AAm?$AAa?$AAg?$AAe?$AA?5?$AAN?$AAa?$AAm?$AAe?$AA?$AA@ 0049d7d0     hd2.obj
 0002:0000a7e8       ??_C@_1DG@FDGAPFJI@?$AAI?$AAD?$AAS?$AA_?$AAL?$AAI?$AAS?$AAT?$AAV?$AAI?$AAE?$AAW?$AAA?$AAH?$AA_?$AAP?$AAR?$AAO?$AAC?$AAE?$AAS?$AAS?$AAN?$AAA?$AAM?$AAE?$AA?$AA@ 0049d7e8     hd2.obj
 0002:0000a820       ??_C@_1CE@LOFDDDPA@?$AAI?$AAD?$AAS?$AA_?$AAL?$AAI?$AAS?$AAT?$AAV?$AAI?$AAE?$AAW?$AAA?$AAH?$AA_?$AAI?$AAD?$AA?$AA@ 0049d820     hd2.obj
 0002:0000a844       ??_C@_15HCBMMKJC@?$AAI?$AAD?$AA?$AA@ 0049d844     hd2.obj
 0002:0000a84c       ??_C@_1CM@NAOCNAAE@?$AAI?$AAD?$AAS?$AA_?$AAM?$AAE?$AAS?$AAS?$AAA?$AAG?$AAE?$AAB?$AAO?$AAX?$AA_?$AAI?$AAF?$AAE?$AAX?$AAI?$AAT?$AA?$AA@ 0049d84c     hd2.obj
 0002:0000a878       ??_C@_1M@DOCLCAKM@?$AAE?$AAx?$AAi?$AAt?$AA?$DP?$AA?$AA@ 0049d878     hd2.obj
 0002:0000a884       ??_C@_19KEIJKAKM@?$AAt?$AAe?$AAm?$AAp?$AA?$AA@ 0049d884     hd2.obj
 0002:0000a890       ??_C@_1CE@PGPINPAD@?$AAt?$AAe?$AAm?$AAp?$AA?2?$AAH?$AAD?$AAU?$AAp?$AAd?$AAa?$AAt?$AAe?$AA?4?$AAe?$AAx?$AAe?$AA?$AA@ 0049d890     hd2.obj
 0002:0000a8b4       ??_C@_1BO@MOOAKLHN@?$AAM?$AAS?$AAT?$AAa?$AAs?$AAk?$AAS?$AAw?$AAW?$AAC?$AAl?$AAa?$AAs?$AAs?$AA?$AA@ 0049d8b4     hd2.obj
 0002:0000a8d4       ??_C@_1BM@IAMNGHGL@?$AAR?$AAe?$AAB?$AAa?$AAr?$AAW?$AAi?$AAn?$AAd?$AAo?$AAw?$AA3?$AA2?$AA?$AA@ 0049d8d4     hd2.obj
 0002:0000a8f0       ??_C@_1CK@ONMGLGDO@?$AAI?$AAD?$AAC?$AA_?$AAT?$AAA?$AAB?$AAN?$AAA?$AAM?$AAE?$AA_?$AAA?$AAU?$AAT?$AAO?$AAH?$AAI?$AAD?$AAE?$AA?$AA@ 0049d8f0     hd2.obj
 0002:0000a91c       ??_C@_1BE@JJFMKDIN@?$AAA?$AAu?$AAt?$AAo?$AA?5?$AAH?$AAi?$AAd?$AAe?$AA?$AA@ 0049d91c     hd2.obj
 0002:0000a930       ??_C@_1DC@JKJHHHDH@?$AAI?$AAD?$AAC?$AA_?$AAT?$AAA?$AAB?$AAN?$AAA?$AAM?$AAE?$AA_?$AAC?$AAL?$AAE?$AAA?$AAN?$AAP?$AAR?$AAI?$AAV?$AAA?$AAC?$AAY?$AA?$AA@ 0049d930     hd2.obj
 0002:0000a964       ??_C@_1BM@CDBEKDLF@?$AAC?$AAl?$AAe?$AAa?$AAn?$AA?5?$AAP?$AAr?$AAi?$AAv?$AAa?$AAc?$AAy?$AA?$AA@ 0049d964     hd2.obj
 0002:0000a980       ??_C@_1CG@JOPHPINC@?$AAI?$AAD?$AAC?$AA_?$AAT?$AAA?$AAB?$AAN?$AAA?$AAM?$AAE?$AA_?$AAB?$AAK?$AAL?$AAI?$AAS?$AAT?$AA?$AA@ 0049d980     hd2.obj
 0002:0000a9a8       ??_C@_1DE@LABGJFKE@?$AAB?$AAa?$AAc?$AAk?$AAg?$AAr?$AAo?$AAu?$AAn?$AAd?$AAe?$AAd?$AA?5?$AAP?$AAr?$AAo?$AAg?$AAr?$AAa?$AAm?$AA?5?$AAL?$AAi?$AAs?$AAt?$AA?$AA@ 0049d9a8     hd2.obj
 0002:0000a9dc       ??_C@_1CK@BIJGGJJN@?$AAI?$AAD?$AAC?$AA_?$AAT?$AAA?$AAB?$AAN?$AAA?$AAM?$AAE?$AA_?$AAT?$AAR?$AAA?$AAY?$AAI?$AAC?$AAO?$AAN?$AA?$AA@ 0049d9dc     hd2.obj
 0002:0000aa08       ??_C@_1BO@PPHJCOKA@?$AAT?$AAr?$AAa?$AAy?$AA?5?$AAI?$AAc?$AAo?$AAn?$AA?5?$AAL?$AAi?$AAs?$AAt?$AA?$AA@ 0049da08     hd2.obj
 0002:0000aa28       ??_C@_1CI@EMIBPGLF@?$AAI?$AAD?$AAC?$AA_?$AAT?$AAA?$AAB?$AAN?$AAA?$AAM?$AAE?$AA_?$AAW?$AAN?$AAD?$AAL?$AAI?$AAS?$AAT?$AA?$AA@ 0049da28     hd2.obj
 0002:0000aa50       ??_C@_1BI@EFOMBC@?$AAW?$AAi?$AAn?$AAd?$AAo?$AAw?$AA?5?$AAL?$AAi?$AAs?$AAt?$AA?$AA@ 0049da50     hd2.obj
 0002:0000aa68       ??_C@_1CA@CPDGMPMF@?$AAS?$AAy?$AAs?$AAT?$AAa?$AAb?$AAC?$AAo?$AAn?$AAt?$AAr?$AAo?$AAl?$AA3?$AA2?$AA?$AA@ 0049da68     hd2.obj
 0002:0000aa88       ??_C@_19FBAPOIIF@?$AAT?$AAA?$AAB?$AA2?$AA?$AA@ 0049da88     hd2.obj
 0002:0000aa94       ??_C@_1BC@IANHPBKB@?$AAA?$AAU?$AAT?$AAO?$AAH?$AAI?$AAD?$AAE?$AA?$AA@ 0049da94     hd2.obj
 0002:0000aaa8       ??_C@_1O@ELLBDENI@?$AAS?$AAT?$AAA?$AAT?$AAI?$AAC?$AA?$AA@ 0049daa8     hd2.obj
 0002:0000aab8       ??_C@_1CA@JJKLLLDC@?$AAT?$AAH?$AAI?$AAS?$AA?5?$AAI?$AAS?$AA?5?$AAA?$AA?5?$AAT?$AAE?$AAS?$AAT?$AA?4?$AA?$AA@ 0049dab8     hd2.obj
 0002:0000aad8       ??_C@_1CM@BHNONOGA@?$AAI?$AAD?$AAS?$AA_?$AAU?$AAN?$AAI?$AAO?$AAN?$AAP?$AAA?$AAG?$AAE?$AA_?$AAD?$AAE?$AAF?$AAA?$AAU?$AAL?$AAT?$AA?$AA@ 0049dad8     hd2.obj
 0002:0000ab04       ??_C@_1BK@FJEHEMDL@?$AAg?$AAi?$AAf?$AA_?$AAt?$AAr?$AAa?$AAy?$AA?4?$AAg?$AAi?$AAf?$AA?$AA@ 0049db04     hd2.obj
 0002:0000ab20       ??_C@_1EI@GJLCBJCM@?$AAI?$AAD?$AAS?$AA_?$AAM?$AAE?$AAS?$AAS?$AAA?$AAG?$AAE?$AAB?$AAO?$AAX?$AA_?$AAP?$AAL?$AAE?$AAA?$AAS?$AAE?$AAS?$AAE?$AAL?$AAE?$AAC?$AAT?$AAH?$AAI?$AAD?$AAE?$AAI@ 0049db20     hd2.obj
 0002:0000ab68       ??_C@_1DK@MIMJGLCL@?$AAP?$AAL?$AAE?$AAA?$AAS?$AAE?$AA?5?$AAS?$AAE?$AAL?$AAE?$AAC?$AAT?$AA?5?$AAT?$AAO?$AA?5?$AAH?$AAI?$AAD?$AAE?$AA?5?$AAI?$AAW?$AAN?$AAD?$AAO?$AAW?$AA?$AA@ 0049db68     hd2.obj
 0002:0000aba4       ??_C@_1BO@PJBOJGBN@?$AAI?$AAD?$AAS?$AA_?$AAT?$AAI?$AAP?$AA_?$AAS?$AAW?$AAI?$AAT?$AAC?$AAH?$AA?$AA@ 0049dba4     hd2.obj
 0002:0000abc4       ??_C@_1DM@IJMOEAD@?$AAS?$AAw?$AAi?$AAt?$AAc?$AAh?$AA?5?$AAW?$AAh?$AAa?$AAt?$AA?5?$AAW?$AAi?$AAn?$AAd?$AAo?$AAw?$AA?5?$AAW?$AAi?$AAl?$AAl?$AA?5?$AAH?$AAi?$AAd?$AAe?$AA?4?$AA?$AA@ 0049dbc4     hd2.obj
 0002:0000ac00       ??_C@_1GG@NOJCKPGH@?$AAC?$AAl?$AAi?$AAc?$AAk?$AA?5?$AAm?$AAo?$AAu?$AAs?$AAe?$AA?5?$AAr?$AAi?$AAg?$AAh?$AAt?$AA?5?$AAb?$AAu?$AAt?$AAt?$AAo?$AAn?$AA?5?$AAt?$AAo?$AA?5?$AAa?$AAc?$AAc?$AAe@ 0049dc00     hd2.obj
 0002:0000ac68       ??_C@_1DC@FEBKLHDO@?$AAI?$AAn?$AAt?$AAe?$AAr?$AAn?$AAe?$AAt?$AA?5?$AAE?$AAx?$AAp?$AAl?$AAo?$AAr?$AAe?$AAr?$AA_?$AAS?$AAe?$AAr?$AAv?$AAe?$AAr?$AA?$AA@ 0049dc68     hd2.obj
 0002:0000ac9c       ??_C@_1CK@JKBKIDOL@?$AAS?$AAh?$AAe?$AAl?$AAl?$AA?5?$AAD?$AAo?$AAc?$AAO?$AAb?$AAj?$AAe?$AAc?$AAt?$AA?5?$AAV?$AAi?$AAe?$AAw?$AA?$AA@ 0049dc9c     hd2.obj
 0002:0000acc8       ??_C@_1CA@BBEJIFBH@?$AAS?$AAh?$AAe?$AAl?$AAl?$AA?5?$AAE?$AAm?$AAb?$AAe?$AAd?$AAd?$AAi?$AAn?$AAg?$AA?$AA@ 0049dcc8     hd2.obj
 0002:0000ace8       ??_C@_1CC@IOJIEPHC@?$AAI?$AAD?$AAS?$AA_?$AAT?$AAI?$AAP?$AA_?$AAT?$AAR?$AAA?$AAY?$AAL?$AAI?$AAS?$AAT?$AA?$AA@ 0049dce8     hd2.obj
 0002:0000ad0c       ??_C@_1DG@NEBCMDPN@?$AAI?$AAD?$AAS?$AA_?$AAT?$AAR?$AAA?$AAY?$AAL?$AAI?$AAS?$AAT?$AA_?$AAP?$AAL?$AAE?$AAA?$AAS?$AAE?$AAS?$AAE?$AAL?$AAI?$AAT?$AAE?$AAM?$AA?$AA@ 0049dd0c     hd2.obj
 0002:0000ad44       ??_C@_1BM@BBHLAGGB@?$AAP?$AAL?$AAE?$AAA?$AAS?$AAE?$AAS?$AAE?$AAL?$AAI?$AAT?$AAE?$AAM?$AA?$AA@ 0049dd44     hd2.obj
 0002:0000ad60       ??_C@_1DM@JJIEGHHE@?$AAI?$AAD?$AAS?$AA_?$AAH?$AAI?$AAD?$AAE?$AAP?$AAR?$AAO?$AAC?$AAE?$AAS?$AAS?$AA_?$AAP?$AAL?$AAE?$AAA?$AAS?$AAE?$AAS?$AAE?$AAL?$AAI?$AAT?$AAE?$AAM?$AA?$AA@ 0049dd60     hd2.obj
 0002:0000ad9c       ??_C@_1CI@EAIBAHBH@?$AAI?$AAD?$AAS?$AA_?$AAA?$AAD?$AAS?$AAL?$AAI?$AAN?$AAK?$AA_?$AAD?$AAE?$AAF?$AAA?$AAU?$AAL?$AAT?$AA?$AA@ 0049dd9c     hd2.obj
 0002:0000adc4       ??_C@_1CI@EDKOBIPH@?$AAI?$AAD?$AAS?$AA_?$AAA?$AAD?$AAS?$AAT?$AAE?$AAX?$AAT?$AA_?$AAD?$AAE?$AAF?$AAA?$AAU?$AAL?$AAT?$AA?$AA@ 0049ddc4     hd2.obj
 0002:0000adec       ??_C@_1CA@LPJFFNHI@?$JG?$JA?$IO?$KLN?$BD?$FL?$LG?$FO?$HPTJ?$IATv?$NP?$PP?$AM?$IL?$KJO?$BJO4f?t_?3?$PP?$AB?$AA?$AA@ 0049ddec     hd2.obj
 0002:0000ae0c       ??_C@_1DC@JOBEAKPC@?$AAI?$AAD?$AAS?$AA_?$AAA?$AAU?$AAT?$AAO?$AAH?$AAI?$AAD?$AAE?$AA_?$AAD?$AAA?$AAI?$AAL?$AAO?$AAG?$AAT?$AAI?$AAT?$AAL?$AAE?$AA?$AA@ 0049de0c     hd2.obj
 0002:0000ae40       ??_C@_1FA@MMDDPLLA@?$AAP?$AAl?$AAe?$AAa?$AAs?$AAe?$AA?5?$AAS?$AAe?$AAl?$AAe?$AAc?$AAt?$AA?5?$AAA?$AAu?$AAt?$AAo?$AA?5?$AAH?$AAi?$AAd?$AAe?$AA?5?$AAE?$AAx?$AAe?$AAc?$AAu?$AAt?$AAa?$AAb@ 0049de40     hd2.obj
 0002:0000ae90       ??_C@_1EO@IAKGCGJG@?$AAP?$AAl?$AAe?$AAa?$AAs?$AAe?$AA?5?$AAS?$AAe?$AAl?$AAe?$AAc?$AAt?$AA?5?$AAA?$AAu?$AAt?$AAo?$AAH?$AAi?$AAd?$AAe?$AA?5?$AAE?$AAx?$AAe?$AAc?$AAu?$AAt?$AAa?$AAb?$AAl@ 0049de90     hd2.obj
 0002:0000aee0       ??_C@_1DG@FPOHJHEF@?$AAI?$AAD?$AAS?$AA_?$AAA?$AAU?$AAT?$AAO?$AAH?$AAI?$AAD?$AAE?$AA_?$AAP?$AAL?$AAE?$AAA?$AAS?$AAE?$AAS?$AAE?$AAL?$AAI?$AAT?$AAE?$AAM?$AA?$AA@ 0049dee0     hd2.obj
 0002:0000af18       __real@4000000000000000    0049df18     hd2.obj
 0002:0000af20       ??_C@_1CM@IAFLHPJI@?$AAI?$AAD?$AAS?$AA_?$AAS?$AAT?$AAA?$AAT?$AAU?$AAS?$AAB?$AAA?$AAR?$AA_?$AAW?$AAE?$AAL?$AAC?$AAO?$AAM?$AAE?$AA?$AA@ 0049df20     hd2.obj
 0002:0000af4c       ??_C@_1DG@GBOMCBHP@?$AAW?$AAe?$AAl?$AAc?$AAo?$AAm?$AAe?$AA?5?$AAt?$AAo?$AA?5?$AAu?$AAs?$AAe?$AA?5?$AAH?$AAi?$AAd?$AAe?$AAD?$AAr?$AAa?$AAg?$AAo?$AAn?$AA?$CB?$AA?$AA@ 0049df4c     hd2.obj
 0002:0000af84       ??_C@_1CG@JPMAJDKP@?$AAm?$AAs?$AAc?$AAt?$AAl?$AAs?$AA_?$AAs?$AAt?$AAa?$AAt?$AAu?$AAs?$AAb?$AAa?$AAr?$AA3?$AA2?$AA?$AA@ 0049df84     hd2.obj
 0002:0000afac       ??_C@_1BO@BICJIEIC@?$AA?2?$AAh?$AAd?$AA_?$AAs?$AAy?$AAs?$AAl?$AAo?$AAg?$AA?4?$AAa?$AAr?$AAf?$AA?$AA@ 0049dfac     hd2.obj
 0002:0000afcc       ??_C@_01LOCGONAA@?$AA?$AA@ 0049dfcc     hd2.obj
 0002:0000afd0       ??_C@_1BO@GPFKIDCM@?$AAI?$AAD?$AAS?$AA_?$AAD?$AAB?$AAL?$AAI?$AAN?$AAK?$AA_?$AAW?$AAN?$AAD?$AA?$AA@ 0049dfd0     hd2.obj
 0002:0000aff0       ??_C@_1CE@CMCOOJCC@?$AAI?$AAD?$AAS?$AA_?$AAD?$AAB?$AAL?$AAI?$AAN?$AAK?$AA_?$AAS?$AAT?$AAA?$AAT?$AAU?$AAS?$AA?$AA@ 0049dff0     hd2.obj
 0002:0000b014       ??_C@_1CO@ILBKFIGI@?$AA?1?$AAc?$AAn?$AA?1?$AAu?$AAn?$AAi?$AAo?$AAn?$AA?1?$AAw?$AAe?$AAb?$AAs?$AAt?$AAa?$AAt?$AAu?$AAs?$AA?4?$AAd?$AAb?$AA?$AA@ 0049e014     hd2.obj
 0002:0000b044       ??_C@_09JAMONPMJ@wndads?4db?$AA@ 0049e044     hd2.obj
 0002:0000b050       ??_C@_1EE@BBMFLDOC@?$AAl?$AAi?$AAs?$AAt?$AA?5?$AAe?$AAr?$AAa?$AAs?$AAe?$AA?5?$AAi?$AAt?$AAe?$AAr?$AAa?$AAt?$AAo?$AAr?$AA?5?$AAo?$AAu?$AAt?$AAs?$AAi?$AAd?$AAe?$AA?5?$AAr?$AAa?$AAn?$AAg@ 0049e050     hd2.obj
 0002:0000b094       ??_C@_1CK@POGJDOKA@?$AA?$CI?$AA?$CC?$AA_?$AAP?$AAo?$AAs?$AA?5?$AA?$DM?$AA?5?$AAs?$AAi?$AAz?$AAe?$AA?$CI?$AA?$CJ?$AA?$CC?$AA?0?$AA?5?$AA0?$AA?$CJ?$AA?$AA@ 0049e094     hd2.obj
 0002:0000b0c0       ??_C@_1KG@HOFGBKEE@?$AAs?$AAt?$AAd?$AA?3?$AA?3?$AAv?$AAe?$AAc?$AAt?$AAo?$AAr?$AA?$DM?$AAs?$AAt?$AAr?$AAu?$AAc?$AAt?$AA?5?$AAs?$AAG?$AAi?$AAf?$AAU?$AAr?$AAl?$AA?5?$AA?$CK?$AA?0?$AAc?$AAl?$AAa@ 0049e0c0     hd2.obj
 0002:0000b168       ??_C@_1DM@LHGCHCBA@?$AAv?$AAe?$AAc?$AAt?$AAo?$AAr?$AA?5?$AAs?$AAu?$AAb?$AAs?$AAc?$AAr?$AAi?$AAp?$AAt?$AA?5?$AAo?$AAu?$AAt?$AA?5?$AAo?$AAf?$AA?5?$AAr?$AAa?$AAn?$AAg?$AAe?$AA?$AA@ 0049e168     hd2.obj
 0002:0000b1a8       ??_C@_1HO@CONDIOEO@?$AAc?$AA?3?$AA?2?$AAp?$AAr?$AAo?$AAg?$AAr?$AAa?$AAm?$AA?5?$AAf?$AAi?$AAl?$AAe?$AAs?$AA?2?$AAm?$AAi?$AAc?$AAr?$AAo?$AAs?$AAo?$AAf?$AAt?$AA?5?$AAv?$AAi?$AAs?$AAu?$AAa@ 0049e1a8     hd2.obj
 0002:0000b228       ??_C@_1EG@BPNHNPIG@?$AAl?$AAi?$AAs?$AAt?$AA?5?$AAi?$AAn?$AAs?$AAe?$AAr?$AAt?$AA?5?$AAi?$AAt?$AAe?$AAr?$AAa?$AAt?$AAo?$AAr?$AA?5?$AAo?$AAu?$AAt?$AAs?$AAi?$AAd?$AAe?$AA?5?$AAr?$AAa?$AAn@ 0049e228     hd2.obj
 0002:0000b270       ??_C@_1NE@GENAIHDN@?$AAs?$AAt?$AAd?$AA?3?$AA?3?$AAl?$AAi?$AAs?$AAt?$AA?$DM?$AAs?$AAt?$AAr?$AAu?$AAc?$AAt?$AA?5?$AAs?$AAI?$AAc?$AAo?$AAn?$AAT?$AAi?$AAt?$AAl?$AAe?$AA?5?$AA?$CK?$AA?0?$AAc?$AAl@ 0049e270     hd2.obj
 0002:0000b348       ??_C@_1NA@NHMGJKJB@?$AAs?$AAt?$AAd?$AA?3?$AA?3?$AAl?$AAi?$AAs?$AAt?$AA?$DM?$AAs?$AAt?$AAr?$AAu?$AAc?$AAt?$AA?5?$AAs?$AAT?$AAi?$AAt?$AAl?$AAe?$AAW?$AAn?$AAd?$AA?5?$AA?$CK?$AA?0?$AAc?$AAl?$AAa@ 0049e348     hd2.obj
 0002:0000b418       ??_C@_1OE@LGJCJDDM@?$AAs?$AAt?$AAd?$AA?3?$AA?3?$AAl?$AAi?$AAs?$AAt?$AA?$DM?$AAs?$AAt?$AAr?$AAu?$AAc?$AAt?$AA?5?$AAN?$AAe?$AAw?$AAP?$AAr?$AAo?$AAc?$AAe?$AAs?$AAs?$AAI?$AAn?$AAf?$AAo?$AA?5@ 0049e418     hd2.obj
 0002:0000b500       ??_C@_1NM@GCIOCMCN@?$AAs?$AAt?$AAd?$AA?3?$AA?3?$AAl?$AAi?$AAs?$AAt?$AA?$DM?$AAs?$AAt?$AAr?$AAu?$AAc?$AAt?$AA?5?$AAA?$AAu?$AAt?$AAo?$AAH?$AAi?$AAd?$AAe?$AAI?$AAt?$AAe?$AAm?$AA?5?$AA?$CK?$AA?0@ 0049e500     hd2.obj
 0002:0000b5dc       ??_C@_0BB@MOGOBHAF@list?$DMT?$DO?5too?5long?$AA@ 0049e5dc     hd2.obj
 0002:0000b5f4       ??_7length_error@std@@6B@  0049e5f4     hd2.obj
 0002:0000b600       ??_7logic_error@std@@6B@   0049e600     hd2.obj
 0002:0000b608       ??_C@_1NG@KFFLMBHH@?$AAs?$AAt?$AAd?$AA?3?$AA?3?$AAl?$AAi?$AAs?$AAt?$AA?$DM?$AAs?$AAt?$AAr?$AAu?$AAc?$AAt?$AA?5?$AAs?$AAI?$AAc?$AAo?$AAn?$AAT?$AAi?$AAt?$AAl?$AAe?$AA?5?$AA?$CK?$AA?0?$AAc?$AAl@ 0049e608     hd2.obj
 0002:0000b6e0       ??_C@_1MO@NGGFFKHA@?$AAs?$AAt?$AAd?$AA?3?$AA?3?$AAl?$AAi?$AAs?$AAt?$AA?$DM?$AAs?$AAt?$AAr?$AAu?$AAc?$AAt?$AA?5?$AAs?$AAI?$AAc?$AAo?$AAn?$AAT?$AAi?$AAt?$AAl?$AAe?$AA?5?$AA?$CK?$AA?0?$AAc?$AAl@ 0049e6e0     hd2.obj
 0002:0000b7b0       ??_C@_1NC@MEOPONFN@?$AAs?$AAt?$AAd?$AA?3?$AA?3?$AAl?$AAi?$AAs?$AAt?$AA?$DM?$AAs?$AAt?$AAr?$AAu?$AAc?$AAt?$AA?5?$AAs?$AAT?$AAi?$AAt?$AAl?$AAe?$AAW?$AAn?$AAd?$AA?5?$AA?$CK?$AA?0?$AAc?$AAl?$AAa@ 0049e7b0     hd2.obj
 0002:0000b888       ??_C@_1MK@CEFCEFCD@?$AAs?$AAt?$AAd?$AA?3?$AA?3?$AAl?$AAi?$AAs?$AAt?$AA?$DM?$AAs?$AAt?$AAr?$AAu?$AAc?$AAt?$AA?5?$AAs?$AAT?$AAi?$AAt?$AAl?$AAe?$AAW?$AAn?$AAd?$AA?5?$AA?$CK?$AA?0?$AAc?$AAl?$AAa@ 0049e888     hd2.obj
 0002:0000b958       ??_C@_1OG@KGJKPGAJ@?$AAs?$AAt?$AAd?$AA?3?$AA?3?$AAl?$AAi?$AAs?$AAt?$AA?$DM?$AAs?$AAt?$AAr?$AAu?$AAc?$AAt?$AA?5?$AAN?$AAe?$AAw?$AAP?$AAr?$AAo?$AAc?$AAe?$AAs?$AAs?$AAI?$AAn?$AAf?$AAo?$AA?5@ 0049e958     hd2.obj
 0002:0000ba40       ??_C@_1NO@CKJGAGFA@?$AAs?$AAt?$AAd?$AA?3?$AA?3?$AAl?$AAi?$AAs?$AAt?$AA?$DM?$AAs?$AAt?$AAr?$AAu?$AAc?$AAt?$AA?5?$AAN?$AAe?$AAw?$AAP?$AAr?$AAo?$AAc?$AAe?$AAs?$AAs?$AAI?$AAn?$AAf?$AAo?$AA?5@ 0049ea40     hd2.obj
 0002:0000bb20       ??_C@_1NO@KOJNKPBI@?$AAs?$AAt?$AAd?$AA?3?$AA?3?$AAl?$AAi?$AAs?$AAt?$AA?$DM?$AAs?$AAt?$AAr?$AAu?$AAc?$AAt?$AA?5?$AAA?$AAu?$AAt?$AAo?$AAH?$AAi?$AAd?$AAe?$AAI?$AAt?$AAe?$AAm?$AA?5?$AA?$CK?$AA?0@ 0049eb20     hd2.obj
 0002:0000bc00       ??_C@_1NG@OBHGPKBH@?$AAs?$AAt?$AAd?$AA?3?$AA?3?$AAl?$AAi?$AAs?$AAt?$AA?$DM?$AAs?$AAt?$AAr?$AAu?$AAc?$AAt?$AA?5?$AAA?$AAu?$AAt?$AAo?$AAH?$AAi?$AAd?$AAe?$AAI?$AAt?$AAe?$AAm?$AA?5?$AA?$CK?$AA?0@ 0049ec00     hd2.obj
 0002:0000bcdc       ??_7bad_alloc@std@@6B@     0049ecdc     hd2.obj
 0002:0000bce4       ??_C@_1BG@HHKOCEFI@?$AAi?$AAt?$AAu?$AAn?$AAe?$AAs?$AA?4?$AAe?$AAx?$AAe?$AA?$AA@ 0049ece4     hd3.obj
 0002:0000bcfc       ??_C@_1BK@OGGAHCJ@?$AAI?$AAD?$AAS?$AA_?$AAG?$AAI?$AAF?$AA_?$AAL?$AAI?$AAN?$AAK?$AA?$AA@ 0049ecfc     hd3.obj
 0002:0000bd18       ??_C@_1CM@ICPGPJJK@?$AA?1?$AAc?$AAn?$AA?1?$AAg?$AAi?$AAf?$AA?1?$AAc?$AAn?$AA?1?$AAg?$AAi?$AAf?$AAl?$AAi?$AAn?$AAk?$AA?4?$AAd?$AAb?$AA?$AA@ 0049ed18     hd3.obj
 0002:0000bd44       ??_C@_1BI@EAKFMONH@?$AAI?$AAD?$AAS?$AA_?$AAG?$AAI?$AAF?$AA_?$AAA?$AAL?$AAL?$AA?$AA@ 0049ed44     hd3.obj
 0002:0000bd5c       ??_C@_1CO@MKEMHOAG@?$AA?1?$AAc?$AAn?$AA?1?$AAg?$AAi?$AAf?$AA?1?$AAc?$AAn?$AA?1?$AAg?$AAi?$AAf?$AA_?$AAa?$AAl?$AAl?$AA?4?$AAg?$AAi?$AAf?$AA?$AA@ 0049ed5c     hd3.obj
 0002:0000bd8c       ??_C@_1BI@DNKBNAIA@?$AAI?$AAD?$AAS?$AA_?$AAG?$AAI?$AAF?$AA_?$AAW?$AAE?$AAB?$AA?$AA@ 0049ed8c     hd3.obj
 0002:0000bda4       ??_C@_1CO@DIJNAFCC@?$AA?1?$AAc?$AAn?$AA?1?$AAg?$AAi?$AAf?$AA?1?$AAc?$AAn?$AA?1?$AAg?$AAi?$AAf?$AA_?$AAw?$AAe?$AAb?$AA?4?$AAg?$AAi?$AAf?$AA?$AA@ 0049eda4     hd3.obj
 0002:0000bdd4       ??_C@_1BK@BAIIMGIJ@?$AAI?$AAD?$AAS?$AA_?$AAG?$AAI?$AAF?$AA_?$AAT?$AAR?$AAA?$AAY?$AA?$AA@ 0049edd4     hd3.obj
 0002:0000bdf0       ??_C@_1DA@IKDMCDLB@?$AA?1?$AAc?$AAn?$AA?1?$AAg?$AAi?$AAf?$AA?1?$AAc?$AAn?$AA?1?$AAg?$AAi?$AAf?$AA_?$AAt?$AAr?$AAa?$AAy?$AA?4?$AAg?$AAi?$AAf?$AA?$AA@ 0049edf0     hd3.obj
 0002:0000be20       ??_C@_1BI@LMMFOBD@?$AAI?$AAD?$AAS?$AA_?$AAG?$AAI?$AAF?$AA_?$AAG?$AAE?$AAN?$AA?$AA@ 0049ee20     hd3.obj
 0002:0000be38       ??_C@_1CO@NLLAHGDN@?$AA?1?$AAc?$AAn?$AA?1?$AAg?$AAi?$AAf?$AA?1?$AAc?$AAn?$AA?1?$AAg?$AAi?$AAf?$AA_?$AAg?$AAe?$AAn?$AA?4?$AAg?$AAi?$AAf?$AA?$AA@ 0049ee38     hd3.obj
 0002:0000be68       ??_C@_1BM@MJKFEACF@?$AAI?$AAD?$AAS?$AA_?$AAG?$AAI?$AAF?$AA_?$AAC?$AAL?$AAE?$AAA?$AAN?$AA?$AA@ 0049ee68     hd3.obj
 0002:0000be84       ??_C@_1DC@EADCNKOP@?$AA?1?$AAc?$AAn?$AA?1?$AAg?$AAi?$AAf?$AA?1?$AAc?$AAn?$AA?1?$AAg?$AAi?$AAf?$AA_?$AAc?$AAl?$AAe?$AAa?$AAn?$AA?4?$AAg?$AAi?$AAf?$AA?$AA@ 0049ee84     hd3.obj
 0002:0000beb8       ??_C@_1BG@OIGEAIJF@?$AAI?$AAD?$AAS?$AA_?$AAG?$AAI?$AAF?$AA_?$AAB?$AAK?$AA?$AA@ 0049eeb8     hd3.obj
 0002:0000bed0       ??_C@_1CM@PAAANFNN@?$AA?1?$AAc?$AAn?$AA?1?$AAg?$AAi?$AAf?$AA?1?$AAc?$AAn?$AA?1?$AAg?$AAi?$AAf?$AA_?$AAb?$AAk?$AA?4?$AAg?$AAi?$AAf?$AA?$AA@ 0049eed0     hd3.obj
 0002:0000befc       ??_C@_1BG@HMEFNFNF@?$AAI?$AAD?$AAS?$AA_?$AAG?$AAI?$AAF?$AA_?$AAA?$AAH?$AA?$AA@ 0049eefc     hd3.obj
 0002:0000bf14       ??_C@_1CM@PLPPCCPG@?$AA?1?$AAc?$AAn?$AA?1?$AAg?$AAi?$AAf?$AA?1?$AAc?$AAn?$AA?1?$AAg?$AAi?$AAf?$AA_?$AAa?$AAh?$AA?4?$AAg?$AAi?$AAf?$AA?$AA@ 0049ef14     hd3.obj
 0002:0000bf40       ??_C@_1BI@JDFCPLEB@?$AAI?$AAD?$AAS?$AA_?$AAG?$AAI?$AAF?$AA_?$AAA?$AAD?$AAV?$AA?$AA@ 0049ef40     hd3.obj
 0002:0000bf58       ??_C@_1CO@BPDKGFKN@?$AA?1?$AAc?$AAn?$AA?1?$AAg?$AAi?$AAf?$AA?1?$AAc?$AAn?$AA?1?$AAg?$AAi?$AAf?$AA_?$AAa?$AAd?$AAv?$AA?4?$AAg?$AAi?$AAf?$AA?$AA@ 0049ef58     hd3.obj
 0002:0000bf88       ??_C@_1BG@INOCBPBM@?$AAg?$AAi?$AAf?$AA_?$AAa?$AAh?$AA?4?$AAg?$AAi?$AAf?$AA?$AA@ 0049ef88     hd3.obj
 0002:0000bfa0       ??_C@_1BI@CHEJFHFH@?$AAg?$AAi?$AAf?$AA_?$AAg?$AAe?$AAn?$AA?4?$AAg?$AAi?$AAf?$AA?$AA@ 0049efa0     hd3.obj
 0002:0000bfb8       ??_C@_1BM@FMFDAFJM@?$AAg?$AAi?$AAf?$AA_?$AAc?$AAl?$AAe?$AAa?$AAn?$AA?4?$AAg?$AAi?$AAf?$AA?$AA@ 0049efb8     hd3.obj
 0002:0000bfd4       ??_C@_1BG@IGBNOIDH@?$AAg?$AAi?$AAf?$AA_?$AAb?$AAk?$AA?4?$AAg?$AAi?$AAf?$AA?$AA@ 0049efd4     hd3.obj
 0002:0000bfec       ??_C@_1BI@ODMDEEMH@?$AAg?$AAi?$AAf?$AA_?$AAa?$AAd?$AAv?$AA?4?$AAg?$AAi?$AAf?$AA?$AA@ 0049efec     hd3.obj
 0002:0000c004       ??_C@_1BI@DGLFFPGM@?$AAg?$AAi?$AAf?$AA_?$AAa?$AAl?$AAl?$AA?4?$AAg?$AAi?$AAf?$AA?$AA@ 0049f004     hd3.obj
 0002:0000c01c       ??_C@_1BG@PEOLMEHA@?$AAg?$AAi?$AAf?$AAl?$AAi?$AAn?$AAk?$AA?4?$AAd?$AAb?$AA?$AA@ 0049f01c     hd3.obj
 0002:0000c034       ??_C@_1BI@FIOLLGIJ@?$AA?2?$AAd?$AAo?$AAw?$AAn?$AAl?$AAo?$AAa?$AAd?$AAs?$AA?2?$AA?$AA@ 0049f034     hd3.obj
 0002:0000c04c       ??_C@_0L@PCJCDMFM@giflink?4db?$AA@ 0049f04c     hd3.obj
 0002:0000c058       ??_C@_1EI@HGIDLLCM@?$AAv?$AAe?$AAc?$AAt?$AAo?$AAr?$AA?5?$AAe?$AAr?$AAa?$AAs?$AAe?$AA?5?$AAi?$AAt?$AAe?$AAr?$AAa?$AAt?$AAo?$AAr?$AA?5?$AAo?$AAu?$AAt?$AAs?$AAi?$AAd?$AAe?$AA?5?$AAr?$AAa@ 0049f058     hd3.obj
 0002:0000c0a0       ??_C@_1NM@DKLLGANI@?$AAs?$AAt?$AAd?$AA?3?$AA?3?$AAl?$AAi?$AAs?$AAt?$AA?$DM?$AAs?$AAt?$AAr?$AAu?$AAc?$AAt?$AA?5?$AAW?$AAn?$AAd?$AAA?$AAn?$AAd?$AAH?$AAa?$AAn?$AAd?$AAl?$AAe?$AA?5?$AA?$CK?$AA?0@ 0049f0a0     hd3.obj
 0002:0000c180       ??_C@_1ME@DDCNPHNE@?$AAs?$AAt?$AAd?$AA?3?$AA?3?$AA_?$AAV?$AAe?$AAc?$AAt?$AAo?$AAr?$AA_?$AAc?$AAo?$AAn?$AAs?$AAt?$AA_?$AAi?$AAt?$AAe?$AAr?$AAa?$AAt?$AAo?$AAr?$AA?$DM?$AAs?$AAt?$AAr?$AAu@ 0049f180     hd3.obj
 0002:0000c248       ??_C@_1EG@FOHJJHAC@?$AAv?$AAe?$AAc?$AAt?$AAo?$AAr?$AA?5?$AAi?$AAt?$AAe?$AAr?$AAa?$AAt?$AAo?$AAr?$AA?5?$AAn?$AAo?$AAt?$AA?5?$AAd?$AAe?$AAr?$AAe?$AAf?$AAe?$AAr?$AAe?$AAn?$AAc?$AAa?$AAb@ 0049f248     hd3.obj
 0002:0000c290       ??_C@_1EK@EEHFMKDC@?$AAv?$AAe?$AAc?$AAt?$AAo?$AAr?$AA?5?$AAi?$AAn?$AAs?$AAe?$AAr?$AAt?$AA?5?$AAi?$AAt?$AAe?$AAr?$AAa?$AAt?$AAo?$AAr?$AA?5?$AAo?$AAu?$AAt?$AAs?$AAi?$AAd?$AAe?$AA?5?$AAr@ 0049f290     hd3.obj
 0002:0000c2dc       ??_C@_0BD@OLBABOEK@vector?$DMT?$DO?5too?5long?$AA@ 0049f2dc     hd3.obj
 0002:0000c2f0       ??_C@_1NO@LIDMOPGO@?$AAs?$AAt?$AAd?$AA?3?$AA?3?$AAl?$AAi?$AAs?$AAt?$AA?$DM?$AAs?$AAt?$AAr?$AAu?$AAc?$AAt?$AA?5?$AAW?$AAn?$AAd?$AAA?$AAn?$AAd?$AAH?$AAa?$AAn?$AAd?$AAl?$AAe?$AA?5?$AA?$CK?$AA?0@ 0049f2f0     hd3.obj
 0002:0000c3d0       ??_C@_1NG@GPHFDIHJ@?$AAs?$AAt?$AAd?$AA?3?$AA?3?$AAl?$AAi?$AAs?$AAt?$AA?$DM?$AAs?$AAt?$AAr?$AAu?$AAc?$AAt?$AA?5?$AAW?$AAn?$AAd?$AAA?$AAn?$AAd?$AAH?$AAa?$AAn?$AAd?$AAl?$AAe?$AA?5?$AA?$CK?$AA?0@ 0049f3d0     hd3.obj
 0002:0000c4a8       ??_C@_1NM@POEPHJAE@?$AAs?$AAt?$AAd?$AA?3?$AA?3?$AA_?$AAV?$AAe?$AAc?$AAt?$AAo?$AAr?$AA_?$AAc?$AAo?$AAn?$AAs?$AAt?$AA_?$AAi?$AAt?$AAe?$AAr?$AAa?$AAt?$AAo?$AAr?$AA?$DM?$AAs?$AAt?$AAr?$AAu@ 0049f4a8     hd3.obj
 0002:0000c588       ??_C@_1NK@JLHOCNGO@?$AA?$CI?$AA?$CC?$AA_?$AAP?$AAv?$AAe?$AAc?$AAt?$AAo?$AAr?$AA?5?$AA?$DN?$AA?$DN?$AA?5?$AAN?$AAU?$AAL?$AAL?$AA?5?$AA?$HM?$AA?$HM?$AA?5?$AA?$CI?$AA?$CI?$AA?$CI?$AA_?$AAM?$AAy?$AAv?$AAe?$AAc?$AA?5@ 0049f588     hd3.obj
 0002:0000c668       ??_C@_1BAC@KBDNDJPK@?$AA?$CI?$AA?$CC?$AA_?$AAM?$AAy?$AAp?$AAt?$AAr?$AA?5?$AA?$CL?$AA?5?$AA_?$AAO?$AAf?$AAf?$AA?5?$AA?$DM?$AA?$DN?$AA?5?$AA?$CI?$AA?$CI?$AA_?$AAM?$AAy?$AAv?$AAe?$AAc?$AA?5?$AA?$CK?$AA?$CJ?$AA?$CI?$AAt@ 0049f668     hd3.obj
 0002:0000c770       ??_C@_1MG@PJAKHFA@?$AAs?$AAt?$AAd?$AA?3?$AA?3?$AA_?$AAV?$AAe?$AAc?$AAt?$AAo?$AAr?$AA_?$AAc?$AAo?$AAn?$AAs?$AAt?$AA_?$AAi?$AAt?$AAe?$AAr?$AAa?$AAt?$AAo?$AAr?$AA?$DM?$AAs?$AAt?$AAr?$AAu@ 0049f770     hd3.obj
 0002:0000c838       ??_C@_1DM@LBMEEJPP@?$AA?$CI?$AA?$CC?$AAt?$AAh?$AAi?$AAs?$AA?9?$AA?$DO?$AA_?$AAH?$AAa?$AAs?$AA_?$AAc?$AAo?$AAn?$AAt?$AAa?$AAi?$AAn?$AAe?$AAr?$AA?$CI?$AA?$CJ?$AA?$CC?$AA?0?$AA?5?$AA0?$AA?$CJ?$AA?$AA@ 0049f838     hd3.obj
 0002:0000c878       ??_C@_1LO@OMIFPCEI@?$AAs?$AAt?$AAd?$AA?3?$AA?3?$AA_?$AAV?$AAe?$AAc?$AAt?$AAo?$AAr?$AA_?$AAc?$AAo?$AAn?$AAs?$AAt?$AA_?$AAi?$AAt?$AAe?$AAr?$AAa?$AAt?$AAo?$AAr?$AA?$DM?$AAs?$AAt?$AAr?$AAu@ 0049f878     hd3.obj
 0002:0000c938       ??_C@_1DM@HINDPMBP@?$AAv?$AAe?$AAc?$AAt?$AAo?$AAr?$AA?5?$AAi?$AAt?$AAe?$AAr?$AAa?$AAt?$AAo?$AAr?$AAs?$AA?5?$AAi?$AAn?$AAc?$AAo?$AAm?$AAp?$AAa?$AAt?$AAi?$AAb?$AAl?$AAe?$AA?$AA@ 0049f938     hd3.obj
 0002:0000c974       ??_C@_1CK@EOPGIILJ@?$AAi?$AAn?$AAv?$AAa?$AAl?$AAi?$AAd?$AA?5?$AAn?$AAu?$AAl?$AAl?$AA?5?$AAp?$AAo?$AAi?$AAn?$AAt?$AAe?$AAr?$AA?$AA@ 0049f974     hd3.obj
 0002:0000c9a0       ??_C@_1CO@DGLIKNHI@?$AAi?$AAn?$AAv?$AAa?$AAl?$AAi?$AAd?$AA?5?$AAi?$AAt?$AAe?$AAr?$AAa?$AAt?$AAo?$AAr?$AA?5?$AAr?$AAa?$AAn?$AAg?$AAe?$AA?$AA@ 0049f9a0     hd3.obj
 0002:0000c9d0       ??_C@_1HO@FAAIACEF@?$AAc?$AA?3?$AA?2?$AAp?$AAr?$AAo?$AAg?$AAr?$AAa?$AAm?$AA?5?$AAf?$AAi?$AAl?$AAe?$AAs?$AA?2?$AAm?$AAi?$AAc?$AAr?$AAo?$AAs?$AAo?$AAf?$AAt?$AA?5?$AAv?$AAi?$AAs?$AAu?$AAa@ 0049f9d0     hd3.obj
 0002:0000ca54       ??_7CHyperLink@@6B@        0049fa54     HyperLink.obj
 0002:0000ca58       ??_C@_1BI@DIKLPDHL@?$AAH?$AAT?$AAM?$AAL?$AAM?$AAa?$AAn?$AAa?$AAg?$AAe?$AAr?$AA?$AA@ 0049fa58     PictureEx.obj
 0002:0000ca74       ??_7CPictureEx@@6B@        0049fa74     PictureEx.obj
 0002:0000ca78       ??_C@_1DI@OBEKADG@?$AAC?$AAP?$AAi?$AAc?$AAt?$AAu?$AAr?$AAe?$AAE?$AAx?$AA?$CI?$AAH?$AAW?$AAN?$AAD?$AA?5?$AAh?$AAW?$AAn?$AAd?$AA?5?$AA?$DN?$AA?5?$AA?$CF?$AAx?$AA?6?$AA?$CJ?$AA?$AA@ 0049fa78     PictureEx.obj
 0002:0000cab0       ??_C@_1BO@OCEOOABP@?$AA?$HO?$AAC?$AAP?$AAi?$AAc?$AAt?$AAu?$AAr?$AAe?$AAE?$AAx?$AA?$CI?$AA?$CJ?$AA?6?$AA?$AA@ 0049fab0     PictureEx.obj
 0002:0000cad0       ??_C@_03LMHIHEFE@89a?$AA@  0049fad0     PictureEx.obj
 0002:0000cad4       ??_C@_03LGOGFJFO@87a?$AA@  0049fad4     PictureEx.obj
 0002:0000cad8       ??_C@_03BBABOKL@GIF?$AA@   0049fad8     PictureEx.obj
 0002:0000cadc       ??_C@_1DI@HOPLOMIB@?$AAL?$AAo?$AAa?$AAd?$AA?3?$AA?5?$AAE?$AAr?$AAr?$AAo?$AAr?$AA?5?$AAl?$AAo?$AAc?$AAk?$AAi?$AAn?$AAg?$AA?5?$AAm?$AAe?$AAm?$AAo?$AAr?$AAy?$AA?6?$AA?$AA@ 0049fadc     PictureEx.obj
 0002:0000cb18       ??_C@_1EK@DHHJEGFH@?$AAL?$AAo?$AAa?$AAd?$AA?$CI?$AAH?$AAG?$AAL?$AAO?$AAB?$AAA?$AAL?$AA?5?$AAh?$AAG?$AAl?$AAo?$AAb?$AAa?$AAl?$AA?0?$AA?5?$AAD?$AAW?$AAO?$AAR?$AAD?$AA?5?$AAd?$AAw?$AAS?$AAi@ 0049fb18     PictureEx.obj
 0002:0000cb68       ??_C@_1EO@DHOJHFIG@?$AAL?$AAo?$AAa?$AAd?$AA?5?$AA?$CI?$AAr?$AAe?$AAs?$AAo?$AAu?$AAr?$AAc?$AAe?$AA?$CJ?$AA?3?$AA?5?$AAE?$AAr?$AAr?$AAo?$AAr?$AA?5?$AAl?$AAo?$AAc?$AAk?$AAi?$AAn?$AAg?$AA?5?$AAm@ 0049fb68     PictureEx.obj
 0002:0000cbb8       ??_C@_1FE@MIMNPEPM@?$AAL?$AAo?$AAa?$AAd?$AA?5?$AA?$CI?$AAr?$AAe?$AAs?$AAo?$AAu?$AAr?$AAc?$AAe?$AA?$CJ?$AA?3?$AA?5?$AAE?$AAr?$AAr?$AAo?$AAr?$AA?5?$AAa?$AAl?$AAl?$AAo?$AAc?$AAa?$AAt?$AAi?$AAn@ 0049fbb8     PictureEx.obj
 0002:0000cc10       ??_C@_1FI@DMLGLEOK@?$AAL?$AAo?$AAa?$AAd?$AA?5?$AA?$CI?$AAr?$AAe?$AAs?$AAo?$AAu?$AAr?$AAc?$AAe?$AA?$CJ?$AA?3?$AA?5?$AAE?$AAr?$AAr?$AAo?$AAr?$AA?5?$AAl?$AAo?$AAa?$AAd?$AAi?$AAn?$AAg?$AA?5?$AAr@ 0049fc10     PictureEx.obj
 0002:0000cc68       ??_C@_1BO@IHPJFLAD@?$AAs?$AAz?$AAR?$AAe?$AAs?$AAo?$AAu?$AAr?$AAc?$AAe?$AAT?$AAy?$AAp?$AAe?$AA?$AA@ 0049fc68     PictureEx.obj
 0002:0000cc88       ??_C@_1BO@KHGDHBPJ@?$AAs?$AAz?$AAR?$AAe?$AAs?$AAo?$AAu?$AAr?$AAc?$AAe?$AAN?$AAa?$AAm?$AAe?$AA?$AA@ 0049fc88     PictureEx.obj
 0002:0000cca8       ??_C@_1FE@BCGEPGGI@?$AAd?$AA?3?$AA?2?$AAm?$AAy?$AA?5?$AAp?$AAr?$AAo?$AAg?$AAr?$AAa?$AAm?$AA?2?$AAt?$AA2?$AA?2?$AAh?$AAi?$AAd?$AAe?$AAd?$AAr?$AAa?$AAg?$AAo?$AAn?$AA?2?$AAp?$AAi?$AAc?$AAt@ 0049fca8     PictureEx.obj
 0002:0000ccfc       ??_C@_1CM@EPCLCLEG@?$AAC?$AAP?$AAi?$AAc?$AAt?$AAu?$AAr?$AAe?$AAE?$AAx?$AA?3?$AA?3?$AAU?$AAn?$AAL?$AAo?$AAa?$AAd?$AA?$CI?$AA?$CJ?$AA?6?$AA?$AA@ 0049fcfc     PictureEx.obj
 0002:0000cd28       ??_C@_1FK@PFOOPMMH@?$AAD?$AAr?$AAa?$AAw?$AA?3?$AA?5?$AAC?$AAo?$AAu?$AAl?$AAd?$AAn?$AA?8?$AAt?$AA?5?$AAs?$AAt?$AAa?$AAr?$AAt?$AA?5?$AAa?$AA?5?$AAG?$AAI?$AAF?$AA?5?$AAa?$AAn?$AAi?$AAm?$AAa@ 0049fd28     PictureEx.obj
 0002:0000cd88       ??_C@_1JG@NKENNIIG@?$AAC?$AAa?$AAl?$AAl?$AA?5?$AAo?$AAn?$AAe?$AA?5?$AAo?$AAf?$AA?5?$AAt?$AAh?$AAe?$AA?5?$AAC?$AAP?$AAi?$AAc?$AAt?$AAu?$AAr?$AAe?$AAE?$AAx?$AA?3?$AA?3?$AAL?$AAo?$AAa?$AAd@ 0049fd88     PictureEx.obj
 0002:0000ce20       ??_C@_1FA@CFGPEPJF@?$AAL?$AAo?$AAa?$AAd?$AA?5?$AA?$CI?$AAf?$AAi?$AAl?$AAe?$AA?$CJ?$AA?3?$AA?5?$AAE?$AAr?$AAr?$AAo?$AAr?$AA?5?$AAr?$AAe?$AAa?$AAd?$AAi?$AAn?$AAg?$AA?5?$AAt?$AAh?$AAe?$AA?5?$AAf@ 0049fe20     PictureEx.obj
 0002:0000ce70       ??_C@_1EG@MOENMDGD@?$AAL?$AAo?$AAa?$AAd?$AA?5?$AA?$CI?$AAf?$AAi?$AAl?$AAe?$AA?$CJ?$AA?3?$AA?5?$AAE?$AAr?$AAr?$AAo?$AAr?$AA?5?$AAl?$AAo?$AAc?$AAk?$AAi?$AAn?$AAg?$AA?5?$AAm?$AAe?$AAm?$AAo?$AAr@ 0049fe70     PictureEx.obj
 0002:0000ceb8       ??_C@_1EM@GJNPEFHE@?$AAL?$AAo?$AAa?$AAd?$AA?5?$AA?$CI?$AAf?$AAi?$AAl?$AAe?$AA?$CJ?$AA?3?$AA?5?$AAE?$AAr?$AAr?$AAo?$AAr?$AA?5?$AAa?$AAl?$AAl?$AAo?$AAc?$AAa?$AAt?$AAi?$AAn?$AAg?$AA?5?$AAm?$AAe@ 0049feb8     PictureEx.obj
 0002:0000cf08       ??_C@_1EC@JNOCHNE@?$AAL?$AAo?$AAa?$AAd?$AA?5?$AA?$CI?$AAf?$AAi?$AAl?$AAe?$AA?$CJ?$AA?3?$AA?5?$AAE?$AAr?$AAr?$AAo?$AAr?$AA?5?$AAo?$AAp?$AAe?$AAn?$AAi?$AAn?$AAg?$AA?5?$AAf?$AAi?$AAl?$AAe?$AA?6@ 0049ff08     PictureEx.obj
 0002:0000cf4c       ??_C@_15JJPIMNBO@?$AAr?$AAb?$AA?$AA@ 0049ff4c     PictureEx.obj
 0002:0000cf54       ??_C@_1BG@HPONCFDP@?$AAs?$AAz?$AAF?$AAi?$AAl?$AAe?$AAN?$AAa?$AAm?$AAe?$AA?$AA@ 0049ff54     PictureEx.obj
 0002:0000cf6c       ??_C@_1O@CCOEGFPD@?$AAp?$AAP?$AAa?$AAr?$AAa?$AAm?$AA?$AA@ 0049ff6c     PictureEx.obj
 0002:0000cf7c       ??_C@_1O@OIBLHLHH@?$AAS?$AAt?$AAo?$AAp?$AA?$CI?$AA?$CJ?$AA?$AA@ 0049ff7c     PictureEx.obj
 0002:0000cf90       ??_C@_1MK@GEOFJBOA@?$AAs?$AAt?$AAd?$AA?3?$AA?3?$AAv?$AAe?$AAc?$AAt?$AAo?$AAr?$AA?$DM?$AAs?$AAt?$AAr?$AAu?$AAc?$AAt?$AA?5?$AAC?$AAP?$AAi?$AAc?$AAt?$AAu?$AAr?$AAe?$AAE?$AAx?$AA?3?$AA?3?$AAT@ 0049ff90     PictureEx.obj
 0002:0000d060       ??_C@_1OI@DCHMLHMG@?$AAs?$AAt?$AAd?$AA?3?$AA?3?$AA_?$AAV?$AAe?$AAc?$AAt?$AAo?$AAr?$AA_?$AAc?$AAo?$AAn?$AAs?$AAt?$AA_?$AAi?$AAt?$AAe?$AAr?$AAa?$AAt?$AAo?$AAr?$AA?$DM?$AAs?$AAt?$AAr?$AAu@ 004a0060     PictureEx.obj
 0002:0000d148       ??_C@_1OC@GAINNKDO@?$AAs?$AAt?$AAd?$AA?3?$AA?3?$AA_?$AAV?$AAe?$AAc?$AAt?$AAo?$AAr?$AA_?$AAc?$AAo?$AAn?$AAs?$AAt?$AA_?$AAi?$AAt?$AAe?$AAr?$AAa?$AAt?$AAo?$AAr?$AA?$DM?$AAs?$AAt?$AAr?$AAu@ 004a0148     PictureEx.obj
 0002:0000d230       ??_C@_1BAA@LGJOFNNO@?$AAs?$AAt?$AAd?$AA?3?$AA?3?$AA_?$AAV?$AAe?$AAc?$AAt?$AAo?$AAr?$AA_?$AAc?$AAo?$AAn?$AAs?$AAt?$AA_?$AAi?$AAt?$AAe?$AAr?$AAa?$AAt?$AAo?$AAr?$AA?$DM?$AAs?$AAt?$AAr?$AAu@ 004a0230     PictureEx.obj
 0002:0000d330       ??_C@_1EE@EJDKCLKB@?$AAv?$AAe?$AAc?$AAt?$AAo?$AAr?$AA?5?$AAi?$AAt?$AAe?$AAr?$AAa?$AAt?$AAo?$AAr?$AA?5?$AAn?$AAo?$AAt?$AA?5?$AAi?$AAn?$AAc?$AAr?$AAe?$AAm?$AAe?$AAn?$AAt?$AAa?$AAb?$AAl@ 004a0330     PictureEx.obj
 0002:0000d378       ??_C@_1HE@NMBDDEHP@?$AA?$CI?$AA?$CC?$AA_?$AAM?$AAy?$AAp?$AAt?$AAr?$AA?5?$AA?$DM?$AA?5?$AA?$CI?$AA?$CI?$AA_?$AAM?$AAy?$AAv?$AAe?$AAc?$AA?5?$AA?$CK?$AA?$CJ?$AA?$CI?$AAt?$AAh?$AAi?$AAs?$AA?9?$AA?$DO?$AA_?$AAG?$AAe@ 004a0378     PictureEx.obj
 0002:0000d3f0       ??_C@_1OK@HEMKJPAB@?$AAs?$AAt?$AAd?$AA?3?$AA?3?$AA_?$AAV?$AAe?$AAc?$AAt?$AAo?$AAr?$AA_?$AAc?$AAo?$AAn?$AAs?$AAt?$AA_?$AAi?$AAt?$AAe?$AAr?$AAa?$AAt?$AAo?$AAr?$AA?$DM?$AAs?$AAt?$AAr?$AAu@ 004a03f0     PictureEx.obj
 0002:0000d4e0       ??_C@_1OK@BLIJHEC@?$AAs?$AAt?$AAd?$AA?3?$AA?3?$AA_?$AAV?$AAe?$AAc?$AAt?$AAo?$AAr?$AA_?$AAc?$AAo?$AAn?$AAs?$AAt?$AA_?$AAi?$AAt?$AAe?$AAr?$AAa?$AAt?$AAo?$AAr?$AA?$DM?$AAs?$AAt?$AAr?$AAu@ 004a04e0     PictureEx.obj
 0002:0000d5d0       ??_7UseProxyDlg@@6B@       004a05d0     UseProxyDlg.obj
 0002:0000d5d4       ??_C@_1DG@PAOPHKFL@?$AAI?$AAD?$AAS?$AA_?$AAH?$AAI?$AAD?$AAE?$AAI?$AAP?$AA_?$AAS?$AAT?$AAA?$AAT?$AAE?$AAS?$AAT?$AAO?$AAP?$AAS?$AAE?$AAA?$AAR?$AAC?$AAH?$AA?$AA@ 004a05d4     UseProxyDlg.obj
 0002:0000d60c       ??_C@_1CE@MGOCGBOC@?$AAS?$AAt?$AAa?$AAt?$AAe?$AA?3?$AAS?$AAt?$AAo?$AAp?$AA?5?$AAS?$AAe?$AAa?$AAr?$AAc?$AAh?$AA?$AA@ 004a060c     UseProxyDlg.obj
 0002:0000d630       ??_C@_1DG@LDDHOBOF@?$AAI?$AAD?$AAS?$AA_?$AAH?$AAI?$AAD?$AAE?$AAI?$AAP?$AA_?$AAS?$AAE?$AAT?$AAP?$AAR?$AAO?$AAX?$AAY?$AAS?$AAU?$AAC?$AAC?$AAE?$AAS?$AAS?$AA?$AA@ 004a0630     UseProxyDlg.obj
 0002:0000d668       ??_C@_1DA@MPBLKNHM@?$AAS?$AAt?$AAa?$AAt?$AAe?$AA?3?$AAS?$AAe?$AAt?$AA?5?$AAP?$AAr?$AAo?$AAx?$AAy?$AA?5?$AAS?$AAu?$AAc?$AAe?$AAs?$AAs?$AA?$CB?$AA?$AA@ 004a0668     UseProxyDlg.obj
 0002:0000d698       ??_C@_1CA@MKLBJGLF@?$AAI?$AAD?$AAS?$AA_?$AAH?$AAI?$AAD?$AAE?$AAI?$AAP?$AA_?$AAA?$AAR?$AAE?$AAA?$AA?$AA@ 004a0698     UseProxyDlg.obj
 0002:0000d6b8       ??_C@_1O@GGFOOBMH@?$AA?5?$AAa?$AAr?$AAe?$AAa?$AA?3?$AA?$AA@ 004a06b8     UseProxyDlg.obj
 0002:0000d6c8       ??_C@_13HOIJIPNN@?$AA?5?$AA?$AA@ 004a06c8     UseProxyDlg.obj
 0002:0000d6cc       ??_C@_17GGHIMJDF@?$AA?5?$AA?3?$AA?5?$AA?$AA@ 004a06cc     UseProxyDlg.obj
 0002:0000d6d4       ??_C@_19COCPMDNA@?$AAI?$AAP?$AA?3?$AA?5?$AA?$AA@ 004a06d4     UseProxyDlg.obj
 0002:0000d6e0       ??_C@_1O@HLEMFACN@?$AAS?$AAO?$AAC?$AAK?$AAS?$AA5?$AA?$AA@ 004a06e0     UseProxyDlg.obj
 0002:0000d6f0       ??_C@_1O@MDPADHEI@?$AAS?$AAO?$AAC?$AAK?$AAS?$AA4?$AA?$AA@ 004a06f0     UseProxyDlg.obj
 0002:0000d700       ??_C@_0BL@FGJAJBFI@200?5Connection?5established?$AA@ 004a0700     UseProxyDlg.obj
 0002:0000d71c       ??_C@_19BMGGGIKC@?$AAH?$AAT?$AAT?$AAP?$AA?$AA@ 004a071c     UseProxyDlg.obj
 0002:0000d728       ??_C@_15OJKDPEFE@?$AA?5?$AA?5?$AA?$AA@ 004a0728     UseProxyDlg.obj
 0002:0000d730       ??_C@_1DK@KHOLFOLM@?$AAI?$AAD?$AAS?$AA_?$AAH?$AAI?$AAD?$AAE?$AAI?$AAP?$AA_?$AAA?$AAL?$AAR?$AAE?$AAA?$AAD?$AAY?$AAF?$AAO?$AAU?$AAN?$AAD?$AAP?$AAR?$AAO?$AAX?$AAY?$AA?$AA@ 004a0730     UseProxyDlg.obj
 0002:0000d76c       ??_C@_1DC@MLHNPCPO@?$AAS?$AAt?$AAa?$AAt?$AAe?$AA?3?$AAA?$AAL?$AAR?$AAE?$AAA?$AAD?$AAY?$AAF?$AAO?$AAU?$AAN?$AAD?$AAP?$AAR?$AAO?$AAX?$AAY?$AA?$CB?$AA?$AA@ 004a076c     UseProxyDlg.obj
 0002:0000d7a0       ??_C@_1DC@DFFEBOIG@?$AAI?$AAD?$AAS?$AA_?$AAH?$AAI?$AAD?$AAE?$AAI?$AAP?$AA_?$AAS?$AAE?$AAA?$AAR?$AAC?$AAH?$AAS?$AAU?$AAC?$AAC?$AAE?$AAS?$AAS?$AA?$AA@ 004a07a0     UseProxyDlg.obj
 0002:0000d7d4       ??_C@_1DO@BFAPOML@?$AAS?$AAt?$AAa?$AAt?$AAe?$AA?3?$AAI?$AAD?$AAS?$AA_?$AAH?$AAI?$AAD?$AAE?$AAI?$AAP?$AA_?$AAS?$AAE?$AAA?$AAR?$AAC?$AAH?$AAS?$AAU?$AAC?$AAC?$AAE?$AAS?$AAS?$AA?$AA@ 004a07d4     UseProxyDlg.obj
 0002:0000d814       ??_C@_1DA@KGLAHIDM@?$AAI?$AAD?$AAS?$AA_?$AAH?$AAI?$AAD?$AAE?$AAI?$AAP?$AA_?$AAS?$AAE?$AAT?$AAT?$AAI?$AAN?$AAG?$AAP?$AAR?$AAO?$AAX?$AAY?$AA?$AA@ 004a0814     UseProxyDlg.obj
 0002:0000d848       ??_C@_1EI@GPGHHEBB@?$AAS?$AAt?$AAa?$AAt?$AAe?$AA?3?$AAA?$AAL?$AAR?$AAE?$AAA?$AAD?$AAY?$AAF?$AAO?$AAU?$AAN?$AAD?$AAP?$AAR?$AAO?$AAX?$AAY?$AA?0?$AAS?$AAE?$AAT?$AAT?$AAI?$AAN?$AAG?$AA?5@ 004a0848     UseProxyDlg.obj
 0002:0000d890       ??_C@_13FPIHKDPF@?$PP?$BK?$AA?$AA@ 004a0890     UseProxyDlg.obj
 0002:0000d894       ??_C@_1DM@MJIHIABF@?$AAI?$AAD?$AAS?$AA_?$AAH?$AAI?$AAD?$AAE?$AAI?$AAP?$AA_?$AAS?$AAT?$AAA?$AAT?$AAE?$AAT?$AAE?$AAS?$AAT?$AAI?$AAN?$AAG?$AAS?$AAE?$AAR?$AAV?$AAE?$AAR?$AA?$AA@ 004a0894     UseProxyDlg.obj
 0002:0000d8d0       ??_C@_1CK@NEMNKPGP@?$AAS?$AAt?$AAa?$AAt?$AAe?$AA?3?$AAT?$AAe?$AAs?$AAt?$AAi?$AAn?$AAg?$AA?5?$AAS?$AAe?$AAr?$AAv?$AAe?$AAr?$AA?$AA@ 004a08d0     UseProxyDlg.obj
 0002:0000d900       ??_C@_0IB@JOPBDJPJ@CONNECT?5http?4tencent?4com?3443?5HTT@ 004a0900     UseProxyDlg.obj
 0002:0000d984       ??_C@_0L@PLOJGOCB@?$AF?$AD?$AA?$AB?$AA?$AA?$AA?$AA?A?$BL?$AA@ 004a0984     UseProxyDlg.obj
 0002:0000d990       ??_C@_01MDFBBJEF@?$AF?$AA@ 004a0990     UseProxyDlg.obj
 0002:0000d994       ??_C@_02BPGONFEH@?$AF?$AB?$AA@ 004a0994     UseProxyDlg.obj
 0002:0000d998       ??_C@_04FMMHFHOO@?$AN?6?$AN?6?$AA@ 004a0998     UseProxyDlg.obj
 0002:0000d9a0       ??_C@_0CBC@GBODAJEN@?5HTTP?11?41?$AN?6Accept?3?5image?1gif?0?5im@ 004a09a0     UseProxyDlg.obj
 0002:0000dbb4       ??_C@_05KCENFFMJ@GET?5?1?$AA@ 004a0bb4     UseProxyDlg.obj
 0002:0000dbbc       ??_C@_1M@EDCCKGIC@?$AAD?$AAD?$AAD?$AAD?$AA2?$AA?$AA@ 004a0bbc     UseProxyDlg.obj
 0002:0000dbc8       ??_C@_19OIBIIEBE@?$AAD?$AAD?$AAD?$AA2?$AA?$AA@ 004a0bc8     UseProxyDlg.obj
 0002:0000dbd4       ??_C@_03OCLLGKEH@udp?$AA@  004a0bd4     UseProxyDlg.obj
 0002:0000dbd8       ??_C@_03FPEIBLKH@tcp?$AA@  004a0bd8     UseProxyDlg.obj
 0002:0000dbdc       ??_C@_1CO@OICMEME@?$AAI?$AAD?$AAS?$AA_?$AAH?$AAI?$AAD?$AAE?$AAI?$AAP?$AA_?$AAR?$AAE?$AAA?$AAD?$AAI?$AAN?$AAG?$AAD?$AAA?$AAT?$AAA?$AA?$AA@ 004a0bdc     UseProxyDlg.obj
 0002:0000dc0c       ??_C@_1CE@KNMFFBGH@?$AAS?$AAt?$AAa?$AAt?$AAe?$AA?3?$AAR?$AAE?$AAA?$AAD?$AAI?$AAN?$AAG?$AAD?$AAA?$AAT?$AAA?$AA?$AA@ 004a0c0c     UseProxyDlg.obj
 0002:0000dc30       ??_C@_1DG@GKCDENMM@?$AAI?$AAD?$AAS?$AA_?$AAH?$AAI?$AAD?$AAE?$AAI?$AAP?$AA_?$AAQ?$AAU?$AAE?$AAR?$AAY?$AAF?$AAI?$AAL?$AAE?$AAF?$AAA?$AAI?$AAL?$AAR?$AAE?$AA?$AA@ 004a0c30     UseProxyDlg.obj
 0002:0000dc68       ??_C@_1EC@OPGHCMDN@?$AAS?$AAt?$AAa?$AAt?$AAe?$AA?3?$AAI?$AAD?$AAS?$AA_?$AAH?$AAI?$AAD?$AAE?$AAI?$AAP?$AA_?$AAQ?$AAU?$AAE?$AAR?$AAY?$AAF?$AAI?$AAL?$AAE?$AAF?$AAA?$AAI?$AAL?$AAR?$AAE@ 004a0c68     UseProxyDlg.obj
 0002:0000dcac       ??_C@_1DG@CKFAKIJJ@?$AAI?$AAD?$AAS?$AA_?$AAH?$AAI?$AAD?$AAE?$AAI?$AAP?$AA_?$AAC?$AAO?$AAN?$AAN?$AAE?$AAC?$AAT?$AAE?$AAD?$AAS?$AAE?$AAR?$AAV?$AAE?$AAR?$AA?$AA@ 004a0cac     UseProxyDlg.obj
 0002:0000dce4       ??_C@_1CM@JGLIMOPP@?$AAS?$AAt?$AAa?$AAt?$AAe?$AA?3?$AAC?$AAO?$AAN?$AAN?$AAE?$AAC?$AAT?$AAE?$AAD?$AAS?$AAE?$AAR?$AAV?$AAE?$AAR?$AA?$AA@ 004a0ce4     UseProxyDlg.obj
 0002:0000dd10       ??_C@_1BI@FPOFFKBD@?$AAh?$AAt?$AAt?$AAp?$AA?9?$AA1?$AA?4?$AAh?$AAt?$AAm?$AAl?$AA?$AA@ 004a0d10     UseProxyDlg.obj
 0002:0000dd28       ??_C@_1CG@HAHANJGE@?$AA3?$AA0?$AAf?$AAa?$AAs?$AAt?$AAp?$AAr?$AAo?$AAx?$AAy?$AA?9?$AA1?$AA?4?$AAh?$AAt?$AAm?$AAl?$AA?$AA@ 004a0d28     UseProxyDlg.obj
 0002:0000dd50       ??_C@_1BM@FHOPJCKH@?$AAs?$AAo?$AAc?$AAk?$AAs?$AA4?$AA?9?$AA1?$AA?4?$AAh?$AAt?$AAm?$AAl?$AA?$AA@ 004a0d50     UseProxyDlg.obj
 0002:0000dd6c       ??_C@_1BM@LILNCEEG@?$AAs?$AAo?$AAc?$AAk?$AAs?$AA5?$AA?9?$AA1?$AA?4?$AAh?$AAt?$AAm?$AAl?$AA?$AA@ 004a0d6c     UseProxyDlg.obj
 0002:0000dd88       ??_C@_1BI@GMFBBHMI@?$AAh?$AAt?$AAm?$AAl?$AA_?$AAp?$AAr?$AAo?$AAx?$AAy?$AA?1?$AA?$AA@ 004a0d88     UseProxyDlg.obj
 0002:0000dda0       ??_C@_1DO@EOHMDIDD@?$AAI?$AAD?$AAS?$AA_?$AAH?$AAI?$AAD?$AAE?$AAI?$AAP?$AA_?$AAC?$AAA?$AAN?$AAN?$AAO?$AAT?$AAC?$AAO?$AAN?$AAN?$AAE?$AAC?$AAT?$AAS?$AAE?$AAR?$AAV?$AAE?$AAR?$AA?$AA@ 004a0da0     UseProxyDlg.obj
 0002:0000dde0       ??_C@_1DE@JPLOJECK@?$AAS?$AAt?$AAa?$AAt?$AAe?$AA?3?$AAC?$AAA?$AAN?$AAN?$AAO?$AAT?$AAC?$AAO?$AAN?$AAN?$AAE?$AAC?$AAT?$AAS?$AAE?$AAR?$AAV?$AAE?$AAR?$AA?$AA@ 004a0de0     UseProxyDlg.obj
 0002:0000de14       ??_C@_0BA@HMCKMCNA@www?4proxycn?4com?$AA@ 004a0e14     UseProxyDlg.obj
 0002:0000de24       ??_C@_02PFIAKEDG@80?$AA@   004a0e24     UseProxyDlg.obj
 0002:0000de28       ??_C@_1DI@OJNDKKLF@?$AAI?$AAD?$AAS?$AA_?$AAH?$AAI?$AAD?$AAE?$AAI?$AAP?$AA_?$AAC?$AAO?$AAN?$AAN?$AAE?$AAC?$AAT?$AAI?$AAN?$AAG?$AAS?$AAE?$AAR?$AAV?$AAE?$AAR?$AA?$AA@ 004a0e28     UseProxyDlg.obj
 0002:0000de60       ??_C@_1EE@KPGGCLPM@?$AAS?$AAt?$AAa?$AAt?$AAe?$AA?3?$AAC?$AAO?$AAN?$AAN?$AAE?$AAC?$AAT?$AAI?$AAN?$AAG?$AAS?$AAE?$AAR?$AAV?$AAE?$AAR?$AA?0?$AAP?$AAL?$AAE?$AAA?$AAS?$AAE?$AAW?$AAA?$AAI@ 004a0e60     UseProxyDlg.obj
 0002:0000dea4       ??_C@_01PPODPGHN@?$DO?$AA@ 004a0ea4     UseProxyDlg.obj
 0002:0000dea8       ??_C@_03NPKONFAB@?$CC?$CJ?$DL?$AA@ 004a0ea8     UseProxyDlg.obj
 0002:0000deac       ??_C@_0BB@JBBLBBAG@document?4write?$CI?$CC?$AA@ 004a0eac     UseProxyDlg.obj
 0002:0000dec0       ??_C@_05JEFCGOBF@?$DM?1td?$DO?$AA@ 004a0ec0     UseProxyDlg.obj
 0002:0000dec8       ??_C@_03DGCPAJNF@?$DMtd?$AA@ 004a0ec8     UseProxyDlg.obj
 0002:0000decc       ??_C@_05IMPJLBNH@?$DM?1tr?$DO?$AA@ 004a0ecc     UseProxyDlg.obj
 0002:0000ded4       ??_C@_03CKLHLMAC@?$DMtr?$AA@ 004a0ed4     UseProxyDlg.obj
 0002:0000ded8       ??_C@_08LHPBPOIK@?$DM?1table?$DO?$AA@ 004a0ed8     UseProxyDlg.obj
 0002:0000dee8       ??_C@_0BBM@PGJJLKAP@?$DMtr?5align?$DN?$CCcenter?$CC?$DO?$DMtd?5class?$DN?$CCli@ 004a0ee8     UseProxyDlg.obj
 0002:0000e008       ??_C@_1EA@OOCOOCDP@?$AAI?$AAD?$AAS?$AA_?$AAH?$AAI?$AAD?$AAE?$AAI?$AAP?$AA_?$AAC?$AAA?$AAN?$AAN?$AAO?$AAT?$AAC?$AAO?$AAN?$AAN?$AAE?$AAC?$AAT?$AAN?$AAE?$AAT?$AAW?$AAO?$AAR?$AAK?$AA?$AA@ 004a1008     UseProxyDlg.obj
 0002:0000e048       ??_C@_1DG@KKEOHFCG@?$AAS?$AAt?$AAa?$AAt?$AAe?$AA?3?$AAC?$AAA?$AAN?$AAN?$AAO?$AAT?$AAC?$AAO?$AAN?$AAN?$AAE?$AAC?$AAT?$AAN?$AAE?$AAT?$AAW?$AAO?$AAR?$AAK?$AA?$AA@ 004a1048     UseProxyDlg.obj
 0002:0000e080       ??_C@_1DA@DAGHIAOL@?$AAI?$AAD?$AAS?$AA_?$AAH?$AAI?$AAD?$AAE?$AAI?$AAP?$AAL?$AAI?$AAS?$AAT?$AA_?$AAR?$AAE?$AAS?$AAP?$AAO?$AAN?$AAS?$AAE?$AA?$AA@ 004a1080     UseProxyDlg.obj
 0002:0000e0b0       ??_C@_1BC@JMIBKFJI@?$AAR?$AAe?$AAs?$AAp?$AAo?$AAn?$AAs?$AAe?$AA?$AA@ 004a10b0     UseProxyDlg.obj
 0002:0000e0c4       ??_C@_1CK@HAAOHGFB@?$AAI?$AAD?$AAS?$AA_?$AAH?$AAI?$AAD?$AAE?$AAI?$AAP?$AAL?$AAI?$AAS?$AAT?$AA_?$AAB?$AAE?$AAG?$AAI?$AAN?$AA?$AA@ 004a10c4     UseProxyDlg.obj
 0002:0000e0f0       ??_C@_19NLLMBBJO@?$AAT?$AAi?$AAm?$AAe?$AA?$AA@ 004a10f0     UseProxyDlg.obj
 0002:0000e0fc       ??_C@_1CO@PPJEBLLP@?$AAI?$AAD?$AAS?$AA_?$AAH?$AAI?$AAD?$AAE?$AAI?$AAP?$AAL?$AAI?$AAS?$AAT?$AA_?$AAA?$AAD?$AAD?$AAR?$AAE?$AAS?$AAS?$AA?$AA@ 004a10fc     UseProxyDlg.obj
 0002:0000e12c       ??_C@_1CI@NCCNPPMC@?$AAI?$AAD?$AAS?$AA_?$AAH?$AAI?$AAD?$AAE?$AAI?$AAP?$AAL?$AAI?$AAS?$AAT?$AA_?$AAT?$AAY?$AAP?$AAE?$AA?$AA@ 004a112c     UseProxyDlg.obj
 0002:0000e154       ??_C@_19BIEPDBPA@?$AAT?$AAy?$AAp?$AAe?$AA?$AA@ 004a1154     UseProxyDlg.obj
 0002:0000e160       ??_C@_1CI@MEHPPGOF@?$AAI?$AAD?$AAS?$AA_?$AAH?$AAI?$AAD?$AAE?$AAI?$AAP?$AAL?$AAI?$AAS?$AAT?$AA_?$AAP?$AAO?$AAR?$AAT?$AA?$AA@ 004a1160     UseProxyDlg.obj
 0002:0000e188       ??_C@_19OBNDINH@?$AAP?$AAo?$AAr?$AAt?$AA?$AA@ 004a1188     UseProxyDlg.obj
 0002:0000e194       ??_C@_1CE@HAEJILEB@?$AAI?$AAD?$AAS?$AA_?$AAH?$AAI?$AAD?$AAE?$AAI?$AAP?$AAL?$AAI?$AAS?$AAT?$AA_?$AAI?$AAP?$AA?$AA@ 004a1194     UseProxyDlg.obj
 0002:0000e1b8       ??_C@_15KNGHAKFK@?$AAI?$AAP?$AA?$AA@ 004a11b8     UseProxyDlg.obj
 0002:0000e1c0       ??_C@_1CE@KPDCELIJ@?$AAI?$AAD?$AAS?$AA_?$AAH?$AAI?$AAD?$AAE?$AAI?$AAP?$AAL?$AAI?$AAS?$AAT?$AA_?$AAI?$AAD?$AA?$AA@ 004a11c0     UseProxyDlg.obj
 0002:0000e1e4       ??_C@_19FINLGDHF@?$AAA?$AAr?$AAe?$AAa?$AA?$AA@ 004a11e4     UseProxyDlg.obj
 0002:0000e1f0       ??_C@_1DE@LEAIOHNK@?$AAI?$AAD?$AAS?$AA_?$AAH?$AAI?$AAD?$AAE?$AAI?$AAP?$AA_?$AAU?$AAN?$AAK?$AAN?$AAO?$AAW?$AAN?$AAA?$AAD?$AAD?$AAR?$AAE?$AAS?$AAS?$AA?$AA@ 004a11f0     UseProxyDlg.obj
 0002:0000e224       ??_C@_1CK@OPJLKPEH@?$AAS?$AAt?$AAa?$AAt?$AAe?$AA?3?$AAU?$AAN?$AAK?$AAN?$AAO?$AAW?$AAN?$AAA?$AAD?$AAD?$AAR?$AAE?$AAS?$AAS?$AA?$AA@ 004a1224     UseProxyDlg.obj
 0002:0000e250       ??_C@_1BA@ENCCCCOC@?$AAP?$AAR?$AAO?$AAX?$AAY?$AAC?$AAN?$AA?$AA@ 004a1250     UseProxyDlg.obj
 0002:0000e260       ??_C@_1DC@HKJNPGKC@?$AAI?$AAD?$AAS?$AA_?$AAH?$AAI?$AAD?$AAE?$AAI?$AAP?$AA_?$AAS?$AAY?$AAS?$AAT?$AAE?$AAM?$AAR?$AAE?$AAS?$AAT?$AAO?$AAR?$AAE?$AA?$AA@ 004a1260     UseProxyDlg.obj
 0002:0000e294       ??_C@_1CI@COHMBBMC@?$AAS?$AAt?$AAa?$AAt?$AAe?$AA?3?$AAS?$AAY?$AAS?$AAT?$AAE?$AAM?$AAR?$AAE?$AAS?$AAT?$AAO?$AAR?$AAE?$AA?$AA@ 004a1294     UseProxyDlg.obj
 0002:0000e2bc       ??_C@_04GOFBOKAL@?L?a?P?Q?$AA@ 004a12bc     UseProxyDlg.obj
 0002:0000e2c4       ??_C@_0BN@PNBMKOCD@?U?R?M?x?B?g?$LC?$KG?$LK?E?A?$KM?$LN?S?$LD?v?$LE?m?0?$LE?m?N?s?$LK?E?3?$CFd?$AA@ 004a12c4     UseProxyDlg.obj
 0002:0000e2e4       ??_C@_1M@GFKCHEPI@?$AAl?$AAo?$AAc?$AAa?$AAl?$AA?$AA@ 004a12e4     UseProxyDlg.obj
 0002:0000e2f0       ??_C@_05IDKHKMLA@local?$AA@ 004a12f0     UseProxyDlg.obj
 0002:0000e2f8       ??_C@_13EBCNDICG@?$AA?3?$AA?$AA@ 004a12f8     UseProxyDlg.obj
 0002:0000e2fc       ??_C@_13NMPKAAJP@?$AA?$DN?$AA?$AA@ 004a12fc     UseProxyDlg.obj
 0002:0000e300       ??_C@_01JLIPDDHJ@?3?$AA@   004a1300     UseProxyDlg.obj
 0002:0000e304       ??_C@_01NEMOKFLO@?$DN?$AA@ 004a1304     UseProxyDlg.obj
 0002:0000e308       ??_C@_1M@LCMPGCNK@?$AAs?$AAo?$AAc?$AAk?$AAs?$AA?$AA@ 004a1308     UseProxyDlg.obj
 0002:0000e314       ??_C@_05LBOKJHLG@socks?$AA@ 004a1314     UseProxyDlg.obj
 0002:0000e31c       ??_C@_06BBCNMEOI@SOCKS5?$AA@ 004a131c     UseProxyDlg.obj
 0002:0000e324       ??_C@_06IDGPFKJ@SOCKS4?$AA@ 004a1324     UseProxyDlg.obj
 0002:0000e32c       ??_C@_1DK@MGDGFBKC@?$AAI?$AAD?$AAS?$AA_?$AAH?$AAI?$AAD?$AAE?$AAI?$AAP?$AA_?$AAC?$AAU?$AAR?$AAR?$AAE?$AAN?$AAT?$AAP?$AAR?$AAO?$AAX?$AAY?$AAS?$AAT?$AAA?$AAT?$AAE?$AA?$AA@ 004a132c     UseProxyDlg.obj
 0002:0000e368       ??_C@_1CK@GANCGINF@?$AAC?$AAu?$AAr?$AAr?$AAe?$AAn?$AAt?$AA?5?$AAP?$AAr?$AAo?$AAx?$AAy?$AA?5?$AAS?$AAt?$AAa?$AAt?$AAe?$AA?3?$AA?$AA@ 004a1368     UseProxyDlg.obj
 0002:0000e394       ??_C@_1BE@PECDNIOG@v?nRMN?ct?$AGO?$HPu?$CI?$GA?EQ?$LF?$PP?$BK?$AA?$AA@ 004a1394     UseProxyDlg.obj
 0002:0000e3a8       ??_C@_1CO@KPDFIAOB@?$AAI?$AAD?$AAS?$AA_?$AAH?$AAI?$AAD?$AAE?$AAI?$AAP?$AA_?$AAN?$AAO?$AAT?$AAU?$AAS?$AAE?$AAP?$AAR?$AAO?$AAX?$AAY?$AA?$AA@ 004a13a8     UseProxyDlg.obj
 0002:0000e3d8       ??_C@_1EA@IEMAOINA@?$AAC?$AAu?$AAr?$AAr?$AAe?$AAn?$AAt?$AA?5?$AAP?$AAr?$AAo?$AAx?$AAy?$AA?5?$AAS?$AAt?$AAa?$AAt?$AAe?$AA?3?$AAN?$AAO?$AAT?$AAU?$AAS?$AAE?$AAP?$AAR?$AAO?$AAX?$AAY?$AA?$AA@ 004a13d8     UseProxyDlg.obj
 0002:0000e418       ??_C@_1BI@KFFHELDP@?$AAP?$AAr?$AAo?$AAx?$AAy?$AAS?$AAe?$AAr?$AAv?$AAe?$AAr?$AA?$AA@ 004a1418     UseProxyDlg.obj
 0002:0000e430       ??_C@_1EA@MGIMKNLC@?$AAI?$AAD?$AAS?$AA_?$AAH?$AAI?$AAD?$AAE?$AAI?$AAP?$AA_?$AAC?$AAA?$AAN?$AAN?$AAO?$AAT?$AAR?$AAE?$AAA?$AAD?$AAS?$AAY?$AAS?$AAT?$AAE?$AAM?$AAI?$AAN?$AAF?$AAO?$AA?$AA@ 004a1430     UseProxyDlg.obj
 0002:0000e470       ??_C@_1FC@GADNPMHA@?$AAC?$AAu?$AAr?$AAr?$AAe?$AAn?$AAt?$AA?5?$AAP?$AAr?$AAo?$AAx?$AAy?$AA?5?$AAS?$AAt?$AAa?$AAt?$AAe?$AA?3?$AAC?$AAA?$AAN?$AAN?$AAO?$AAT?$AAR?$AAE?$AAA?$AAD?$AAS?$AAY@ 004a1470     UseProxyDlg.obj
 0002:0000e4c8       ??_C@_1HI@LHLAFOEG@?$AAS?$AAo?$AAf?$AAt?$AAw?$AAa?$AAr?$AAe?$AA?2?$AAM?$AAi?$AAc?$AAr?$AAo?$AAs?$AAo?$AAf?$AAt?$AA?2?$AAW?$AAi?$AAn?$AAd?$AAo?$AAw?$AAs?$AA?2?$AAC?$AAu?$AAr?$AAr?$AAe@ 004a14c8     UseProxyDlg.obj
 0002:0000e540       ??_C@_0N@IGHHLLKG@webstatus?4db?$AA@ 004a1540     WebDB.obj
 0002:0000e554       ??_7CWebDB@@6B@            004a1554     WebDB.obj
 0002:0000e558       ??_C@_0M@MJACOJCJ@?2downloads?2?$AA@ 004a1558     WebDB.obj
 0002:0000e564       ??_C@_0M@CJFOCBKJ@?2HideDragon?$AA@ 004a1564     WebDB.obj
 0002:0000e570       ??_C@_0CD@PNIJGCKL@select?5?$CK?5from?5web?5where?5ID?5?$DN?5?8?$CFd@ 004a1570     WebDB.obj
 0002:0000e594       ??_C@_0BF@NHKELMAL@select?5ID?5from?5web?5?$DL?$AA@ 004a1594     WebDB.obj
 0002:0000e5b0       ??_7CWINButton@@6B@        004a15b0     WINButton.obj
 0002:0000e5b4       ??_C@_1BM@LLLLOFKC@?$AAS?$AAe?$AAt?$AAP?$AAr?$AAo?$AAp?$AA?5?$AAE?$AAR?$AAR?$AAO?$AAR?$AA?$AA@ 004a15b4     WINButton.obj
 0002:0000e5d0       ??_C@_1BG@DMLBFHBN@?$AAC?$AAW?$AAI?$AAN?$AAB?$AAU?$AAT?$AAT?$AAO?$AAN?$AA?$AA@ 004a15d0     WINButton.obj
 0002:0000e5e8       ??_C@_1CI@OMKKMAHC@?$AAS?$AAe?$AAl?$AAe?$AAc?$AAt?$AAC?$AAl?$AAi?$AAp?$AAR?$AAg?$AAn?$AA?5?$AAE?$AAR?$AAR?$AAO?$AAR?$AA?$AA@ 004a15e8     WINButton.obj
 0002:0000e610       ??_C@_1BM@PPFEIOMF@?$AAW?$AAM?$AA_?$AAS?$AAY?$AAS?$AAK?$AAE?$AAY?$AAD?$AAO?$AAW?$AAN?$AA?$AA@ 004a1610     WINButton.obj
 0002:0000e62c       ??_C@_1BA@LELNLNHH@?$AAW?$AAM?$AA_?$AAC?$AAH?$AAA?$AAR?$AA?$AA@ 004a162c     WINButton.obj
 0002:0000e63c       ??_C@_1BI@EKBFCLDJ@?$AAW?$AAM?$AA_?$AAD?$AAR?$AAA?$AAW?$AAI?$AAT?$AAE?$AAM?$AA?$AA@ 004a163c     WINButton.obj
 0002:0000e654       ??_C@_1DA@EPMKCHDK@?$AAD?$AAe?$AAl?$AAe?$AAt?$AAe?$AAO?$AAb?$AAj?$AAe?$AAc?$AAt?$AA?$CI?$AAb?$AAm?$AAp?$AA?$CJ?$AA?5?$AAE?$AAR?$AAR?$AAO?$AAR?$AA?$AA@ 004a1654     WINButton.obj
 0002:0000e684       ??_C@_1CO@BJOIFFMP@?$AAD?$AAe?$AAl?$AAe?$AAt?$AAe?$AAD?$AAC?$AA?$CI?$AAh?$AAd?$AAc?$AAM?$AAe?$AAm?$AA?$CJ?$AA?5?$AAE?$AAR?$AAR?$AAO?$AAR?$AA?$AA@ 004a1684     WINButton.obj
 0002:0000e6b4       ??_C@_1CG@KIFPBPLN@?$AAC?$AAr?$AAe?$AAa?$AAt?$AAe?$AA?5?$AAM?$AAe?$AAm?$AAD?$AAc?$AA?5?$AAE?$AAR?$AAR?$AAO?$AAR?$AA?$AA@ 004a16b4     WINButton.obj
 0002:0000e6dc       ??_C@_1CC@BPGCHGJH@?$AAC?$AAo?$AAm?$AAb?$AAi?$AAn?$AAe?$AAR?$AAg?$AAn?$AA?5?$AAE?$AAR?$AAR?$AAO?$AAR?$AA?$AA@ 004a16dc     WINButton.obj
 0002:0000e700       ??_C@_1DC@BLFHOBKM@?$AAC?$AAr?$AAe?$AAa?$AAt?$AAe?$AAR?$AAe?$AAc?$AAt?$AAR?$AAg?$AAn?$AA?5?$AAt?$AAe?$AAm?$AAp?$AA?5?$AAE?$AAR?$AAR?$AAO?$AAR?$AA?$AA@ 004a1700     WINButton.obj
 0002:0000e734       ??_C@_1DG@POIDCOOL@?$AAC?$AAr?$AAe?$AAa?$AAt?$AAe?$AAR?$AAe?$AAc?$AAt?$AAR?$AAg?$AAn?$AA?5?$AAw?$AAn?$AAd?$AAR?$AAg?$AAn?$AA?5?$AAE?$AAR?$AAR?$AAO?$AAR?$AA?$AA@ 004a1734     WINButton.obj
 0002:0000e76c       ??_C@_1CI@MNBJNOGN@?$AAS?$AAe?$AAt?$AA?5?$AAT?$AAo?$AAo?$AAl?$AAT?$AAi?$AAp?$AA?5?$AAA?$AAl?$AAr?$AAe?$AAa?$AAd?$AAy?$AA?$AA@ 004a176c     WINButton.obj
 0002:0000e794       ??_C@_1CM@NIADMBCE@?$AAC?$AAl?$AAe?$AAa?$AAr?$AA?5?$AAT?$AAo?$AAo?$AAl?$AAT?$AAi?$AAp?$AA?5?$AAA?$AAl?$AAr?$AAe?$AAa?$AAd?$AAy?$AA?$AA@ 004a1794     WINButton.obj
 0002:0000e7c0       _CLSID_NetworkDomain       004a17c0     shell32:shguid.obj
 0002:0000e7d0       _CLSID_NetworkServer       004a17d0     shell32:shguid.obj
 0002:0000e7e0       _CLSID_NetworkShare        004a17e0     shell32:shguid.obj
 0002:0000e7f0       _CLSID_MyComputer          004a17f0     shell32:shguid.obj
 0002:0000e800       _CLSID_Internet            004a1800     shell32:shguid.obj
 0002:0000e810       _CLSID_RecycleBin          004a1810     shell32:shguid.obj
 0002:0000e820       _CLSID_ControlPanel        004a1820     shell32:shguid.obj
 0002:0000e830       _CLSID_Printers            004a1830     shell32:shguid.obj
 0002:0000e840       _CLSID_MyDocuments         004a1840     shell32:shguid.obj
 0002:0000e850       _CLSID_PictureVideoLibrary 004a1850     shell32:shguid.obj
 0002:0000e860       _CLSID_MusicLibrary        004a1860     shell32:shguid.obj
 0002:0000e870       _CLSID_DocumentLibrary     004a1870     shell32:shguid.obj
 0002:0000e880       _CATID_BrowsableShellExt   004a1880     shell32:shguid.obj
 0002:0000e890       _CATID_BrowseInPlace       004a1890     shell32:shguid.obj
 0002:0000e8a0       _CATID_DeskBand            004a18a0     shell32:shguid.obj
 0002:0000e8b0       _CATID_InfoBand            004a18b0     shell32:shguid.obj
 0002:0000e8c0       _CATID_CommBand            004a18c0     shell32:shguid.obj
 0002:0000e8d0       _FMTID_Intshcut            004a18d0     shell32:shguid.obj
 0002:0000e8e0       _FMTID_InternetSite        004a18e0     shell32:shguid.obj
 0002:0000e8f0       _CGID_Explorer             004a18f0     shell32:shguid.obj
 0002:0000e900       _CGID_ShellDocView         004a1900     shell32:shguid.obj
 0002:0000e910       _CGID_ShellServiceObject   004a1910     shell32:shguid.obj
 0002:0000e920       _CGID_ExplorerBarDoc       004a1920     shell32:shguid.obj
 0002:0000e930       _IID_INewShortcutHookA     004a1930     shell32:shguid.obj
 0002:0000e940       _IID_IShellBrowser         004a1940     shell32:shguid.obj
 0002:0000e950       _IID_IShellView            004a1950     shell32:shguid.obj
 0002:0000e960       _IID_IContextMenu          004a1960     shell32:shguid.obj
 0002:0000e970       _IID_IShellIcon            004a1970     shell32:shguid.obj
 0002:0000e980       _IID_IShellFolder          004a1980     shell32:shguid.obj
 0002:0000e990       _IID_IShellExtInit         004a1990     shell32:shguid.obj
 0002:0000e9a0       _IID_IShellPropSheetExt    004a19a0     shell32:shguid.obj
 0002:0000e9b0       _IID_IPersistFolder        004a19b0     shell32:shguid.obj
 0002:0000e9c0       _IID_IExtractIconA         004a19c0     shell32:shguid.obj
 0002:0000e9d0       _IID_IShellDetails         004a19d0     shell32:shguid.obj
 0002:0000e9e0       _IID_IShellLinkA           004a19e0     shell32:shguid.obj
 0002:0000e9f0       _IID_ICopyHookA            004a19f0     shell32:shguid.obj
 0002:0000ea00       _IID_IFileViewerA          004a1a00     shell32:shguid.obj
 0002:0000ea10       _IID_ICommDlgBrowser       004a1a10     shell32:shguid.obj
 0002:0000ea20       _IID_IEnumIDList           004a1a20     shell32:shguid.obj
 0002:0000ea30       _IID_IFileViewerSite       004a1a30     shell32:shguid.obj
 0002:0000ea40       _IID_IContextMenu2         004a1a40     shell32:shguid.obj
 0002:0000ea50       _IID_IShellExecuteHookA    004a1a50     shell32:shguid.obj
 0002:0000ea60       _IID_IPropSheetPage        004a1a60     shell32:shguid.obj
 0002:0000ea70       _IID_INewShortcutHookW     004a1a70     shell32:shguid.obj
 0002:0000ea80       _IID_IFileViewerW          004a1a80     shell32:shguid.obj
 0002:0000ea90       _IID_IShellLinkW           004a1a90     shell32:shguid.obj
 0002:0000eaa0       _IID_IExtractIconW         004a1aa0     shell32:shguid.obj
 0002:0000eab0       _IID_IShellExecuteHookW    004a1ab0     shell32:shguid.obj
 0002:0000eac0       _IID_ICopyHookW            004a1ac0     shell32:shguid.obj
 0002:0000ead0       _IID_IRemoteComputer       004a1ad0     shell32:shguid.obj
 0002:0000eae0       _IID_IQueryInfo            004a1ae0     shell32:shguid.obj
 0002:0000eaf0       _IID_IBriefcaseStg         004a1af0     shell32:shguid.obj
 0002:0000eb00       _IID_IShellView2           004a1b00     shell32:shguid.obj
 0002:0000eb10       _IID_IURLSearchHook        004a1b10     shell32:shguid.obj
 0002:0000eb20       _IID_ISearchContext        004a1b20     shell32:shguid.obj
 0002:0000eb30       _IID_IURLSearchHook2       004a1b30     shell32:shguid.obj
 0002:0000eb40       _IID_IDefViewID            004a1b40     shell32:shguid.obj
 0002:0000eb50       _CLSID_FolderShortcut      004a1b50     shell32:shguid.obj
 0002:0000eb60       _IID_IDockingWindowSite    004a1b60     shell32:shguid.obj
 0002:0000eb70       _IID_IDockingWindowFrame   004a1b70     shell32:shguid.obj
 0002:0000eb80       _IID_IShellIconOverlay     004a1b80     shell32:shguid.obj
 0002:0000eb90       _IID_IShellIconOverlayIdentifier 004a1b90     shell32:shguid.obj
 0002:0000eba0       _IID_ICommDlgBrowser2      004a1ba0     shell32:shguid.obj
 0002:0000ebb0       _IID_IShellFolderViewCB    004a1bb0     shell32:shguid.obj
 0002:0000ebc0       _CLSID_CFSIconOverlayManager 004a1bc0     shell32:shguid.obj
 0002:0000ebd0       _IID_IShellIconOverlayManager 004a1bd0     shell32:shguid.obj
 0002:0000ebe0       _IID_IThumbnailCapture     004a1be0     shell32:shguid.obj
 0002:0000ebf0       _IID_IShellImageStore      004a1bf0     shell32:shguid.obj
 0002:0000ec00       _IID_IContextMenu3         004a1c00     shell32:shguid.obj
 0002:0000ec10       _SID_DefView               004a1c10     shell32:shguid.obj
 0002:0000ec20       _CGID_DefView              004a1c20     shell32:shguid.obj
 0002:0000ec30       _CLSID_MenuBand            004a1c30     shell32:shguid.obj
 0002:0000ec40       _IID_IShellFolderBand      004a1c40     shell32:shguid.obj
 0002:0000ec50       _IID_IDefViewFrame         004a1c50     shell32:shguid.obj
 0002:0000ec60       _VID_LargeIcons            004a1c60     shell32:shguid.obj
 0002:0000ec70       _VID_SmallIcons            004a1c70     shell32:shguid.obj
 0002:0000ec80       _VID_List                  004a1c80     shell32:shguid.obj
 0002:0000ec90       _VID_Details               004a1c90     shell32:shguid.obj
 0002:0000eca0       _VID_Tile                  004a1ca0     shell32:shguid.obj
 0002:0000ecb0       _VID_Thumbnails            004a1cb0     shell32:shguid.obj
 0002:0000ecc0       _VID_ThumbStrip            004a1cc0     shell32:shguid.obj
 0002:0000ecd0       _IID_IDiscardableBrowserProperty 004a1cd0     shell32:shguid.obj
 0002:0000ece0       _IID_IShellChangeNotify    004a1ce0     shell32:shguid.obj
 0002:0000ecf0       _CLSID_InternetShortcut    004a1cf0     shell32:shguid.obj
 0002:0000ed00       _IID_IUniformResourceLocatorA 004a1d00     shell32:shguid.obj
 0002:0000ed10       _IID_IUniformResourceLocatorW 004a1d10     shell32:shguid.obj
 0002:0000ed20       _CLSID_CUrlHistory         004a1d20     shell32:shguid.obj
 0002:0000ed30       _CLSID_CURLSearchHook      004a1d30     shell32:shguid.obj
 0002:0000ed40       _IID_IObjMgr               004a1d40     shell32:shguid.obj
 0002:0000ed50       _IID_IACList               004a1d50     shell32:shguid.obj
 0002:0000ed60       _IID_IACList2              004a1d60     shell32:shguid.obj
 0002:0000ed70       _IID_ICurrentWorkingDirectory 004a1d70     shell32:shguid.obj
 0002:0000ed80       _CLSID_AutoComplete        004a1d80     shell32:shguid.obj
 0002:0000ed90       _CLSID_ACLHistory          004a1d90     shell32:shguid.obj
 0002:0000eda0       _CLSID_ACListISF           004a1da0     shell32:shguid.obj
 0002:0000edb0       _CLSID_ACLMRU              004a1db0     shell32:shguid.obj
 0002:0000edc0       _CLSID_ACLMulti            004a1dc0     shell32:shguid.obj
 0002:0000edd0       _CLSID_ACLCustomMRU        004a1dd0     shell32:shguid.obj
 0002:0000ede0       _CLSID_ProgressDialog      004a1de0     shell32:shguid.obj
 0002:0000edf0       _IID_IProgressDialog       004a1df0     shell32:shguid.obj
 0002:0000ee00       _SID_STopLevelBrowser      004a1e00     shell32:shguid.obj
 0002:0000ee10       _CLSID_FileTypes           004a1e10     shell32:shguid.obj
 0002:0000ee20       _CLSID_ActiveDesktop       004a1e20     shell32:shguid.obj
 0002:0000ee30       _IID_IActiveDesktop        004a1e30     shell32:shguid.obj
 0002:0000ee40       _IID_IActiveDesktopP       004a1e40     shell32:shguid.obj
 0002:0000ee50       _IID_IADesktopP2           004a1e50     shell32:shguid.obj
 0002:0000ee60       _IID_ISynchronizedCallBack 004a1e60     shell32:shguid.obj
 0002:0000ee70       _IID_IQueryAssociations    004a1e70     shell32:shguid.obj
 0002:0000ee80       _CLSID_QueryAssociations   004a1e80     shell32:shguid.obj
 0002:0000ee90       _IID_IColumnProvider       004a1e90     shell32:shguid.obj
 0002:0000eea0       _CLSID_LinkColumnProvider  004a1ea0     shell32:shguid.obj
 0002:0000eeb0       _CGID_ShortCut             004a1eb0     shell32:shguid.obj
 0002:0000eec0       _IID_INamedPropertyBag     004a1ec0     shell32:shguid.obj
 0002:0000eed0       _CLSID_InternetButtons     004a1ed0     shell32:shguid.obj
 0002:0000eee0       _CLSID_MSOButtons          004a1ee0     shell32:shguid.obj
 0002:0000eef0       _CLSID_ToolbarExtButtons   004a1ef0     shell32:shguid.obj
 0002:0000ef00       _CLSID_DarwinAppPublisher  004a1f00     shell32:shguid.obj
 0002:0000ef10       _CLSID_DocHostUIHandler    004a1f10     shell32:shguid.obj
 0002:0000ef20       _IID_IShellFolder2         004a1f20     shell32:shguid.obj
 0002:0000ef30       _FMTID_ShellDetails        004a1f30     shell32:shguid.obj
 0002:0000ef40       _FMTID_Storage             004a1f40     shell32:shguid.obj
 0002:0000ef50       _FMTID_ImageProperties     004a1f50     shell32:shguid.obj
 0002:0000ef60       _FMTID_CustomImageProperties 004a1f60     shell32:shguid.obj
 0002:0000ef70       _FMTID_Displaced           004a1f70     shell32:shguid.obj
 0002:0000ef80       _FMTID_Briefcase           004a1f80     shell32:shguid.obj
 0002:0000ef90       _FMTID_Misc                004a1f90     shell32:shguid.obj
 0002:0000efa0       _FMTID_WebView             004a1fa0     shell32:shguid.obj
 0002:0000efb0       _FMTID_MUSIC               004a1fb0     shell32:shguid.obj
 0002:0000efc0       _FMTID_DRM                 004a1fc0     shell32:shguid.obj
 0002:0000efd0       _FMTID_Volume              004a1fd0     shell32:shguid.obj
 0002:0000efe0       _FMTID_Query               004a1fe0     shell32:shguid.obj
 0002:0000eff0       _IID_IEnumExtraSearch      004a1ff0     shell32:shguid.obj
 0002:0000f000       _CLSID_HWShellExecute      004a2000     shell32:shguid.obj
 0002:0000f010       _CLSID_DragDropHelper      004a2010     shell32:shguid.obj
 0002:0000f020       _CLSID_CAnchorBrowsePropertyPage 004a2020     shell32:shguid.obj
 0002:0000f030       _CLSID_CImageBrowsePropertyPage 004a2030     shell32:shguid.obj
 0002:0000f040       _CLSID_CDocBrowsePropertyPage 004a2040     shell32:shguid.obj
 0002:0000f050       _IID_IFileSystemBindData   004a2050     shell32:shguid.obj
 0002:0000f060       _SID_STopWindow            004a2060     shell32:shguid.obj
 0002:0000f070       _SID_SGetViewFromViewDual  004a2070     shell32:shguid.obj
 0002:0000f080       _CLSID_FolderItem          004a2080     shell32:shguid.obj
 0002:0000f090       _CLSID_FolderItemsMultiLevel 004a2090     shell32:shguid.obj
 0002:0000f0a0       _CLSID_NewMenu             004a20a0     shell32:shguid.obj
 0002:0000f0b0       _BHID_SFObject             004a20b0     shell32:shguid.obj
 0002:0000f0c0       _BHID_SFUIObject           004a20c0     shell32:shguid.obj
 0002:0000f0d0       _BHID_SFViewObject         004a20d0     shell32:shguid.obj
 0002:0000f0e0       _BHID_Storage              004a20e0     shell32:shguid.obj
 0002:0000f0f0       _BHID_Stream               004a20f0     shell32:shguid.obj
 0002:0000f100       _BHID_LinkTargetItem       004a2100     shell32:shguid.obj
 0002:0000f110       _BHID_StorageEnum          004a2110     shell32:shguid.obj
 0002:0000f120       _BHID_Transfer             004a2120     shell32:shguid.obj
 0002:0000f130       _BHID_PropertyStore        004a2130     shell32:shguid.obj
 0002:0000f140       _BHID_ThumbnailHandler     004a2140     shell32:shguid.obj
 0002:0000f150       _BHID_EnumItems            004a2150     shell32:shguid.obj
 0002:0000f160       _BHID_DataObject           004a2160     shell32:shguid.obj
 0002:0000f170       _BHID_AssociationArray     004a2170     shell32:shguid.obj
 0002:0000f180       _BHID_Filter               004a2180     shell32:shguid.obj
 0002:0000f190       _SID_CtxQueryAssociations  004a2190     shell32:shguid.obj
 0002:0000f1a0       _IID_IDocViewSite          004a21a0     shell32:shguid.obj
 0002:0000f1b0       _CLSID_QuickLinks          004a21b0     shell32:shguid.obj
 0002:0000f1c0       _CLSID_ISFBand             004a21c0     shell32:shguid.obj
 0002:0000f1d0       _IID_CDefView              004a21d0     shell32:shguid.obj
 0002:0000f1e0       _CLSID_ShellFldSetExt      004a21e0     shell32:shguid.obj
 0002:0000f1f0       _SID_SMenuBandChild        004a21f0     shell32:shguid.obj
 0002:0000f200       _SID_SMenuBandParent       004a2200     shell32:shguid.obj
 0002:0000f210       _SID_SMenuPopup            004a2210     shell32:shguid.obj
 0002:0000f220       _SID_SMenuBandBottomSelected 004a2220     shell32:shguid.obj
 0002:0000f230       _SID_SMenuBandBottom       004a2230     shell32:shguid.obj
 0002:0000f240       _SID_MenuShellFolder       004a2240     shell32:shguid.obj
 0002:0000f250       _SID_SMenuBandContextMenuModifier 004a2250     shell32:shguid.obj
 0002:0000f260       _SID_SMenuBandBKContextMenu 004a2260     shell32:shguid.obj
 0002:0000f270       _CGID_MENUDESKBAR          004a2270     shell32:shguid.obj
 0002:0000f280       _SID_SMenuBandTop          004a2280     shell32:shguid.obj
 0002:0000f290       _CLSID_MenuToolbarBase     004a2290     shell32:shguid.obj
 0002:0000f2a0       _IID_IBanneredBar          004a22a0     shell32:shguid.obj
 0002:0000f2b0       _CLSID_MenuBandSite        004a22b0     shell32:shguid.obj
 0002:0000f2c0       _SID_SCommDlgBrowser       004a22c0     shell32:shguid.obj
 0002:0000f2d0       _CPFG_LOGON_USERNAME       004a22d0     shell32:shguid.obj
 0002:0000f2e0       _CPFG_LOGON_PASSWORD       004a22e0     shell32:shguid.obj
 0002:0000f2f0       _CPFG_SMARTCARD_USERNAME   004a22f0     shell32:shguid.obj
 0002:0000f300       _CPFG_SMARTCARD_PIN        004a2300     shell32:shguid.obj
 0002:0000f310       _FOLDERID_NetworkFolder    004a2310     shell32:shguid.obj
 0002:0000f320       _FOLDERID_ComputerFolder   004a2320     shell32:shguid.obj
 0002:0000f330       _FOLDERID_InternetFolder   004a2330     shell32:shguid.obj
 0002:0000f340       _FOLDERID_ControlPanelFolder 004a2340     shell32:shguid.obj
 0002:0000f350       _FOLDERID_PrintersFolder   004a2350     shell32:shguid.obj
 0002:0000f360       _FOLDERID_SyncManagerFolder 004a2360     shell32:shguid.obj
 0002:0000f370       _FOLDERID_SyncSetupFolder  004a2370     shell32:shguid.obj
 0002:0000f380       _FOLDERID_ConflictFolder   004a2380     shell32:shguid.obj
 0002:0000f390       _FOLDERID_SyncResultsFolder 004a2390     shell32:shguid.obj
 0002:0000f3a0       _FOLDERID_RecycleBinFolder 004a23a0     shell32:shguid.obj
 0002:0000f3b0       _FOLDERID_ConnectionsFolder 004a23b0     shell32:shguid.obj
 0002:0000f3c0       _FOLDERID_Fonts            004a23c0     shell32:shguid.obj
 0002:0000f3d0       _FOLDERID_Desktop          004a23d0     shell32:shguid.obj
 0002:0000f3e0       _FOLDERID_Startup          004a23e0     shell32:shguid.obj
 0002:0000f3f0       _FOLDERID_Programs         004a23f0     shell32:shguid.obj
 0002:0000f400       _FOLDERID_StartMenu        004a2400     shell32:shguid.obj
 0002:0000f410       _FOLDERID_Recent           004a2410     shell32:shguid.obj
 0002:0000f420       _FOLDERID_SendTo           004a2420     shell32:shguid.obj
 0002:0000f430       _FOLDERID_Documents        004a2430     shell32:shguid.obj
 0002:0000f440       _FOLDERID_Favorites        004a2440     shell32:shguid.obj
 0002:0000f450       _FOLDERID_NetHood          004a2450     shell32:shguid.obj
 0002:0000f460       _FOLDERID_PrintHood        004a2460     shell32:shguid.obj
 0002:0000f470       _FOLDERID_Templates        004a2470     shell32:shguid.obj
 0002:0000f480       _FOLDERID_CommonStartup    004a2480     shell32:shguid.obj
 0002:0000f490       _FOLDERID_CommonPrograms   004a2490     shell32:shguid.obj
 0002:0000f4a0       _FOLDERID_CommonStartMenu  004a24a0     shell32:shguid.obj
 0002:0000f4b0       _FOLDERID_PublicDesktop    004a24b0     shell32:shguid.obj
 0002:0000f4c0       _FOLDERID_ProgramData      004a24c0     shell32:shguid.obj
 0002:0000f4d0       _FOLDERID_CommonTemplates  004a24d0     shell32:shguid.obj
 0002:0000f4e0       _FOLDERID_PublicDocuments  004a24e0     shell32:shguid.obj
 0002:0000f4f0       _FOLDERID_RoamingAppData   004a24f0     shell32:shguid.obj
 0002:0000f500       _FOLDERID_LocalAppData     004a2500     shell32:shguid.obj
 0002:0000f510       _FOLDERID_LocalAppDataLow  004a2510     shell32:shguid.obj
 0002:0000f520       _FOLDERID_InternetCache    004a2520     shell32:shguid.obj
 0002:0000f530       _FOLDERID_Cookies          004a2530     shell32:shguid.obj
 0002:0000f540       _FOLDERID_History          004a2540     shell32:shguid.obj
 0002:0000f550       _FOLDERID_System           004a2550     shell32:shguid.obj
 0002:0000f560       _FOLDERID_SystemX86        004a2560     shell32:shguid.obj
 0002:0000f570       _FOLDERID_Windows          004a2570     shell32:shguid.obj
 0002:0000f580       _FOLDERID_Profile          004a2580     shell32:shguid.obj
 0002:0000f590       _FOLDERID_Pictures         004a2590     shell32:shguid.obj
 0002:0000f5a0       _FOLDERID_ProgramFilesX86  004a25a0     shell32:shguid.obj
 0002:0000f5b0       _FOLDERID_ProgramFilesCommonX86 004a25b0     shell32:shguid.obj
 0002:0000f5c0       _FOLDERID_ProgramFilesX64  004a25c0     shell32:shguid.obj
 0002:0000f5d0       _FOLDERID_ProgramFilesCommonX64 004a25d0     shell32:shguid.obj
 0002:0000f5e0       _FOLDERID_ProgramFiles     004a25e0     shell32:shguid.obj
 0002:0000f5f0       _FOLDERID_ProgramFilesCommon 004a25f0     shell32:shguid.obj
 0002:0000f600       _FOLDERID_AdminTools       004a2600     shell32:shguid.obj
 0002:0000f610       _FOLDERID_CommonAdminTools 004a2610     shell32:shguid.obj
 0002:0000f620       _FOLDERID_Music            004a2620     shell32:shguid.obj
 0002:0000f630       _FOLDERID_Videos           004a2630     shell32:shguid.obj
 0002:0000f640       _FOLDERID_PublicPictures   004a2640     shell32:shguid.obj
 0002:0000f650       _FOLDERID_PublicMusic      004a2650     shell32:shguid.obj
 0002:0000f660       _FOLDERID_PublicVideos     004a2660     shell32:shguid.obj
 0002:0000f670       _FOLDERID_ResourceDir      004a2670     shell32:shguid.obj
 0002:0000f680       _FOLDERID_LocalizedResourcesDir 004a2680     shell32:shguid.obj
 0002:0000f690       _FOLDERID_CommonOEMLinks   004a2690     shell32:shguid.obj
 0002:0000f6a0       _FOLDERID_CDBurning        004a26a0     shell32:shguid.obj
 0002:0000f6b0       _FOLDERID_UserProfiles     004a26b0     shell32:shguid.obj
 0002:0000f6c0       _FOLDERID_Playlists        004a26c0     shell32:shguid.obj
 0002:0000f6d0       _FOLDERID_SamplePlaylists  004a26d0     shell32:shguid.obj
 0002:0000f6e0       _FOLDERID_SampleMusic      004a26e0     shell32:shguid.obj
 0002:0000f6f0       _FOLDERID_SamplePictures   004a26f0     shell32:shguid.obj
 0002:0000f700       _FOLDERID_SampleVideos     004a2700     shell32:shguid.obj
 0002:0000f710       _FOLDERID_PhotoAlbums      004a2710     shell32:shguid.obj
 0002:0000f720       _FOLDERID_Public           004a2720     shell32:shguid.obj
 0002:0000f730       _FOLDERID_ChangeRemovePrograms 004a2730     shell32:shguid.obj
 0002:0000f740       _FOLDERID_AppUpdates       004a2740     shell32:shguid.obj
 0002:0000f750       _FOLDERID_AddNewPrograms   004a2750     shell32:shguid.obj
 0002:0000f760       _FOLDERID_Downloads        004a2760     shell32:shguid.obj
 0002:0000f770       _FOLDERID_PublicDownloads  004a2770     shell32:shguid.obj
 0002:0000f780       _FOLDERID_SavedSearches    004a2780     shell32:shguid.obj
 0002:0000f790       _FOLDERID_QuickLaunch      004a2790     shell32:shguid.obj
 0002:0000f7a0       _FOLDERID_Contacts         004a27a0     shell32:shguid.obj
 0002:0000f7b0       _FOLDERID_SidebarParts     004a27b0     shell32:shguid.obj
 0002:0000f7c0       _FOLDERID_SidebarDefaultParts 004a27c0     shell32:shguid.obj
 0002:0000f7d0       _FOLDERID_TreeProperties   004a27d0     shell32:shguid.obj
 0002:0000f7e0       _FOLDERID_PublicGameTasks  004a27e0     shell32:shguid.obj
 0002:0000f7f0       _FOLDERID_GameTasks        004a27f0     shell32:shguid.obj
 0002:0000f800       _FOLDERID_SavedGames       004a2800     shell32:shguid.obj
 0002:0000f810       _FOLDERID_Games            004a2810     shell32:shguid.obj
 0002:0000f820       _FOLDERID_RecordedTV       004a2820     shell32:shguid.obj
 0002:0000f830       _FOLDERID_SEARCH_MAPI      004a2830     shell32:shguid.obj
 0002:0000f840       _FOLDERID_SEARCH_CSC       004a2840     shell32:shguid.obj
 0002:0000f850       _FOLDERID_Links            004a2850     shell32:shguid.obj
 0002:0000f860       _FOLDERID_UsersFiles       004a2860     shell32:shguid.obj
 0002:0000f870       _FOLDERID_SearchHome       004a2870     shell32:shguid.obj
 0002:0000f880       _FOLDERID_OriginalImages   004a2880     shell32:shguid.obj
 0002:0000f890       _FOLDERTYPEID_NotSpecified 004a2890     shell32:shguid.obj
 0002:0000f8a0       _FOLDERTYPEID_Invalid      004a28a0     shell32:shguid.obj
 0002:0000f8b0       _FOLDERTYPEID_Documents    004a28b0     shell32:shguid.obj
 0002:0000f8c0       _FOLDERTYPEID_Pictures     004a28c0     shell32:shguid.obj
 0002:0000f8d0       _FOLDERTYPEID_MusicDetails 004a28d0     shell32:shguid.obj
 0002:0000f8e0       _FOLDERTYPEID_MusicIcons   004a28e0     shell32:shguid.obj
 0002:0000f8f0       _FOLDERTYPEID_Games        004a28f0     shell32:shguid.obj
 0002:0000f900       _FOLDERTYPEID_ControlPanelCategory 004a2900     shell32:shguid.obj
 0002:0000f910       _FOLDERTYPEID_ControlPanelClassic 004a2910     shell32:shguid.obj
 0002:0000f920       _FOLDERTYPEID_Printers     004a2920     shell32:shguid.obj
 0002:0000f930       _FOLDERTYPEID_RecycleBin   004a2930     shell32:shguid.obj
 0002:0000f940       _FOLDERTYPEID_SoftwareExplorer 004a2940     shell32:shguid.obj
 0002:0000f950       _FOLDERTYPEID_CompressedFolder 004a2950     shell32:shguid.obj
 0002:0000f960       _FOLDERTYPEID_Contacts     004a2960     shell32:shguid.obj
 0002:0000f970       _FOLDERTYPEID_Library      004a2970     shell32:shguid.obj
 0002:0000f980       _FOLDERTYPEID_NetworkExplorer 004a2980     shell32:shguid.obj
 0002:0000f990       _FOLDERTYPEID_UserFiles    004a2990     shell32:shguid.obj
 0002:0000f9a0       _SYNCMGR_OBJECTID_Icon     004a29a0     shell32:shguid.obj
 0002:0000f9b0       _SYNCMGR_OBJECTID_EventStore 004a29b0     shell32:shguid.obj
 0002:0000f9c0       _SYNCMGR_OBJECTID_ConflictStore 004a29c0     shell32:shguid.obj
 0002:0000f9d0       _SYNCMGR_OBJECTID_BrowseContent 004a29d0     shell32:shguid.obj
 0002:0000f9e0       _SYNCMGR_OBJECTID_ShowSchedule 004a29e0     shell32:shguid.obj
 0002:0000f9f0       _SYNCMGR_OBJECTID_QueryBeforeActivate 004a29f0     shell32:shguid.obj
 0002:0000fa00       _SYNCMGR_OBJECTID_QueryBeforeDeactivate 004a2a00     shell32:shguid.obj
 0002:0000fa10       _SYNCMGR_OBJECTID_QueryBeforeEnable 004a2a10     shell32:shguid.obj
 0002:0000fa20       _SYNCMGR_OBJECTID_QueryBeforeDisable 004a2a20     shell32:shguid.obj
 0002:0000fa30       _SYNCMGR_OBJECTID_QueryBeforeDelete 004a2a30     shell32:shguid.obj
 0002:0000fa40       _SYNCMGR_OBJECTID_EventLinkClick 004a2a40     shell32:shguid.obj
 0002:0000fa50       _EP_NavPane                004a2a50     shell32:shguid.obj
 0002:0000fa60       _EP_Commands               004a2a60     shell32:shguid.obj
 0002:0000fa70       _EP_Commands_Organize      004a2a70     shell32:shguid.obj
 0002:0000fa80       _EP_Commands_View          004a2a80     shell32:shguid.obj
 0002:0000fa90       _EP_DetailsPane            004a2a90     shell32:shguid.obj
 0002:0000faa0       _EP_PreviewPane            004a2aa0     shell32:shguid.obj
 0002:0000fab0       _EP_QueryPane              004a2ab0     shell32:shguid.obj
 0002:0000fac0       _EP_AdvQueryPane           004a2ac0     shell32:shguid.obj
 0002:0000fad0       _IID_IEnumSTATURL          004a2ad0     uuid:urlhist_i.obj
 0002:0000fae0       _IID_IUrlHistoryStg        004a2ae0     uuid:urlhist_i.obj
 0002:0000faf0       _IID_IUrlHistoryStg2       004a2af0     uuid:urlhist_i.obj
 0002:0000fb00       _IID_IUrlHistoryNotify     004a2b00     uuid:urlhist_i.obj
 0002:0000fb10       _IID_IOleAdviseHolder      004a2b10     uuid:oleidl_i.obj
 0002:0000fb20       _IID_IOleCache             004a2b20     uuid:oleidl_i.obj
 0002:0000fb30       _IID_IOleCache2            004a2b30     uuid:oleidl_i.obj
 0002:0000fb40       _IID_IOleCacheControl      004a2b40     uuid:oleidl_i.obj
 0002:0000fb50       _IID_IParseDisplayName     004a2b50     uuid:oleidl_i.obj
 0002:0000fb60       _IID_IOleContainer         004a2b60     uuid:oleidl_i.obj
 0002:0000fb70       _IID_IOleClientSite        004a2b70     uuid:oleidl_i.obj
 0002:0000fb80       _IID_IOleObject            004a2b80     uuid:oleidl_i.obj
 0002:0000fb90       _IID_IOleWindow            004a2b90     uuid:oleidl_i.obj
 0002:0000fba0       _IID_IOleLink              004a2ba0     uuid:oleidl_i.obj
 0002:0000fbb0       _IID_IOleItemContainer     004a2bb0     uuid:oleidl_i.obj
 0002:0000fbc0       _IID_IOleInPlaceUIWindow   004a2bc0     uuid:oleidl_i.obj
 0002:0000fbd0       _IID_IOleInPlaceActiveObject 004a2bd0     uuid:oleidl_i.obj
 0002:0000fbe0       _IID_IOleInPlaceFrame      004a2be0     uuid:oleidl_i.obj
 0002:0000fbf0       _IID_IOleInPlaceObject     004a2bf0     uuid:oleidl_i.obj
 0002:0000fc00       _IID_IOleInPlaceSite       004a2c00     uuid:oleidl_i.obj
 0002:0000fc10       _IID_IContinue             004a2c10     uuid:oleidl_i.obj
 0002:0000fc20       _IID_IViewObject           004a2c20     uuid:oleidl_i.obj
 0002:0000fc30       _IID_IViewObject2          004a2c30     uuid:oleidl_i.obj
 0002:0000fc40       _IID_IDropSource           004a2c40     uuid:oleidl_i.obj
 0002:0000fc50       _IID_IDropTarget           004a2c50     uuid:oleidl_i.obj
 0002:0000fc60       _IID_IDropSourceNotify     004a2c60     uuid:oleidl_i.obj
 0002:0000fc70       _IID_IEnumOLEVERB          004a2c70     uuid:oleidl_i.obj
 0002:0000fc80       _IID_IUnknown              004a2c80     uuid:unknwn_i.obj
 0002:0000fc90       _IID_AsyncIUnknown         004a2c90     uuid:unknwn_i.obj
 0002:0000fca0       _IID_IClassFactory         004a2ca0     uuid:unknwn_i.obj
 0002:0000fcb0       _IID_IHTMLFiltersCollection 004a2cb0     uuid:mshtml_i.obj
 0002:0000fcc0       _LIBID_MSHTML              004a2cc0     uuid:mshtml_i.obj
 0002:0000fcd0       _IID_IHTMLEventObj         004a2cd0     uuid:mshtml_i.obj
 0002:0000fce0       _IID_IElementBehaviorSite  004a2ce0     uuid:mshtml_i.obj
 0002:0000fcf0       _IID_IElementBehavior      004a2cf0     uuid:mshtml_i.obj
 0002:0000fd00       _IID_IElementBehaviorFactory 004a2d00     uuid:mshtml_i.obj
 0002:0000fd10       _IID_IElementBehaviorSiteOM 004a2d10     uuid:mshtml_i.obj
 0002:0000fd20       _IID_IElementBehaviorRender 004a2d20     uuid:mshtml_i.obj
 0002:0000fd30       _IID_IElementBehaviorSiteRender 004a2d30     uuid:mshtml_i.obj
 0002:0000fd40       _IID_IHTMLStyle            004a2d40     uuid:mshtml_i.obj
 0002:0000fd50       _IID_IHTMLStyle2           004a2d50     uuid:mshtml_i.obj
 0002:0000fd60       _IID_IHTMLStyle3           004a2d60     uuid:mshtml_i.obj
 0002:0000fd70       _IID_IHTMLStyle4           004a2d70     uuid:mshtml_i.obj
 0002:0000fd80       _IID_IHTMLStyle5           004a2d80     uuid:mshtml_i.obj
 0002:0000fd90       _IID_IHTMLRuleStyle        004a2d90     uuid:mshtml_i.obj
 0002:0000fda0       _IID_IHTMLRuleStyle2       004a2da0     uuid:mshtml_i.obj
 0002:0000fdb0       _IID_IHTMLRuleStyle3       004a2db0     uuid:mshtml_i.obj
 0002:0000fdc0       _IID_IHTMLRuleStyle4       004a2dc0     uuid:mshtml_i.obj
 0002:0000fdd0       _IID_IHTMLRuleStyle5       004a2dd0     uuid:mshtml_i.obj
 0002:0000fde0       _DIID_DispHTMLStyle        004a2de0     uuid:mshtml_i.obj
 0002:0000fdf0       _CLSID_HTMLStyle           004a2df0     uuid:mshtml_i.obj
 0002:0000fe00       _DIID_DispHTMLRuleStyle    004a2e00     uuid:mshtml_i.obj
 0002:0000fe10       _CLSID_HTMLRuleStyle       004a2e10     uuid:mshtml_i.obj
 0002:0000fe20       _IID_IHTMLRenderStyle      004a2e20     uuid:mshtml_i.obj
 0002:0000fe30       _DIID_DispHTMLRenderStyle  004a2e30     uuid:mshtml_i.obj
 0002:0000fe40       _CLSID_HTMLRenderStyle     004a2e40     uuid:mshtml_i.obj
 0002:0000fe50       _IID_IHTMLCurrentStyle     004a2e50     uuid:mshtml_i.obj
 0002:0000fe60       _IID_IHTMLCurrentStyle2    004a2e60     uuid:mshtml_i.obj
 0002:0000fe70       _IID_IHTMLCurrentStyle3    004a2e70     uuid:mshtml_i.obj
 0002:0000fe80       _IID_IHTMLCurrentStyle4    004a2e80     uuid:mshtml_i.obj
 0002:0000fe90       _DIID_DispHTMLCurrentStyle 004a2e90     uuid:mshtml_i.obj
 0002:0000fea0       _CLSID_HTMLCurrentStyle    004a2ea0     uuid:mshtml_i.obj
 0002:0000feb0       _IID_IHTMLElement          004a2eb0     uuid:mshtml_i.obj
 0002:0000fec0       _IID_IHTMLRect             004a2ec0     uuid:mshtml_i.obj
 0002:0000fed0       _IID_IHTMLRectCollection   004a2ed0     uuid:mshtml_i.obj
 0002:0000fee0       _IID_IHTMLDOMNode          004a2ee0     uuid:mshtml_i.obj
 0002:0000fef0       _IID_IHTMLDOMNode2         004a2ef0     uuid:mshtml_i.obj
 0002:0000ff00       _IID_IHTMLDOMAttribute     004a2f00     uuid:mshtml_i.obj
 0002:0000ff10       _IID_IHTMLDOMAttribute2    004a2f10     uuid:mshtml_i.obj
 0002:0000ff20       _IID_IHTMLDOMTextNode      004a2f20     uuid:mshtml_i.obj
 0002:0000ff30       _IID_IHTMLDOMTextNode2     004a2f30     uuid:mshtml_i.obj
 0002:0000ff40       _IID_IHTMLDOMImplementation 004a2f40     uuid:mshtml_i.obj
 0002:0000ff50       _DIID_DispHTMLDOMAttribute 004a2f50     uuid:mshtml_i.obj
 0002:0000ff60       _CLSID_HTMLDOMAttribute    004a2f60     uuid:mshtml_i.obj
 0002:0000ff70       _DIID_DispHTMLDOMTextNode  004a2f70     uuid:mshtml_i.obj
 0002:0000ff80       _CLSID_HTMLDOMTextNode     004a2f80     uuid:mshtml_i.obj
 0002:0000ff90       _DIID_DispHTMLDOMImplementation 004a2f90     uuid:mshtml_i.obj
 0002:0000ffa0       _CLSID_HTMLDOMImplementation 004a2fa0     uuid:mshtml_i.obj
 0002:0000ffb0       _IID_IHTMLAttributeCollection 004a2fb0     uuid:mshtml_i.obj
 0002:0000ffc0       _IID_IHTMLAttributeCollection2 004a2fc0     uuid:mshtml_i.obj
 0002:0000ffd0       _IID_IHTMLDOMChildrenCollection 004a2fd0     uuid:mshtml_i.obj
 0002:0000ffe0       _DIID_DispHTMLAttributeCollection 004a2fe0     uuid:mshtml_i.obj
 0002:0000fff0       _CLSID_HTMLAttributeCollection 004a2ff0     uuid:mshtml_i.obj
 0002:00010000       _DIID_DispDOMChildrenCollection 004a3000     uuid:mshtml_i.obj
 0002:00010010       _CLSID_DOMChildrenCollection 004a3010     uuid:mshtml_i.obj
 0002:00010020       _DIID_HTMLElementEvents2   004a3020     uuid:mshtml_i.obj
 0002:00010030       _DIID_HTMLElementEvents    004a3030     uuid:mshtml_i.obj
 0002:00010040       _IID_IHTMLElementCollection 004a3040     uuid:mshtml_i.obj
 0002:00010050       _IID_IHTMLElement2         004a3050     uuid:mshtml_i.obj
 0002:00010060       _IID_IHTMLElement3         004a3060     uuid:mshtml_i.obj
 0002:00010070       _IID_IHTMLElement4         004a3070     uuid:mshtml_i.obj
 0002:00010080       _IID_IHTMLElementRender    004a3080     uuid:mshtml_i.obj
 0002:00010090       _IID_IHTMLUniqueName       004a3090     uuid:mshtml_i.obj
 0002:000100a0       _IID_IHTMLDatabinding      004a30a0     uuid:mshtml_i.obj
 0002:000100b0       _IID_IHTMLDocument         004a30b0     uuid:mshtml_i.obj
 0002:000100c0       _IID_IHTMLElementDefaults  004a30c0     uuid:mshtml_i.obj
 0002:000100d0       _DIID_DispHTMLDefaults     004a30d0     uuid:mshtml_i.obj
 0002:000100e0       _CLSID_HTMLDefaults        004a30e0     uuid:mshtml_i.obj
 0002:000100f0       _IID_IHTCDefaultDispatch   004a30f0     uuid:mshtml_i.obj
 0002:00010100       _IID_IHTCPropertyBehavior  004a3100     uuid:mshtml_i.obj
 0002:00010110       _IID_IHTCMethodBehavior    004a3110     uuid:mshtml_i.obj
 0002:00010120       _IID_IHTCEventBehavior     004a3120     uuid:mshtml_i.obj
 0002:00010130       _IID_IHTCAttachBehavior    004a3130     uuid:mshtml_i.obj
 0002:00010140       _IID_IHTCAttachBehavior2   004a3140     uuid:mshtml_i.obj
 0002:00010150       _IID_IHTCDescBehavior      004a3150     uuid:mshtml_i.obj
 0002:00010160       _DIID_DispHTCDefaultDispatch 004a3160     uuid:mshtml_i.obj
 0002:00010170       _CLSID_HTCDefaultDispatch  004a3170     uuid:mshtml_i.obj
 0002:00010180       _DIID_DispHTCPropertyBehavior 004a3180     uuid:mshtml_i.obj
 0002:00010190       _CLSID_HTCPropertyBehavior 004a3190     uuid:mshtml_i.obj
 0002:000101a0       _DIID_DispHTCMethodBehavior 004a31a0     uuid:mshtml_i.obj
 0002:000101b0       _CLSID_HTCMethodBehavior   004a31b0     uuid:mshtml_i.obj
 0002:000101c0       _DIID_DispHTCEventBehavior 004a31c0     uuid:mshtml_i.obj
 0002:000101d0       _CLSID_HTCEventBehavior    004a31d0     uuid:mshtml_i.obj
 0002:000101e0       _DIID_DispHTCAttachBehavior 004a31e0     uuid:mshtml_i.obj
 0002:000101f0       _CLSID_HTCAttachBehavior   004a31f0     uuid:mshtml_i.obj
 0002:00010200       _DIID_DispHTCDescBehavior  004a3200     uuid:mshtml_i.obj
 0002:00010210       _CLSID_HTCDescBehavior     004a3210     uuid:mshtml_i.obj
 0002:00010220       _IID_IHTMLUrnCollection    004a3220     uuid:mshtml_i.obj
 0002:00010230       _CLSID_HTMLUrnCollection   004a3230     uuid:mshtml_i.obj
 0002:00010240       _IID_IHTMLGenericElement   004a3240     uuid:mshtml_i.obj
 0002:00010250       _DIID_DispHTMLGenericElement 004a3250     uuid:mshtml_i.obj
 0002:00010260       _CLSID_HTMLGenericElement  004a3260     uuid:mshtml_i.obj
 0002:00010270       _IID_IHTMLStyleSheetRule   004a3270     uuid:mshtml_i.obj
 0002:00010280       _IID_IHTMLStyleSheetRulesCollection 004a3280     uuid:mshtml_i.obj
 0002:00010290       _CLSID_HTMLStyleSheetRule  004a3290     uuid:mshtml_i.obj
 0002:000102a0       _CLSID_HTMLStyleSheetRulesCollection 004a32a0     uuid:mshtml_i.obj
 0002:000102b0       _IID_IHTMLStyleSheetPage   004a32b0     uuid:mshtml_i.obj
 0002:000102c0       _IID_IHTMLStyleSheetPagesCollection 004a32c0     uuid:mshtml_i.obj
 0002:000102d0       _CLSID_HTMLStyleSheetPage  004a32d0     uuid:mshtml_i.obj
 0002:000102e0       _CLSID_HTMLStyleSheetPagesCollection 004a32e0     uuid:mshtml_i.obj
 0002:000102f0       _IID_IHTMLStyleSheetsCollection 004a32f0     uuid:mshtml_i.obj
 0002:00010300       _IID_IHTMLStyleSheet       004a3300     uuid:mshtml_i.obj
 0002:00010310       _IID_IHTMLStyleSheet2      004a3310     uuid:mshtml_i.obj
 0002:00010320       _DIID_DispHTMLStyleSheet   004a3320     uuid:mshtml_i.obj
 0002:00010330       _CLSID_HTMLStyleSheet      004a3330     uuid:mshtml_i.obj
 0002:00010340       _CLSID_HTMLStyleSheetsCollection 004a3340     uuid:mshtml_i.obj
 0002:00010350       _DIID_HTMLLinkElementEvents2 004a3350     uuid:mshtml_i.obj
 0002:00010360       _DIID_HTMLLinkElementEvents 004a3360     uuid:mshtml_i.obj
 0002:00010370       _IID_IHTMLLinkElement      004a3370     uuid:mshtml_i.obj
 0002:00010380       _IID_IHTMLLinkElement2     004a3380     uuid:mshtml_i.obj
 0002:00010390       _IID_IHTMLLinkElement3     004a3390     uuid:mshtml_i.obj
 0002:000103a0       _DIID_DispHTMLLinkElement  004a33a0     uuid:mshtml_i.obj
 0002:000103b0       _CLSID_HTMLLinkElement     004a33b0     uuid:mshtml_i.obj
 0002:000103c0       _IID_IHTMLTxtRange         004a33c0     uuid:mshtml_i.obj
 0002:000103d0       _IID_IHTMLTextRangeMetrics 004a33d0     uuid:mshtml_i.obj
 0002:000103e0       _IID_IHTMLTextRangeMetrics2 004a33e0     uuid:mshtml_i.obj
 0002:000103f0       _IID_IHTMLTxtRangeCollection 004a33f0     uuid:mshtml_i.obj
 0002:00010400       _DIID_HTMLFormElementEvents2 004a3400     uuid:mshtml_i.obj
 0002:00010410       _DIID_HTMLFormElementEvents 004a3410     uuid:mshtml_i.obj
 0002:00010420       _IID_IHTMLFormElement      004a3420     uuid:mshtml_i.obj
 0002:00010430       _IID_IHTMLFormElement2     004a3430     uuid:mshtml_i.obj
 0002:00010440       _IID_IHTMLFormElement3     004a3440     uuid:mshtml_i.obj
 0002:00010450       _IID_IHTMLSubmitData       004a3450     uuid:mshtml_i.obj
 0002:00010460       _DIID_DispHTMLFormElement  004a3460     uuid:mshtml_i.obj
 0002:00010470       _CLSID_HTMLFormElement     004a3470     uuid:mshtml_i.obj
 0002:00010480       _DIID_HTMLControlElementEvents2 004a3480     uuid:mshtml_i.obj
 0002:00010490       _DIID_HTMLControlElementEvents 004a3490     uuid:mshtml_i.obj
 0002:000104a0       _IID_IHTMLControlElement   004a34a0     uuid:mshtml_i.obj
 0002:000104b0       _IID_IHTMLTextElement      004a34b0     uuid:mshtml_i.obj
 0002:000104c0       _DIID_DispHTMLTextElement  004a34c0     uuid:mshtml_i.obj
 0002:000104d0       _CLSID_HTMLTextElement     004a34d0     uuid:mshtml_i.obj
 0002:000104e0       _DIID_HTMLTextContainerEvents2 004a34e0     uuid:mshtml_i.obj
 0002:000104f0       _DIID_HTMLTextContainerEvents 004a34f0     uuid:mshtml_i.obj
 0002:00010500       _IID_IHTMLTextContainer    004a3500     uuid:mshtml_i.obj
 0002:00010510       _IID_IHTMLControlRange     004a3510     uuid:mshtml_i.obj
 0002:00010520       _IID_IHTMLControlRange2    004a3520     uuid:mshtml_i.obj
 0002:00010530       _DIID_HTMLImgEvents2       004a3530     uuid:mshtml_i.obj
 0002:00010540       _DIID_HTMLImgEvents        004a3540     uuid:mshtml_i.obj
 0002:00010550       _IID_IHTMLImgElement       004a3550     uuid:mshtml_i.obj
 0002:00010560       _IID_IHTMLImgElement2      004a3560     uuid:mshtml_i.obj
 0002:00010570       _IID_IHTMLImageElementFactory 004a3570     uuid:mshtml_i.obj
 0002:00010580       _DIID_DispHTMLImg          004a3580     uuid:mshtml_i.obj
 0002:00010590       _CLSID_HTMLImg             004a3590     uuid:mshtml_i.obj
 0002:000105a0       _CLSID_HTMLImageElementFactory 004a35a0     uuid:mshtml_i.obj
 0002:000105b0       _IID_IHTMLXMLHttpRequest   004a35b0     uuid:mshtml_i.obj
 0002:000105c0       _IID_IHTMLXMLHttpRequestFactory 004a35c0     uuid:mshtml_i.obj
 0002:000105d0       _DIID_DispHTMLXMLHttpRequest 004a35d0     uuid:mshtml_i.obj
 0002:000105e0       _CLSID_HTMLXMLHttpRequest  004a35e0     uuid:mshtml_i.obj
 0002:000105f0       _CLSID_HTMLXMLHttpRequestFactory 004a35f0     uuid:mshtml_i.obj
 0002:00010600       _IID_IHTMLBodyElement      004a3600     uuid:mshtml_i.obj
 0002:00010610       _IID_IHTMLBodyElement2     004a3610     uuid:mshtml_i.obj
 0002:00010620       _DIID_DispHTMLBody         004a3620     uuid:mshtml_i.obj
 0002:00010630       _CLSID_HTMLBody            004a3630     uuid:mshtml_i.obj
 0002:00010640       _IID_IHTMLFontElement      004a3640     uuid:mshtml_i.obj
 0002:00010650       _DIID_DispHTMLFontElement  004a3650     uuid:mshtml_i.obj
 0002:00010660       _CLSID_HTMLFontElement     004a3660     uuid:mshtml_i.obj
 0002:00010670       _DIID_HTMLAnchorEvents2    004a3670     uuid:mshtml_i.obj
 0002:00010680       _DIID_HTMLAnchorEvents     004a3680     uuid:mshtml_i.obj
 0002:00010690       _IID_IHTMLAnchorElement    004a3690     uuid:mshtml_i.obj
 0002:000106a0       _IID_IHTMLAnchorElement2   004a36a0     uuid:mshtml_i.obj
 0002:000106b0       _DIID_DispHTMLAnchorElement 004a36b0     uuid:mshtml_i.obj
 0002:000106c0       _CLSID_HTMLAnchorElement   004a36c0     uuid:mshtml_i.obj
 0002:000106d0       _DIID_HTMLLabelEvents2     004a36d0     uuid:mshtml_i.obj
 0002:000106e0       _DIID_HTMLLabelEvents      004a36e0     uuid:mshtml_i.obj
 0002:000106f0       _IID_IHTMLLabelElement     004a36f0     uuid:mshtml_i.obj
 0002:00010700       _IID_IHTMLLabelElement2    004a3700     uuid:mshtml_i.obj
 0002:00010710       _DIID_DispHTMLLabelElement 004a3710     uuid:mshtml_i.obj
 0002:00010720       _CLSID_HTMLLabelElement    004a3720     uuid:mshtml_i.obj
 0002:00010730       _IID_IHTMLListElement      004a3730     uuid:mshtml_i.obj
 0002:00010740       _IID_IHTMLListElement2     004a3740     uuid:mshtml_i.obj
 0002:00010750       _DIID_DispHTMLListElement  004a3750     uuid:mshtml_i.obj
 0002:00010760       _CLSID_HTMLListElement     004a3760     uuid:mshtml_i.obj
 0002:00010770       _IID_IHTMLUListElement     004a3770     uuid:mshtml_i.obj
 0002:00010780       _DIID_DispHTMLUListElement 004a3780     uuid:mshtml_i.obj
 0002:00010790       _CLSID_HTMLUListElement    004a3790     uuid:mshtml_i.obj
 0002:000107a0       _IID_IHTMLOListElement     004a37a0     uuid:mshtml_i.obj
 0002:000107b0       _DIID_DispHTMLOListElement 004a37b0     uuid:mshtml_i.obj
 0002:000107c0       _CLSID_HTMLOListElement    004a37c0     uuid:mshtml_i.obj
 0002:000107d0       _IID_IHTMLLIElement        004a37d0     uuid:mshtml_i.obj
 0002:000107e0       _DIID_DispHTMLLIElement    004a37e0     uuid:mshtml_i.obj
 0002:000107f0       _CLSID_HTMLLIElement       004a37f0     uuid:mshtml_i.obj
 0002:00010800       _IID_IHTMLBlockElement     004a3800     uuid:mshtml_i.obj
 0002:00010810       _IID_IHTMLBlockElement2    004a3810     uuid:mshtml_i.obj
 0002:00010820       _DIID_DispHTMLBlockElement 004a3820     uuid:mshtml_i.obj
 0002:00010830       _CLSID_HTMLBlockElement    004a3830     uuid:mshtml_i.obj
 0002:00010840       _IID_IHTMLDivElement       004a3840     uuid:mshtml_i.obj
 0002:00010850       _DIID_DispHTMLDivElement   004a3850     uuid:mshtml_i.obj
 0002:00010860       _CLSID_HTMLDivElement      004a3860     uuid:mshtml_i.obj
 0002:00010870       _IID_IHTMLDDElement        004a3870     uuid:mshtml_i.obj
 0002:00010880       _DIID_DispHTMLDDElement    004a3880     uuid:mshtml_i.obj
 0002:00010890       _CLSID_HTMLDDElement       004a3890     uuid:mshtml_i.obj
 0002:000108a0       _IID_IHTMLDTElement        004a38a0     uuid:mshtml_i.obj
 0002:000108b0       _DIID_DispHTMLDTElement    004a38b0     uuid:mshtml_i.obj
 0002:000108c0       _CLSID_HTMLDTElement       004a38c0     uuid:mshtml_i.obj
 0002:000108d0       _IID_IHTMLBRElement        004a38d0     uuid:mshtml_i.obj
 0002:000108e0       _DIID_DispHTMLBRElement    004a38e0     uuid:mshtml_i.obj
 0002:000108f0       _CLSID_HTMLBRElement       004a38f0     uuid:mshtml_i.obj
 0002:00010900       _IID_IHTMLDListElement     004a3900     uuid:mshtml_i.obj
 0002:00010910       _DIID_DispHTMLDListElement 004a3910     uuid:mshtml_i.obj
 0002:00010920       _CLSID_HTMLDListElement    004a3920     uuid:mshtml_i.obj
 0002:00010930       _IID_IHTMLHRElement        004a3930     uuid:mshtml_i.obj
 0002:00010940       _DIID_DispHTMLHRElement    004a3940     uuid:mshtml_i.obj
 0002:00010950       _CLSID_HTMLHRElement       004a3950     uuid:mshtml_i.obj
 0002:00010960       _IID_IHTMLParaElement      004a3960     uuid:mshtml_i.obj
 0002:00010970       _DIID_DispHTMLParaElement  004a3970     uuid:mshtml_i.obj
 0002:00010980       _CLSID_HTMLParaElement     004a3980     uuid:mshtml_i.obj
 0002:00010990       _IID_IHTMLElementCollection2 004a3990     uuid:mshtml_i.obj
 0002:000109a0       _IID_IHTMLElementCollection3 004a39a0     uuid:mshtml_i.obj
 0002:000109b0       _DIID_DispHTMLElementCollection 004a39b0     uuid:mshtml_i.obj
 0002:000109c0       _CLSID_HTMLElementCollection 004a39c0     uuid:mshtml_i.obj
 0002:000109d0       _IID_IHTMLHeaderElement    004a39d0     uuid:mshtml_i.obj
 0002:000109e0       _DIID_DispHTMLHeaderElement 004a39e0     uuid:mshtml_i.obj
 0002:000109f0       _CLSID_HTMLHeaderElement   004a39f0     uuid:mshtml_i.obj
 0002:00010a00       _DIID_HTMLSelectElementEvents2 004a3a00     uuid:mshtml_i.obj
 0002:00010a10       _DIID_HTMLSelectElementEvents 004a3a10     uuid:mshtml_i.obj
 0002:00010a20       _IID_IHTMLSelectElementEx  004a3a20     uuid:mshtml_i.obj
 0002:00010a30       _IID_IHTMLSelectElement    004a3a30     uuid:mshtml_i.obj
 0002:00010a40       _IID_IHTMLSelectElement2   004a3a40     uuid:mshtml_i.obj
 0002:00010a50       _IID_IHTMLSelectElement4   004a3a50     uuid:mshtml_i.obj
 0002:00010a60       _DIID_DispHTMLSelectElement 004a3a60     uuid:mshtml_i.obj
 0002:00010a70       _CLSID_HTMLSelectElement   004a3a70     uuid:mshtml_i.obj
 0002:00010a80       _DIID_DispHTMLWndSelectElement 004a3a80     uuid:mshtml_i.obj
 0002:00010a90       _CLSID_HTMLWndSelectElement 004a3a90     uuid:mshtml_i.obj
 0002:00010aa0       _IID_IHTMLSelectionObject  004a3aa0     uuid:mshtml_i.obj
 0002:00010ab0       _IID_IHTMLSelectionObject2 004a3ab0     uuid:mshtml_i.obj
 0002:00010ac0       _IID_IHTMLOptionElement    004a3ac0     uuid:mshtml_i.obj
 0002:00010ad0       _IID_IHTMLOptionElement3   004a3ad0     uuid:mshtml_i.obj
 0002:00010ae0       _IID_IHTMLOptionElementFactory 004a3ae0     uuid:mshtml_i.obj
 0002:00010af0       _DIID_DispHTMLOptionElement 004a3af0     uuid:mshtml_i.obj
 0002:00010b00       _CLSID_HTMLOptionElement   004a3b00     uuid:mshtml_i.obj
 0002:00010b10       _CLSID_HTMLOptionElementFactory 004a3b10     uuid:mshtml_i.obj
 0002:00010b20       _DIID_DispHTMLWndOptionElement 004a3b20     uuid:mshtml_i.obj
 0002:00010b30       _CLSID_HTMLWndOptionElement 004a3b30     uuid:mshtml_i.obj
 0002:00010b40       _DIID_HTMLButtonElementEvents2 004a3b40     uuid:mshtml_i.obj
 0002:00010b50       _DIID_HTMLButtonElementEvents 004a3b50     uuid:mshtml_i.obj
 0002:00010b60       _DIID_HTMLInputTextElementEvents2 004a3b60     uuid:mshtml_i.obj
 0002:00010b70       _DIID_HTMLOptionButtonElementEvents2 004a3b70     uuid:mshtml_i.obj
 0002:00010b80       _DIID_HTMLInputFileElementEvents2 004a3b80     uuid:mshtml_i.obj
 0002:00010b90       _DIID_HTMLInputImageEvents2 004a3b90     uuid:mshtml_i.obj
 0002:00010ba0       _DIID_HTMLInputTextElementEvents 004a3ba0     uuid:mshtml_i.obj
 0002:00010bb0       _DIID_HTMLOptionButtonElementEvents 004a3bb0     uuid:mshtml_i.obj
 0002:00010bc0       _DIID_HTMLInputFileElementEvents 004a3bc0     uuid:mshtml_i.obj
 0002:00010bd0       _DIID_HTMLInputImageEvents 004a3bd0     uuid:mshtml_i.obj
 0002:00010be0       _IID_IHTMLInputElement     004a3be0     uuid:mshtml_i.obj
 0002:00010bf0       _IID_IHTMLInputElement2    004a3bf0     uuid:mshtml_i.obj
 0002:00010c00       _IID_IHTMLInputButtonElement 004a3c00     uuid:mshtml_i.obj
 0002:00010c10       _IID_IHTMLInputHiddenElement 004a3c10     uuid:mshtml_i.obj
 0002:00010c20       _IID_IHTMLInputTextElement 004a3c20     uuid:mshtml_i.obj
 0002:00010c30       _IID_IHTMLInputFileElement 004a3c30     uuid:mshtml_i.obj
 0002:00010c40       _IID_IHTMLOptionButtonElement 004a3c40     uuid:mshtml_i.obj
 0002:00010c50       _IID_IHTMLInputImage       004a3c50     uuid:mshtml_i.obj
 0002:00010c60       _DIID_DispHTMLInputElement 004a3c60     uuid:mshtml_i.obj
 0002:00010c70       _CLSID_HTMLInputElement    004a3c70     uuid:mshtml_i.obj
 0002:00010c80       _IID_IHTMLTextAreaElement  004a3c80     uuid:mshtml_i.obj
 0002:00010c90       _DIID_DispHTMLTextAreaElement 004a3c90     uuid:mshtml_i.obj
 0002:00010ca0       _CLSID_HTMLTextAreaElement 004a3ca0     uuid:mshtml_i.obj
 0002:00010cb0       _DIID_DispHTMLRichtextElement 004a3cb0     uuid:mshtml_i.obj
 0002:00010cc0       _CLSID_HTMLRichtextElement 004a3cc0     uuid:mshtml_i.obj
 0002:00010cd0       _IID_IHTMLButtonElement    004a3cd0     uuid:mshtml_i.obj
 0002:00010ce0       _DIID_DispHTMLButtonElement 004a3ce0     uuid:mshtml_i.obj
 0002:00010cf0       _CLSID_HTMLButtonElement   004a3cf0     uuid:mshtml_i.obj
 0002:00010d00       _DIID_HTMLMarqueeElementEvents2 004a3d00     uuid:mshtml_i.obj
 0002:00010d10       _DIID_HTMLMarqueeElementEvents 004a3d10     uuid:mshtml_i.obj
 0002:00010d20       _IID_IHTMLMarqueeElement   004a3d20     uuid:mshtml_i.obj
 0002:00010d30       _DIID_DispHTMLMarqueeElement 004a3d30     uuid:mshtml_i.obj
 0002:00010d40       _CLSID_HTMLMarqueeElement  004a3d40     uuid:mshtml_i.obj
 0002:00010d50       _IID_IHTMLHtmlElement      004a3d50     uuid:mshtml_i.obj
 0002:00010d60       _IID_IHTMLHeadElement      004a3d60     uuid:mshtml_i.obj
 0002:00010d70       _IID_IHTMLTitleElement     004a3d70     uuid:mshtml_i.obj
 0002:00010d80       _IID_IHTMLMetaElement      004a3d80     uuid:mshtml_i.obj
 0002:00010d90       _IID_IHTMLMetaElement2     004a3d90     uuid:mshtml_i.obj
 0002:00010da0       _IID_IHTMLBaseElement      004a3da0     uuid:mshtml_i.obj
 0002:00010db0       _IID_IHTMLIsIndexElement   004a3db0     uuid:mshtml_i.obj
 0002:00010dc0       _IID_IHTMLIsIndexElement2  004a3dc0     uuid:mshtml_i.obj
 0002:00010dd0       _IID_IHTMLNextIdElement    004a3dd0     uuid:mshtml_i.obj
 0002:00010de0       _DIID_DispHTMLHtmlElement  004a3de0     uuid:mshtml_i.obj
 0002:00010df0       _CLSID_HTMLHtmlElement     004a3df0     uuid:mshtml_i.obj
 0002:00010e00       _DIID_DispHTMLHeadElement  004a3e00     uuid:mshtml_i.obj
 0002:00010e10       _CLSID_HTMLHeadElement     004a3e10     uuid:mshtml_i.obj
 0002:00010e20       _DIID_DispHTMLTitleElement 004a3e20     uuid:mshtml_i.obj
 0002:00010e30       _CLSID_HTMLTitleElement    004a3e30     uuid:mshtml_i.obj
 0002:00010e40       _DIID_DispHTMLMetaElement  004a3e40     uuid:mshtml_i.obj
 0002:00010e50       _CLSID_HTMLMetaElement     004a3e50     uuid:mshtml_i.obj
 0002:00010e60       _DIID_DispHTMLBaseElement  004a3e60     uuid:mshtml_i.obj
 0002:00010e70       _CLSID_HTMLBaseElement     004a3e70     uuid:mshtml_i.obj
 0002:00010e80       _DIID_DispHTMLIsIndexElement 004a3e80     uuid:mshtml_i.obj
 0002:00010e90       _CLSID_HTMLIsIndexElement  004a3e90     uuid:mshtml_i.obj
 0002:00010ea0       _DIID_DispHTMLNextIdElement 004a3ea0     uuid:mshtml_i.obj
 0002:00010eb0       _CLSID_HTMLNextIdElement   004a3eb0     uuid:mshtml_i.obj
 0002:00010ec0       _IID_IHTMLBaseFontElement  004a3ec0     uuid:mshtml_i.obj
 0002:00010ed0       _DIID_DispHTMLBaseFontElement 004a3ed0     uuid:mshtml_i.obj
 0002:00010ee0       _CLSID_HTMLBaseFontElement 004a3ee0     uuid:mshtml_i.obj
 0002:00010ef0       _IID_IHTMLUnknownElement   004a3ef0     uuid:mshtml_i.obj
 0002:00010f00       _DIID_DispHTMLUnknownElement 004a3f00     uuid:mshtml_i.obj
 0002:00010f10       _CLSID_HTMLUnknownElement  004a3f10     uuid:mshtml_i.obj
 0002:00010f20       _IID_IOmHistory            004a3f20     uuid:mshtml_i.obj
 0002:00010f30       _IID_IHTMLMimeTypesCollection 004a3f30     uuid:mshtml_i.obj
 0002:00010f40       _IID_IHTMLPluginsCollection 004a3f40     uuid:mshtml_i.obj
 0002:00010f50       _IID_IHTMLOpsProfile       004a3f50     uuid:mshtml_i.obj
 0002:00010f60       _IID_IOmNavigator          004a3f60     uuid:mshtml_i.obj
 0002:00010f70       _IID_IHTMLLocation         004a3f70     uuid:mshtml_i.obj
 0002:00010f80       _CLSID_HTMLHistory         004a3f80     uuid:mshtml_i.obj
 0002:00010f90       _CLSID_CMimeTypes          004a3f90     uuid:mshtml_i.obj
 0002:00010fa0       _CLSID_CPlugins            004a3fa0     uuid:mshtml_i.obj
 0002:00010fb0       _CLSID_COpsProfile         004a3fb0     uuid:mshtml_i.obj
 0002:00010fc0       _CLSID_HTMLNavigator       004a3fc0     uuid:mshtml_i.obj
 0002:00010fd0       _CLSID_HTMLLocation        004a3fd0     uuid:mshtml_i.obj
 0002:00010fe0       _IID_IHTMLBookmarkCollection 004a3fe0     uuid:mshtml_i.obj
 0002:00010ff0       _IID_IHTMLDataTransfer     004a3ff0     uuid:mshtml_i.obj
 0002:00011000       _IID_IHTMLEventObj2        004a4000     uuid:mshtml_i.obj
 0002:00011010       _IID_IHTMLEventObj3        004a4010     uuid:mshtml_i.obj
 0002:00011020       _IID_IHTMLEventObj4        004a4020     uuid:mshtml_i.obj
 0002:00011030       _DIID_DispCEventObj        004a4030     uuid:mshtml_i.obj
 0002:00011040       _CLSID_CEventObj           004a4040     uuid:mshtml_i.obj
 0002:00011050       _DIID_HTMLWindowEvents2    004a4050     uuid:mshtml_i.obj
 0002:00011060       _DIID_HTMLWindowEvents     004a4060     uuid:mshtml_i.obj
 0002:00011070       _IID_IHTMLDocument2        004a4070     uuid:mshtml_i.obj
 0002:00011080       _IID_IHTMLFramesCollection2 004a4080     uuid:mshtml_i.obj
 0002:00011090       _IID_IHTMLWindow2          004a4090     uuid:mshtml_i.obj
 0002:000110a0       _IID_IHTMLWindow3          004a40a0     uuid:mshtml_i.obj
 0002:000110b0       _IID_IHTMLFrameBase        004a40b0     uuid:mshtml_i.obj
 0002:000110c0       _IID_IHTMLScreen           004a40c0     uuid:mshtml_i.obj
 0002:000110d0       _IID_IHTMLScreen2          004a40d0     uuid:mshtml_i.obj
 0002:000110e0       _IID_IHTMLWindow4          004a40e0     uuid:mshtml_i.obj
 0002:000110f0       _IID_IHTMLWindow5          004a40f0     uuid:mshtml_i.obj
 0002:00011100       _CLSID_FramesCollection    004a4100     uuid:mshtml_i.obj
 0002:00011110       _DIID_DispHTMLScreen       004a4110     uuid:mshtml_i.obj
 0002:00011120       _CLSID_HTMLScreen          004a4120     uuid:mshtml_i.obj
 0002:00011130       _DIID_DispHTMLWindow2      004a4130     uuid:mshtml_i.obj
 0002:00011140       _CLSID_HTMLWindow2         004a4140     uuid:mshtml_i.obj
 0002:00011150       _DIID_DispHTMLWindowProxy  004a4150     uuid:mshtml_i.obj
 0002:00011160       _CLSID_HTMLWindowProxy     004a4160     uuid:mshtml_i.obj
 0002:00011170       _DIID_HTMLDocumentEvents2  004a4170     uuid:mshtml_i.obj
 0002:00011180       _DIID_HTMLDocumentEvents   004a4180     uuid:mshtml_i.obj
 0002:00011190       _IID_IHTMLDocument3        004a4190     uuid:mshtml_i.obj
 0002:000111a0       _IID_IHTMLDocument4        004a41a0     uuid:mshtml_i.obj
 0002:000111b0       _IID_IHTMLDocument5        004a41b0     uuid:mshtml_i.obj
 0002:000111c0       _DIID_DispHTMLDocument     004a41c0     uuid:mshtml_i.obj
 0002:000111d0       _CLSID_HTMLDocument        004a41d0     uuid:mshtml_i.obj
 0002:000111e0       _DIID_DWebBridgeEvents     004a41e0     uuid:mshtml_i.obj
 0002:000111f0       _IID_IWebBridge            004a41f0     uuid:mshtml_i.obj
 0002:00011200       _IID_IWBScriptControl      004a4200     uuid:mshtml_i.obj
 0002:00011210       _CLSID_Scriptlet           004a4210     uuid:mshtml_i.obj
 0002:00011220       _IID_IHTMLEmbedElement     004a4220     uuid:mshtml_i.obj
 0002:00011230       _DIID_DispHTMLEmbed        004a4230     uuid:mshtml_i.obj
 0002:00011240       _CLSID_HTMLEmbed           004a4240     uuid:mshtml_i.obj
 0002:00011250       _DIID_HTMLMapEvents2       004a4250     uuid:mshtml_i.obj
 0002:00011260       _DIID_HTMLMapEvents        004a4260     uuid:mshtml_i.obj
 0002:00011270       _IID_IHTMLAreasCollection  004a4270     uuid:mshtml_i.obj
 0002:00011280       _IID_IHTMLAreasCollection2 004a4280     uuid:mshtml_i.obj
 0002:00011290       _IID_IHTMLAreasCollection3 004a4290     uuid:mshtml_i.obj
 0002:000112a0       _IID_IHTMLMapElement       004a42a0     uuid:mshtml_i.obj
 0002:000112b0       _DIID_DispHTMLAreasCollection 004a42b0     uuid:mshtml_i.obj
 0002:000112c0       _CLSID_HTMLAreasCollection 004a42c0     uuid:mshtml_i.obj
 0002:000112d0       _DIID_DispHTMLMapElement   004a42d0     uuid:mshtml_i.obj
 0002:000112e0       _CLSID_HTMLMapElement      004a42e0     uuid:mshtml_i.obj
 0002:000112f0       _DIID_HTMLAreaEvents2      004a42f0     uuid:mshtml_i.obj
 0002:00011300       _DIID_HTMLAreaEvents       004a4300     uuid:mshtml_i.obj
 0002:00011310       _IID_IHTMLAreaElement      004a4310     uuid:mshtml_i.obj
 0002:00011320       _DIID_DispHTMLAreaElement  004a4320     uuid:mshtml_i.obj
 0002:00011330       _CLSID_HTMLAreaElement     004a4330     uuid:mshtml_i.obj
 0002:00011340       _IID_IHTMLTableCaption     004a4340     uuid:mshtml_i.obj
 0002:00011350       _DIID_DispHTMLTableCaption 004a4350     uuid:mshtml_i.obj
 0002:00011360       _CLSID_HTMLTableCaption    004a4360     uuid:mshtml_i.obj
 0002:00011370       _IID_IHTMLCommentElement   004a4370     uuid:mshtml_i.obj
 0002:00011380       _IID_IHTMLCommentElement2  004a4380     uuid:mshtml_i.obj
 0002:00011390       _DIID_DispHTMLCommentElement 004a4390     uuid:mshtml_i.obj
 0002:000113a0       _CLSID_HTMLCommentElement  004a43a0     uuid:mshtml_i.obj
 0002:000113b0       _IID_IHTMLPhraseElement    004a43b0     uuid:mshtml_i.obj
 0002:000113c0       _IID_IHTMLPhraseElement2   004a43c0     uuid:mshtml_i.obj
 0002:000113d0       _IID_IHTMLSpanElement      004a43d0     uuid:mshtml_i.obj
 0002:000113e0       _DIID_DispHTMLPhraseElement 004a43e0     uuid:mshtml_i.obj
 0002:000113f0       _CLSID_HTMLPhraseElement   004a43f0     uuid:mshtml_i.obj
 0002:00011400       _DIID_DispHTMLSpanElement  004a4400     uuid:mshtml_i.obj
 0002:00011410       _CLSID_HTMLSpanElement     004a4410     uuid:mshtml_i.obj
 0002:00011420       _DIID_HTMLTableEvents2     004a4420     uuid:mshtml_i.obj
 0002:00011430       _DIID_HTMLTableEvents      004a4430     uuid:mshtml_i.obj
 0002:00011440       _IID_IHTMLTableSection     004a4440     uuid:mshtml_i.obj
 0002:00011450       _IID_IHTMLTable            004a4450     uuid:mshtml_i.obj
 0002:00011460       _IID_IHTMLTable2           004a4460     uuid:mshtml_i.obj
 0002:00011470       _IID_IHTMLTable3           004a4470     uuid:mshtml_i.obj
 0002:00011480       _IID_IHTMLTableCol         004a4480     uuid:mshtml_i.obj
 0002:00011490       _IID_IHTMLTableCol2        004a4490     uuid:mshtml_i.obj
 0002:000114a0       _IID_IHTMLTableSection2    004a44a0     uuid:mshtml_i.obj
 0002:000114b0       _IID_IHTMLTableSection3    004a44b0     uuid:mshtml_i.obj
 0002:000114c0       _IID_IHTMLTableRow         004a44c0     uuid:mshtml_i.obj
 0002:000114d0       _IID_IHTMLTableRow2        004a44d0     uuid:mshtml_i.obj
 0002:000114e0       _IID_IHTMLTableRow3        004a44e0     uuid:mshtml_i.obj
 0002:000114f0       _IID_IHTMLTableRowMetrics  004a44f0     uuid:mshtml_i.obj
 0002:00011500       _IID_IHTMLTableCell        004a4500     uuid:mshtml_i.obj
 0002:00011510       _IID_IHTMLTableCell2       004a4510     uuid:mshtml_i.obj
 0002:00011520       _DIID_DispHTMLTable        004a4520     uuid:mshtml_i.obj
 0002:00011530       _CLSID_HTMLTable           004a4530     uuid:mshtml_i.obj
 0002:00011540       _DIID_DispHTMLTableCol     004a4540     uuid:mshtml_i.obj
 0002:00011550       _CLSID_HTMLTableCol        004a4550     uuid:mshtml_i.obj
 0002:00011560       _DIID_DispHTMLTableSection 004a4560     uuid:mshtml_i.obj
 0002:00011570       _CLSID_HTMLTableSection    004a4570     uuid:mshtml_i.obj
 0002:00011580       _DIID_DispHTMLTableRow     004a4580     uuid:mshtml_i.obj
 0002:00011590       _CLSID_HTMLTableRow        004a4590     uuid:mshtml_i.obj
 0002:000115a0       _DIID_DispHTMLTableCell    004a45a0     uuid:mshtml_i.obj
 0002:000115b0       _CLSID_HTMLTableCell       004a45b0     uuid:mshtml_i.obj
 0002:000115c0       _DIID_HTMLScriptEvents2    004a45c0     uuid:mshtml_i.obj
 0002:000115d0       _DIID_HTMLScriptEvents     004a45d0     uuid:mshtml_i.obj
 0002:000115e0       _IID_IHTMLScriptElement    004a45e0     uuid:mshtml_i.obj
 0002:000115f0       _IID_IHTMLScriptElement2   004a45f0     uuid:mshtml_i.obj
 0002:00011600       _DIID_DispHTMLScriptElement 004a4600     uuid:mshtml_i.obj
 0002:00011610       _CLSID_HTMLScriptElement   004a4610     uuid:mshtml_i.obj
 0002:00011620       _IID_IHTMLNoShowElement    004a4620     uuid:mshtml_i.obj
 0002:00011630       _DIID_DispHTMLNoShowElement 004a4630     uuid:mshtml_i.obj
 0002:00011640       _CLSID_HTMLNoShowElement   004a4640     uuid:mshtml_i.obj
 0002:00011650       _DIID_HTMLObjectElementEvents2 004a4650     uuid:mshtml_i.obj
 0002:00011660       _DIID_HTMLObjectElementEvents 004a4660     uuid:mshtml_i.obj
 0002:00011670       _IID_IHTMLObjectElement    004a4670     uuid:mshtml_i.obj
 0002:00011680       _IID_IHTMLObjectElement2   004a4680     uuid:mshtml_i.obj
 0002:00011690       _IID_IHTMLObjectElement3   004a4690     uuid:mshtml_i.obj
 0002:000116a0       _IID_IHTMLParamElement     004a46a0     uuid:mshtml_i.obj
 0002:000116b0       _DIID_DispHTMLObjectElement 004a46b0     uuid:mshtml_i.obj
 0002:000116c0       _CLSID_HTMLObjectElement   004a46c0     uuid:mshtml_i.obj
 0002:000116d0       _DIID_DispHTMLParamElement 004a46d0     uuid:mshtml_i.obj
 0002:000116e0       _CLSID_HTMLParamElement    004a46e0     uuid:mshtml_i.obj
 0002:000116f0       _DIID_HTMLFrameSiteEvents2 004a46f0     uuid:mshtml_i.obj
 0002:00011700       _DIID_HTMLFrameSiteEvents  004a4700     uuid:mshtml_i.obj
 0002:00011710       _IID_IHTMLFrameBase2       004a4710     uuid:mshtml_i.obj
 0002:00011720       _IID_IHTMLFrameBase3       004a4720     uuid:mshtml_i.obj
 0002:00011730       _DIID_DispHTMLFrameBase    004a4730     uuid:mshtml_i.obj
 0002:00011740       _CLSID_HTMLFrameBase       004a4740     uuid:mshtml_i.obj
 0002:00011750       _IID_IHTMLFrameElement     004a4750     uuid:mshtml_i.obj
 0002:00011760       _IID_IHTMLFrameElement2    004a4760     uuid:mshtml_i.obj
 0002:00011770       _DIID_DispHTMLFrameElement 004a4770     uuid:mshtml_i.obj
 0002:00011780       _CLSID_HTMLFrameElement    004a4780     uuid:mshtml_i.obj
 0002:00011790       _IID_IHTMLIFrameElement    004a4790     uuid:mshtml_i.obj
 0002:000117a0       _IID_IHTMLIFrameElement2   004a47a0     uuid:mshtml_i.obj
 0002:000117b0       _DIID_DispHTMLIFrame       004a47b0     uuid:mshtml_i.obj
 0002:000117c0       _CLSID_HTMLIFrame          004a47c0     uuid:mshtml_i.obj
 0002:000117d0       _IID_IHTMLDivPosition      004a47d0     uuid:mshtml_i.obj
 0002:000117e0       _IID_IHTMLFieldSetElement  004a47e0     uuid:mshtml_i.obj
 0002:000117f0       _IID_IHTMLFieldSetElement2 004a47f0     uuid:mshtml_i.obj
 0002:00011800       _IID_IHTMLLegendElement    004a4800     uuid:mshtml_i.obj
 0002:00011810       _IID_IHTMLLegendElement2   004a4810     uuid:mshtml_i.obj
 0002:00011820       _DIID_DispHTMLDivPosition  004a4820     uuid:mshtml_i.obj
 0002:00011830       _CLSID_HTMLDivPosition     004a4830     uuid:mshtml_i.obj
 0002:00011840       _DIID_DispHTMLFieldSetElement 004a4840     uuid:mshtml_i.obj
 0002:00011850       _CLSID_HTMLFieldSetElement 004a4850     uuid:mshtml_i.obj
 0002:00011860       _DIID_DispHTMLLegendElement 004a4860     uuid:mshtml_i.obj
 0002:00011870       _CLSID_HTMLLegendElement   004a4870     uuid:mshtml_i.obj
 0002:00011880       _IID_IHTMLSpanFlow         004a4880     uuid:mshtml_i.obj
 0002:00011890       _DIID_DispHTMLSpanFlow     004a4890     uuid:mshtml_i.obj
 0002:000118a0       _CLSID_HTMLSpanFlow        004a48a0     uuid:mshtml_i.obj
 0002:000118b0       _IID_IHTMLFrameSetElement  004a48b0     uuid:mshtml_i.obj
 0002:000118c0       _IID_IHTMLFrameSetElement2 004a48c0     uuid:mshtml_i.obj
 0002:000118d0       _DIID_DispHTMLFrameSetSite 004a48d0     uuid:mshtml_i.obj
 0002:000118e0       _CLSID_HTMLFrameSetSite    004a48e0     uuid:mshtml_i.obj
 0002:000118f0       _IID_IHTMLBGsound          004a48f0     uuid:mshtml_i.obj
 0002:00011900       _DIID_DispHTMLBGsound      004a4900     uuid:mshtml_i.obj
 0002:00011910       _CLSID_HTMLBGsound         004a4910     uuid:mshtml_i.obj
 0002:00011920       _IID_IHTMLFontNamesCollection 004a4920     uuid:mshtml_i.obj
 0002:00011930       _IID_IHTMLFontSizesCollection 004a4930     uuid:mshtml_i.obj
 0002:00011940       _IID_IHTMLOptionsHolder    004a4940     uuid:mshtml_i.obj
 0002:00011950       _DIID_HTMLStyleElementEvents2 004a4950     uuid:mshtml_i.obj
 0002:00011960       _DIID_HTMLStyleElementEvents 004a4960     uuid:mshtml_i.obj
 0002:00011970       _IID_IHTMLStyleElement     004a4970     uuid:mshtml_i.obj
 0002:00011980       _DIID_DispHTMLStyleElement 004a4980     uuid:mshtml_i.obj
 0002:00011990       _CLSID_HTMLStyleElement    004a4990     uuid:mshtml_i.obj
 0002:000119a0       _IID_IHTMLStyleFontFace    004a49a0     uuid:mshtml_i.obj
 0002:000119b0       _CLSID_HTMLStyleFontFace   004a49b0     uuid:mshtml_i.obj
 0002:000119c0       _IID_ICSSFilterSite        004a49c0     uuid:mshtml_i.obj
 0002:000119d0       _IID_IMarkupPointer        004a49d0     uuid:mshtml_i.obj
 0002:000119e0       _IID_IMarkupContainer      004a49e0     uuid:mshtml_i.obj
 0002:000119f0       _IID_IMarkupContainer2     004a49f0     uuid:mshtml_i.obj
 0002:00011a00       _IID_IHTMLChangeLog        004a4a00     uuid:mshtml_i.obj
 0002:00011a10       _IID_IHTMLChangeSink       004a4a10     uuid:mshtml_i.obj
 0002:00011a20       _IID_IActiveIMMApp         004a4a20     uuid:mshtml_i.obj
 0002:00011a30       _IID_ISegmentList          004a4a30     uuid:mshtml_i.obj
 0002:00011a40       _IID_ISegmentListIterator  004a4a40     uuid:mshtml_i.obj
 0002:00011a50       _IID_IHTMLCaret            004a4a50     uuid:mshtml_i.obj
 0002:00011a60       _IID_ISegment              004a4a60     uuid:mshtml_i.obj
 0002:00011a70       _IID_IElementSegment       004a4a70     uuid:mshtml_i.obj
 0002:00011a80       _IID_IHighlightSegment     004a4a80     uuid:mshtml_i.obj
 0002:00011a90       _IID_IHighlightRenderingServices 004a4a90     uuid:mshtml_i.obj
 0002:00011aa0       _IID_ILineInfo             004a4aa0     uuid:mshtml_i.obj
 0002:00011ab0       _IID_IDisplayPointer       004a4ab0     uuid:mshtml_i.obj
 0002:00011ac0       _IID_IDisplayServices      004a4ac0     uuid:mshtml_i.obj
 0002:00011ad0       _IID_IHtmlDlgSafeHelper    004a4ad0     uuid:mshtml_i.obj
 0002:00011ae0       _IID_IBlockFormats         004a4ae0     uuid:mshtml_i.obj
 0002:00011af0       _IID_IFontNames            004a4af0     uuid:mshtml_i.obj
 0002:00011b00       _IID_ICSSFilter            004a4b00     uuid:mshtml_i.obj
 0002:00011b10       _IID_ISecureUrlHost        004a4b10     uuid:mshtml_i.obj
 0002:00011b20       _IID_IMarkupServices       004a4b20     uuid:mshtml_i.obj
 0002:00011b30       _IID_IMarkupServices2      004a4b30     uuid:mshtml_i.obj
 0002:00011b40       _IID_IHTMLChangePlayback   004a4b40     uuid:mshtml_i.obj
 0002:00011b50       _IID_IMarkupPointer2       004a4b50     uuid:mshtml_i.obj
 0002:00011b60       _IID_IMarkupTextFrags      004a4b60     uuid:mshtml_i.obj
 0002:00011b70       _IID_IXMLGenericParse      004a4b70     uuid:mshtml_i.obj
 0002:00011b80       _IID_IHTMLEditHost         004a4b80     uuid:mshtml_i.obj
 0002:00011b90       _IID_IHTMLEditHost2        004a4b90     uuid:mshtml_i.obj
 0002:00011ba0       _IID_ISequenceNumber       004a4ba0     uuid:mshtml_i.obj
 0002:00011bb0       _IID_IIMEServices          004a4bb0     uuid:mshtml_i.obj
 0002:00011bc0       _IID_ISelectionServicesListener 004a4bc0     uuid:mshtml_i.obj
 0002:00011bd0       _IID_ISelectionServices    004a4bd0     uuid:mshtml_i.obj
 0002:00011be0       _IID_IHTMLEditDesigner     004a4be0     uuid:mshtml_i.obj
 0002:00011bf0       _IID_IHTMLEditServices     004a4bf0     uuid:mshtml_i.obj
 0002:00011c00       _IID_IHTMLEditServices2    004a4c00     uuid:mshtml_i.obj
 0002:00011c10       _IID_IHTMLComputedStyle    004a4c10     uuid:mshtml_i.obj
 0002:00011c20       _CLSID_HtmlDlgSafeHelper   004a4c20     uuid:mshtml_i.obj
 0002:00011c30       _CLSID_BlockFormats        004a4c30     uuid:mshtml_i.obj
 0002:00011c40       _CLSID_FontNames           004a4c40     uuid:mshtml_i.obj
 0002:00011c50       _DIID_HTMLNamespaceEvents  004a4c50     uuid:mshtml_i.obj
 0002:00011c60       _IID_IHTMLNamespace        004a4c60     uuid:mshtml_i.obj
 0002:00011c70       _IID_IHTMLNamespaceCollection 004a4c70     uuid:mshtml_i.obj
 0002:00011c80       _CLSID_HTMLNamespace       004a4c80     uuid:mshtml_i.obj
 0002:00011c90       _CLSID_HTMLNamespaceCollection 004a4c90     uuid:mshtml_i.obj
 0002:00011ca0       _IID_IHTMLPainter          004a4ca0     uuid:mshtml_i.obj
 0002:00011cb0       _IID_IHTMLPaintSite        004a4cb0     uuid:mshtml_i.obj
 0002:00011cc0       _IID_IHTMLPainterEventInfo 004a4cc0     uuid:mshtml_i.obj
 0002:00011cd0       _IID_IHTMLPainterOverlay   004a4cd0     uuid:mshtml_i.obj
 0002:00011ce0       _IID_IHTMLIPrintCollection 004a4ce0     uuid:mshtml_i.obj
 0002:00011cf0       _IID_IEnumPrivacyRecords   004a4cf0     uuid:mshtml_i.obj
 0002:00011d00       _IID_IWPCBlockedUrls       004a4d00     uuid:mshtml_i.obj
 0002:00011d10       _IID_IHTMLDialog           004a4d10     uuid:mshtml_i.obj
 0002:00011d20       _IID_IHTMLDialog2          004a4d20     uuid:mshtml_i.obj
 0002:00011d30       _IID_IHTMLDialog3          004a4d30     uuid:mshtml_i.obj
 0002:00011d40       _IID_IHTMLModelessInit     004a4d40     uuid:mshtml_i.obj
 0002:00011d50       _CLSID_ThreadDialogProcParam 004a4d50     uuid:mshtml_i.obj
 0002:00011d60       _CLSID_HTMLDialog          004a4d60     uuid:mshtml_i.obj
 0002:00011d70       _IID_IHTMLPopup            004a4d70     uuid:mshtml_i.obj
 0002:00011d80       _DIID_DispHTMLPopup        004a4d80     uuid:mshtml_i.obj
 0002:00011d90       _CLSID_HTMLPopup           004a4d90     uuid:mshtml_i.obj
 0002:00011da0       _IID_IHTMLAppBehavior      004a4da0     uuid:mshtml_i.obj
 0002:00011db0       _IID_IHTMLAppBehavior2     004a4db0     uuid:mshtml_i.obj
 0002:00011dc0       _IID_IHTMLAppBehavior3     004a4dc0     uuid:mshtml_i.obj
 0002:00011dd0       _DIID_DispHTMLAppBehavior  004a4dd0     uuid:mshtml_i.obj
 0002:00011de0       _CLSID_HTMLAppBehavior     004a4de0     uuid:mshtml_i.obj
 0002:00011df0       _CLSID_OldHTMLDocument     004a4df0     uuid:mshtml_i.obj
 0002:00011e00       _CLSID_OldHTMLFormElement  004a4e00     uuid:mshtml_i.obj
 0002:00011e10       _DIID_DispIHTMLInputButtonElement 004a4e10     uuid:mshtml_i.obj
 0002:00011e20       _CLSID_HTMLInputButtonElement 004a4e20     uuid:mshtml_i.obj
 0002:00011e30       _DIID_DispIHTMLInputTextElement 004a4e30     uuid:mshtml_i.obj
 0002:00011e40       _CLSID_HTMLInputTextElement 004a4e40     uuid:mshtml_i.obj
 0002:00011e50       _DIID_DispIHTMLInputFileElement 004a4e50     uuid:mshtml_i.obj
 0002:00011e60       _CLSID_HTMLInputFileElement 004a4e60     uuid:mshtml_i.obj
 0002:00011e70       _DIID_DispIHTMLOptionButtonElement 004a4e70     uuid:mshtml_i.obj
 0002:00011e80       _CLSID_HTMLOptionButtonElement 004a4e80     uuid:mshtml_i.obj
 0002:00011e90       _DIID_DispIHTMLInputImage  004a4e90     uuid:mshtml_i.obj
 0002:00011ea0       _CLSID_HTMLInputImage      004a4ea0     uuid:mshtml_i.obj
 0002:00011eb0       _IID_IElementNamespace     004a4eb0     uuid:mshtml_i.obj
 0002:00011ec0       _IID_IElementNamespaceTable 004a4ec0     uuid:mshtml_i.obj
 0002:00011ed0       _IID_IElementNamespaceFactory 004a4ed0     uuid:mshtml_i.obj
 0002:00011ee0       _IID_IElementNamespaceFactory2 004a4ee0     uuid:mshtml_i.obj
 0002:00011ef0       _IID_IElementNamespaceFactoryCallback 004a4ef0     uuid:mshtml_i.obj
 0002:00011f00       _IID_IElementBehaviorSiteOM2 004a4f00     uuid:mshtml_i.obj
 0002:00011f10       _IID_IElementBehaviorCategory 004a4f10     uuid:mshtml_i.obj
 0002:00011f20       _IID_IElementBehaviorSiteCategory 004a4f20     uuid:mshtml_i.obj
 0002:00011f30       _IID_IElementBehaviorSubmit 004a4f30     uuid:mshtml_i.obj
 0002:00011f40       _IID_IElementBehaviorFocus 004a4f40     uuid:mshtml_i.obj
 0002:00011f50       _IID_IElementBehaviorLayout 004a4f50     uuid:mshtml_i.obj
 0002:00011f60       _IID_IElementBehaviorLayout2 004a4f60     uuid:mshtml_i.obj
 0002:00011f70       _IID_IElementBehaviorSiteLayout 004a4f70     uuid:mshtml_i.obj
 0002:00011f80       _IID_IElementBehaviorSiteLayout2 004a4f80     uuid:mshtml_i.obj
 0002:00011f90       _IID_IHostBehaviorInit     004a4f90     uuid:mshtml_i.obj
 0002:00011fa0       _LIBID_SHDocVw             004a4fa0     uuid:exdisp_i.obj
 0002:00011fb0       _IID_IWebBrowser           004a4fb0     uuid:exdisp_i.obj
 0002:00011fc0       _DIID_DWebBrowserEvents    004a4fc0     uuid:exdisp_i.obj
 0002:00011fd0       _IID_IWebBrowserApp        004a4fd0     uuid:exdisp_i.obj
 0002:00011fe0       _IID_IWebBrowser2          004a4fe0     uuid:exdisp_i.obj
 0002:00011ff0       _DIID_DWebBrowserEvents2   004a4ff0     uuid:exdisp_i.obj
 0002:00012000       _CLSID_WebBrowser_V1       004a5000     uuid:exdisp_i.obj
 0002:00012010       _CLSID_WebBrowser          004a5010     uuid:exdisp_i.obj
 0002:00012020       _CLSID_InternetExplorer    004a5020     uuid:exdisp_i.obj
 0002:00012030       _CLSID_ShellBrowserWindow  004a5030     uuid:exdisp_i.obj
 0002:00012040       _DIID_DShellWindowsEvents  004a5040     uuid:exdisp_i.obj
 0002:00012050       _IID_IShellWindows         004a5050     uuid:exdisp_i.obj
 0002:00012060       _CLSID_ShellWindows        004a5060     uuid:exdisp_i.obj
 0002:00012070       _IID_IShellUIHelper        004a5070     uuid:exdisp_i.obj
 0002:00012080       _IID_IShellUIHelper2       004a5080     uuid:exdisp_i.obj
 0002:00012090       _CLSID_ShellUIHelper       004a5090     uuid:exdisp_i.obj
 0002:000120a0       _DIID_DShellNameSpaceEvents 004a50a0     uuid:exdisp_i.obj
 0002:000120b0       _IID_IShellFavoritesNameSpace 004a50b0     uuid:exdisp_i.obj
 0002:000120c0       _IID_IShellNameSpace       004a50c0     uuid:exdisp_i.obj
 0002:000120d0       _CLSID_ShellNameSpace      004a50d0     uuid:exdisp_i.obj
 0002:000120e0       _CLSID_ShellShellNameSpace 004a50e0     uuid:exdisp_i.obj
 0002:000120f0       _IID_IScriptErrorList      004a50f0     uuid:exdisp_i.obj
 0002:00012100       _CLSID_CScriptErrorList    004a5100     uuid:exdisp_i.obj
 0002:00012110       _IID_IMarshal              004a5110     uuid:objidl_i.obj
 0002:00012120       _IID_IMarshal2             004a5120     uuid:objidl_i.obj
 0002:00012130       _IID_IMalloc               004a5130     uuid:objidl_i.obj
 0002:00012140       _IID_IMallocSpy            004a5140     uuid:objidl_i.obj
 0002:00012150       _IID_IStdMarshalInfo       004a5150     uuid:objidl_i.obj
 0002:00012160       _IID_IExternalConnection   004a5160     uuid:objidl_i.obj
 0002:00012170       _IID_IMultiQI              004a5170     uuid:objidl_i.obj
 0002:00012180       _IID_AsyncIMultiQI         004a5180     uuid:objidl_i.obj
 0002:00012190       _IID_IInternalUnknown      004a5190     uuid:objidl_i.obj
 0002:000121a0       _IID_IEnumUnknown          004a51a0     uuid:objidl_i.obj
 0002:000121b0       _IID_IBindCtx              004a51b0     uuid:objidl_i.obj
 0002:000121c0       _IID_IEnumMoniker          004a51c0     uuid:objidl_i.obj
 0002:000121d0       _IID_IRunnableObject       004a51d0     uuid:objidl_i.obj
 0002:000121e0       _IID_IRunningObjectTable   004a51e0     uuid:objidl_i.obj
 0002:000121f0       _IID_IPersist              004a51f0     uuid:objidl_i.obj
 0002:00012200       _IID_IPersistStream        004a5200     uuid:objidl_i.obj
 0002:00012210       _IID_IMoniker              004a5210     uuid:objidl_i.obj
 0002:00012220       _IID_IROTData              004a5220     uuid:objidl_i.obj
 0002:00012230       _IID_IEnumString           004a5230     uuid:objidl_i.obj
 0002:00012240       _IID_ISequentialStream     004a5240     uuid:objidl_i.obj
 0002:00012250       _IID_IStream               004a5250     uuid:objidl_i.obj
 0002:00012260       _IID_IEnumSTATSTG          004a5260     uuid:objidl_i.obj
 0002:00012270       _IID_IStorage              004a5270     uuid:objidl_i.obj
 0002:00012280       _IID_IPersistFile          004a5280     uuid:objidl_i.obj
 0002:00012290       _IID_IPersistStorage       004a5290     uuid:objidl_i.obj
 0002:000122a0       _IID_ILockBytes            004a52a0     uuid:objidl_i.obj
 0002:000122b0       _IID_IEnumFORMATETC        004a52b0     uuid:objidl_i.obj
 0002:000122c0       _IID_IEnumSTATDATA         004a52c0     uuid:objidl_i.obj
 0002:000122d0       _IID_IRootStorage          004a52d0     uuid:objidl_i.obj
 0002:000122e0       _IID_IAdviseSink           004a52e0     uuid:objidl_i.obj
 0002:000122f0       _IID_AsyncIAdviseSink      004a52f0     uuid:objidl_i.obj
 0002:00012300       _IID_IAdviseSink2          004a5300     uuid:objidl_i.obj
 0002:00012310       _IID_AsyncIAdviseSink2     004a5310     uuid:objidl_i.obj
 0002:00012320       _IID_IDataObject           004a5320     uuid:objidl_i.obj
 0002:00012330       _IID_IDataAdviseHolder     004a5330     uuid:objidl_i.obj
 0002:00012340       _IID_IMessageFilter        004a5340     uuid:objidl_i.obj
 0002:00012350       _IID_IRpcChannelBuffer     004a5350     uuid:objidl_i.obj
 0002:00012360       _IID_IRpcChannelBuffer2    004a5360     uuid:objidl_i.obj
 0002:00012370       _IID_IAsyncRpcChannelBuffer 004a5370     uuid:objidl_i.obj
 0002:00012380       _IID_IRpcChannelBuffer3    004a5380     uuid:objidl_i.obj
 0002:00012390       _IID_IRpcSyntaxNegotiate   004a5390     uuid:objidl_i.obj
 0002:000123a0       _IID_IRpcProxyBuffer       004a53a0     uuid:objidl_i.obj
 0002:000123b0       _IID_IRpcStubBuffer        004a53b0     uuid:objidl_i.obj
 0002:000123c0       _IID_IPSFactoryBuffer      004a53c0     uuid:objidl_i.obj
 0002:000123d0       _IID_IChannelHook          004a53d0     uuid:objidl_i.obj
 0002:000123e0       _IID_IClientSecurity       004a53e0     uuid:objidl_i.obj
 0002:000123f0       _IID_IServerSecurity       004a53f0     uuid:objidl_i.obj
 0002:00012400       _IID_IClassActivator       004a5400     uuid:objidl_i.obj
 0002:00012410       _IID_IRpcOptions           004a5410     uuid:objidl_i.obj
 0002:00012420       _IID_IFillLockBytes        004a5420     uuid:objidl_i.obj
 0002:00012430       _IID_IProgressNotify       004a5430     uuid:objidl_i.obj
 0002:00012440       _IID_ILayoutStorage        004a5440     uuid:objidl_i.obj
 0002:00012450       _IID_IBlockingLock         004a5450     uuid:objidl_i.obj
 0002:00012460       _IID_ITimeAndNoticeControl 004a5460     uuid:objidl_i.obj
 0002:00012470       _IID_IOplockStorage        004a5470     uuid:objidl_i.obj
 0002:00012480       _IID_ISurrogate            004a5480     uuid:objidl_i.obj
 0002:00012490       _IID_IGlobalInterfaceTable 004a5490     uuid:objidl_i.obj
 0002:000124a0       _IID_IDirectWriterLock     004a54a0     uuid:objidl_i.obj
 0002:000124b0       _IID_ISynchronize          004a54b0     uuid:objidl_i.obj
 0002:000124c0       _IID_ISynchronizeHandle    004a54c0     uuid:objidl_i.obj
 0002:000124d0       _IID_ISynchronizeEvent     004a54d0     uuid:objidl_i.obj
 0002:000124e0       _IID_ISynchronizeContainer 004a54e0     uuid:objidl_i.obj
 0002:000124f0       _IID_ISynchronizeMutex     004a54f0     uuid:objidl_i.obj
 0002:00012500       _IID_ICancelMethodCalls    004a5500     uuid:objidl_i.obj
 0002:00012510       _IID_IAsyncManager         004a5510     uuid:objidl_i.obj
 0002:00012520       _IID_ICallFactory          004a5520     uuid:objidl_i.obj
 0002:00012530       _IID_IRpcHelper            004a5530     uuid:objidl_i.obj
 0002:00012540       _IID_IReleaseMarshalBuffers 004a5540     uuid:objidl_i.obj
 0002:00012550       _IID_IWaitMultiple         004a5550     uuid:objidl_i.obj
 0002:00012560       _IID_IUrlMon               004a5560     uuid:objidl_i.obj
 0002:00012570       _IID_IForegroundTransfer   004a5570     uuid:objidl_i.obj
 0002:00012580       _IID_IAddrTrackingControl  004a5580     uuid:objidl_i.obj
 0002:00012590       _IID_IAddrExclusionControl 004a5590     uuid:objidl_i.obj
 0002:000125a0       _IID_IPipeByte             004a55a0     uuid:objidl_i.obj
 0002:000125b0       _IID_AsyncIPipeByte        004a55b0     uuid:objidl_i.obj
 0002:000125c0       _IID_IPipeLong             004a55c0     uuid:objidl_i.obj
 0002:000125d0       _IID_AsyncIPipeLong        004a55d0     uuid:objidl_i.obj
 0002:000125e0       _IID_IPipeDouble           004a55e0     uuid:objidl_i.obj
 0002:000125f0       _IID_AsyncIPipeDouble      004a55f0     uuid:objidl_i.obj
 0002:00012600       _IID_IThumbnailExtractor   004a5600     uuid:objidl_i.obj
 0002:00012610       _IID_IDummyHICONIncluder   004a5610     uuid:objidl_i.obj
 0002:00012620       _IID_IEnumContextProps     004a5620     uuid:objidl_i.obj
 0002:00012630       _IID_IContext              004a5630     uuid:objidl_i.obj
 0002:00012640       _IID_IObjContext           004a5640     uuid:objidl_i.obj
 0002:00012650       _IID_IProcessLock          004a5650     uuid:objidl_i.obj
 0002:00012660       _IID_ISurrogateService     004a5660     uuid:objidl_i.obj
 0002:00012670       _IID_IComThreadingInfo     004a5670     uuid:objidl_i.obj
 0002:00012680       _IID_IProcessInitControl   004a5680     uuid:objidl_i.obj
 0002:00012690       _IID_IInitializeSpy        004a5690     uuid:objidl_i.obj
 0002:000126a0       _IID_IPrintDialogCallback  004a56a0     uuid:shguids2.obj
 0002:000126b0       _IID_IPrintDialogServices  004a56b0     uuid:shguids2.obj
 0002:000126c0       _CLSID_MicrosoftDS         004a56c0     uuid:shguids2.obj
 0002:000126d0       _CLSID_DsPropertyPages     004a56d0     uuid:shguids2.obj
 0002:000126e0       _CLSID_DsDomainTreeBrowser 004a56e0     uuid:shguids2.obj
 0002:000126f0       _IID_IDsBrowseDomainTree   004a56f0     uuid:shguids2.obj
 0002:00012700       _CLSID_DsDisplaySpecifier  004a5700     uuid:shguids2.obj
 0002:00012710       _CLSID_DsFolderProperties  004a5710     uuid:shguids2.obj
 0002:00012720       _IID_IQueryForm            004a5720     uuid:shguids2.obj
 0002:00012730       _IID_IPersistQuery         004a5730     uuid:shguids2.obj
 0002:00012740       _CLSID_CommonQuery         004a5740     uuid:shguids2.obj
 0002:00012750       _IID_ICommonQuery          004a5750     uuid:shguids2.obj
 0002:00012760       _IID_IQueryFrame           004a5760     uuid:shguids2.obj
 0002:00012770       _IID_IQueryHandler         004a5770     uuid:shguids2.obj
 0002:00012780       _CLSID_DsQuery             004a5780     uuid:shguids2.obj
 0002:00012790       _CLSID_DsFindObjects       004a5790     uuid:shguids2.obj
 0002:000127a0       _CLSID_DsFindPeople        004a57a0     uuid:shguids2.obj
 0002:000127b0       _CLSID_DsFindPrinter       004a57b0     uuid:shguids2.obj
 0002:000127c0       _CLSID_DsFindComputer      004a57c0     uuid:shguids2.obj
 0002:000127d0       _CLSID_DsFindVolume        004a57d0     uuid:shguids2.obj
 0002:000127e0       _CLSID_DsFindContainer     004a57e0     uuid:shguids2.obj
 0002:000127f0       _CLSID_DsFindAdvanced      004a57f0     uuid:shguids2.obj
 0002:00012800       _CLSID_DsFindDomainController 004a5800     uuid:shguids2.obj
 0002:00012810       _CLSID_DsFindWriteableDomainController 004a5810     uuid:shguids2.obj
 0002:00012820       _CLSID_DsFindFrsMembers    004a5820     uuid:shguids2.obj
 0002:00012830       _IID_IDsQueryColumnHandler 004a5830     uuid:shguids2.obj
 0002:00012840       _IID_IRunnableTask         004a5840     uuid:shguids2.obj
 0002:00012850       _IID_IShellTaskScheduler   004a5850     uuid:shguids2.obj
 0002:00012860       _IID_IPersistFolder2       004a5860     uuid:shguids2.obj
 0002:00012870       _IID_IPersistFolder3       004a5870     uuid:shguids2.obj
 0002:00012880       _IID_IPersistIDList        004a5880     uuid:shguids2.obj
 0002:00012890       _IID_IEnumFullIDList       004a5890     uuid:shguids2.obj
 0002:000128a0       _IID_IShellView3           004a58a0     uuid:shguids2.obj
 0002:000128b0       _IID_IFolderView           004a58b0     uuid:shguids2.obj
 0002:000128c0       _IID_IFolderView2          004a58c0     uuid:shguids2.obj
 0002:000128d0       _IID_IFolderViewSettings   004a58d0     uuid:shguids2.obj
 0002:000128e0       _IID_IPreviewHandlerVisuals 004a58e0     uuid:shguids2.obj
 0002:000128f0       _IID_IVisualProperties     004a58f0     uuid:shguids2.obj
 0002:00012900       _IID_ICommDlgBrowser3      004a5900     uuid:shguids2.obj
 0002:00012910       _IID_IColumnManager        004a5910     uuid:shguids2.obj
 0002:00012920       _IID_IFolderFilterSite     004a5920     uuid:shguids2.obj
 0002:00012930       _IID_IFolderFilter         004a5930     uuid:shguids2.obj
 0002:00012940       _IID_IInputObjectSite      004a5940     uuid:shguids2.obj
 0002:00012950       _IID_IInputObject          004a5950     uuid:shguids2.obj
 0002:00012960       _IID_IInputObject2         004a5960     uuid:shguids2.obj
 0002:00012970       _IID_IProfferService       004a5970     uuid:shguids2.obj
 0002:00012980       _IID_IShellItem            004a5980     uuid:shguids2.obj
 0002:00012990       _IID_IShellItem2           004a5990     uuid:shguids2.obj
 0002:000129a0       _IID_IShellItemImageFactory 004a59a0     uuid:shguids2.obj
 0002:000129b0       _IID_IEnumShellItems       004a59b0     uuid:shguids2.obj
 0002:000129c0       _IID_ITransferAdviseSink   004a59c0     uuid:shguids2.obj
 0002:000129d0       _IID_ITransferSource       004a59d0     uuid:shguids2.obj
 0002:000129e0       _IID_IEnumResources        004a59e0     uuid:shguids2.obj
 0002:000129f0       _IID_IShellItemResources   004a59f0     uuid:shguids2.obj
 0002:00012a00       _IID_ITransferDestination  004a5a00     uuid:shguids2.obj
 0002:00012a10       _IID_IStreamAsync          004a5a10     uuid:shguids2.obj
 0002:00012a20       _IID_IStreamUnbufferedInfo 004a5a20     uuid:shguids2.obj
 0002:00012a30       _IID_IFileOperationProgressSink 004a5a30     uuid:shguids2.obj
 0002:00012a40       _IID_IShellItemArray       004a5a40     uuid:shguids2.obj
 0002:00012a50       _IID_IInitializeWithItem   004a5a50     uuid:shguids2.obj
 0002:00012a60       _IID_IPropertyUI           004a5a60     uuid:shguids2.obj
 0002:00012a70       _IID_ICategoryProvider     004a5a70     uuid:shguids2.obj
 0002:00012a80       _IID_ICategorizer          004a5a80     uuid:shguids2.obj
 0002:00012a90       _IID_IDropTargetHelper     004a5a90     uuid:shguids2.obj
 0002:00012aa0       _IID_IDragSourceHelper     004a5aa0     uuid:shguids2.obj
 0002:00012ab0       _IID_IDragSourceHelper2    004a5ab0     uuid:shguids2.obj
 0002:00012ac0       _IID_IShellLinkDataList    004a5ac0     uuid:shguids2.obj
 0002:00012ad0       _IID_IResolveShellLink     004a5ad0     uuid:shguids2.obj
 0002:00012ae0       _IID_IActionProgressDialog 004a5ae0     uuid:shguids2.obj
 0002:00012af0       _IID_IHWEventHandler       004a5af0     uuid:shguids2.obj
 0002:00012b00       _IID_IHWEventHandler2      004a5b00     uuid:shguids2.obj
 0002:00012b10       _IID_IQueryCancelAutoPlay  004a5b10     uuid:shguids2.obj
 0002:00012b20       _IID_IDynamicHWHandler     004a5b20     uuid:shguids2.obj
 0002:00012b30       _IID_IActionProgress       004a5b30     uuid:shguids2.obj
 0002:00012b40       _IID_IQueryContinue        004a5b40     uuid:shguids2.obj
 0002:00012b50       _IID_IUserNotification     004a5b50     uuid:shguids2.obj
 0002:00012b60       _IID_IUserNotificationCallback 004a5b60     uuid:shguids2.obj
 0002:00012b70       _IID_IUserNotification2    004a5b70     uuid:shguids2.obj
 0002:00012b80       _IID_IItemNameLimits       004a5b80     uuid:shguids2.obj
 0002:00012b90       _IID_ISearchFolderItemFactory 004a5b90     uuid:shguids2.obj
 0002:00012ba0       _IID_IExtractImage         004a5ba0     uuid:shguids2.obj
 0002:00012bb0       _IID_IExtractImage2        004a5bb0     uuid:shguids2.obj
 0002:00012bc0       _IID_IThumbnailHandlerFactory 004a5bc0     uuid:shguids2.obj
 0002:00012bd0       _IID_IParentAndItem        004a5bd0     uuid:shguids2.obj
 0002:00012be0       _IID_IDockingWindow        004a5be0     uuid:shguids2.obj
 0002:00012bf0       _IID_IDeskBand             004a5bf0     uuid:shguids2.obj
 0002:00012c00       _IID_IDeskBandInfo         004a5c00     uuid:shguids2.obj
 0002:00012c10       _IID_IDeskBand2            004a5c10     uuid:shguids2.obj
 0002:00012c20       _IID_ITaskbarList          004a5c20     uuid:shguids2.obj
 0002:00012c30       _IID_ITaskbarList2         004a5c30     uuid:shguids2.obj
 0002:00012c40       _IID_IStartMenuPinnedList  004a5c40     uuid:shguids2.obj
 0002:00012c50       _IID_ICDBurn               004a5c50     uuid:shguids2.obj
 0002:00012c60       _IID_IWizardSite           004a5c60     uuid:shguids2.obj
 0002:00012c70       _IID_IWizardExtension      004a5c70     uuid:shguids2.obj
 0002:00012c80       _IID_IWebWizardExtension   004a5c80     uuid:shguids2.obj
 0002:00012c90       _IID_IPublishingWizard     004a5c90     uuid:shguids2.obj
 0002:00012ca0       _IID_IFolderViewHost       004a5ca0     uuid:shguids2.obj
 0002:00012cb0       _IID_IExplorerBrowserEvents 004a5cb0     uuid:shguids2.obj
 0002:00012cc0       _IID_IExplorerBrowser      004a5cc0     uuid:shguids2.obj
 0002:00012cd0       _IID_IAccessibleObject     004a5cd0     uuid:shguids2.obj
 0002:00012ce0       _IID_IResultsFolder        004a5ce0     uuid:shguids2.obj
 0002:00012cf0       _IID_IEnumObjects          004a5cf0     uuid:shguids2.obj
 0002:00012d00       _IID_IOperationsProgressDialog 004a5d00     uuid:shguids2.obj
 0002:00012d10       _IID_IOperationsUpdateProgress 004a5d10     uuid:shguids2.obj
 0002:00012d20       _IID_IIOCancelInformation  004a5d20     uuid:shguids2.obj
 0002:00012d30       _IID_IFileOperation        004a5d30     uuid:shguids2.obj
 0002:00012d40       _IID_IObjectProvider       004a5d40     uuid:shguids2.obj
 0002:00012d50       _IID_INamespaceWalkCB      004a5d50     uuid:shguids2.obj
 0002:00012d60       _IID_INamespaceWalkCB2     004a5d60     uuid:shguids2.obj
 0002:00012d70       _IID_INamespaceWalk        004a5d70     uuid:shguids2.obj
 0002:00012d80       _IID_IAutoCompleteDropDown 004a5d80     uuid:shguids2.obj
 0002:00012d90       _IID_IBandSite             004a5d90     uuid:shguids2.obj
 0002:00012da0       _IID_IModalWindow          004a5da0     uuid:shguids2.obj
 0002:00012db0       _IID_ICDBurnExt            004a5db0     uuid:shguids2.obj
 0002:00012dc0       _IID_IContextMenuSite      004a5dc0     uuid:shguids2.obj
 0002:00012dd0       _IID_IEnumReadyCallback    004a5dd0     uuid:shguids2.obj
 0002:00012de0       _IID_IEnumerableView       004a5de0     uuid:shguids2.obj
 0002:00012df0       _IID_IInsertItem           004a5df0     uuid:shguids2.obj
 0002:00012e00       _IID_IMenuBand             004a5e00     uuid:shguids2.obj
 0002:00012e10       _IID_IFolderBandPriv       004a5e10     uuid:shguids2.obj
 0002:00012e20       _IID_IRegTreeItem          004a5e20     uuid:shguids2.obj
 0002:00012e30       _IID_IImageRecompress      004a5e30     uuid:shguids2.obj
 0002:00012e40       _IID_IDeskBar              004a5e40     uuid:shguids2.obj
 0002:00012e50       _IID_IMenuPopup            004a5e50     uuid:shguids2.obj
 0002:00012e60       _IID_IFileIsInUse          004a5e60     uuid:shguids2.obj
 0002:00012e70       _IID_IFileDialogEvents     004a5e70     uuid:shguids2.obj
 0002:00012e80       _IID_IFileDialog           004a5e80     uuid:shguids2.obj
 0002:00012e90       _IID_IFileSaveDialog       004a5e90     uuid:shguids2.obj
 0002:00012ea0       _IID_IFileOpenDialog       004a5ea0     uuid:shguids2.obj
 0002:00012eb0       _IID_IFileDialogCustomize  004a5eb0     uuid:shguids2.obj
 0002:00012ec0       _IID_IFileDialogControlEvents 004a5ec0     uuid:shguids2.obj
 0002:00012ed0       _IID_IApplicationAssociationRegistration 004a5ed0     uuid:shguids2.obj
 0002:00012ee0       _IID_IApplicationAssociationRegistrationUI 004a5ee0     uuid:shguids2.obj
 0002:00012ef0       _IID_IDelegateFolder       004a5ef0     uuid:shguids2.obj
 0002:00012f00       _IID_IBrowserFrameOptions  004a5f00     uuid:shguids2.obj
 0002:00012f10       _IID_INewWindowManager     004a5f10     uuid:shguids2.obj
 0002:00012f20       _IID_IAttachmentExecute    004a5f20     uuid:shguids2.obj
 0002:00012f30       _IID_IShellMenuCallback    004a5f30     uuid:shguids2.obj
 0002:00012f40       _IID_IShellMenu            004a5f40     uuid:shguids2.obj
 0002:00012f50       _IID_IShellRunDll          004a5f50     uuid:shguids2.obj
 0002:00012f60       _IID_IKnownFolder          004a5f60     uuid:shguids2.obj
 0002:00012f70       _IID_IKnownFolderManager   004a5f70     uuid:shguids2.obj
 0002:00012f80       _IID_ISharingConfigurationManager 004a5f80     uuid:shguids2.obj
 0002:00012f90       _IID_IPreviousVersionsInfo 004a5f90     uuid:shguids2.obj
 0002:00012fa0       _IID_IRelatedItem          004a5fa0     uuid:shguids2.obj
 0002:00012fb0       _IID_IIdentityName         004a5fb0     uuid:shguids2.obj
 0002:00012fc0       _IID_ICurrentItem          004a5fc0     uuid:shguids2.obj
 0002:00012fd0       _IID_ITransferMediumItem   004a5fd0     uuid:shguids2.obj
 0002:00012fe0       _IID_IUseToBrowseItem      004a5fe0     uuid:shguids2.obj
 0002:00012ff0       _IID_IDisplayItem          004a5ff0     uuid:shguids2.obj
 0002:00013000       _IID_IDestinationStreamFactory 004a6000     uuid:shguids2.obj
 0002:00013010       _IID_IShellItemFilter      004a6010     uuid:shguids2.obj
 0002:00013020       _IID_INameSpaceTreeControl 004a6020     uuid:shguids2.obj
 0002:00013030       _IID_INameSpaceTreeControlEvents 004a6030     uuid:shguids2.obj
 0002:00013040       _IID_INameSpaceTreeControlDropHandler 004a6040     uuid:shguids2.obj
 0002:00013050       _IID_INameSpaceTreeAccessible 004a6050     uuid:shguids2.obj
 0002:00013060       _IID_INameSpaceTreeControlCustomDraw 004a6060     uuid:shguids2.obj
 0002:00013070       _IID_IPreviewHandler       004a6070     uuid:shguids2.obj
 0002:00013080       _IID_IPreviewHandlerFrame  004a6080     uuid:shguids2.obj
 0002:00013090       _IID_ITrayDeskBand         004a6090     uuid:shguids2.obj
 0002:000130a0       _IID_IBandHost             004a60a0     uuid:shguids2.obj
 0002:000130b0       _IID_IExplorerPaneVisibility 004a60b0     uuid:shguids2.obj
 0002:000130c0       _IID_IContextMenuCB        004a60c0     uuid:shguids2.obj
 0002:000130d0       _IID_IDefaultExtractIconInit 004a60d0     uuid:shguids2.obj
 0002:000130e0       _IID_IExplorerCommand      004a60e0     uuid:shguids2.obj
 0002:000130f0       _IID_IEnumExplorerCommand  004a60f0     uuid:shguids2.obj
 0002:00013100       _IID_IExplorerCommandProvider 004a6100     uuid:shguids2.obj
 0002:00013110       _IID_IMarkupCallback       004a6110     uuid:shguids2.obj
 0002:00013120       _IID_IControlMarkup        004a6120     uuid:shguids2.obj
 0002:00013130       _IID_IInitializeNetworkFolder 004a6130     uuid:shguids2.obj
 0002:00013140       _IID_IOpenControlPanel     004a6140     uuid:shguids2.obj
 0002:00013150       _IID_ISystemCPLUpdate      004a6150     uuid:shguids2.obj
 0002:00013160       _IID_IComputerInfoAdvise   004a6160     uuid:shguids2.obj
 0002:00013170       _IID_IComputerInfoChangeNotify 004a6170     uuid:shguids2.obj
 0002:00013180       _IID_IFileSystemBindData2  004a6180     uuid:shguids2.obj
 0002:00013190       _LIBID_ShellObjects        004a6190     uuid:shguids2.obj
 0002:000131a0       _CLSID_ShellDesktop        004a61a0     uuid:shguids2.obj
 0002:000131b0       _CLSID_ShellFSFolder       004a61b0     uuid:shguids2.obj
 0002:000131c0       _CLSID_NetworkPlaces       004a61c0     uuid:shguids2.obj
 0002:000131d0       _CLSID_ShellLink           004a61d0     uuid:shguids2.obj
 0002:000131e0       _CLSID_QueryCancelAutoPlay 004a61e0     uuid:shguids2.obj
 0002:000131f0       _CLSID_DriveSizeCategorizer 004a61f0     uuid:shguids2.obj
 0002:00013200       _CLSID_DriveTypeCategorizer 004a6200     uuid:shguids2.obj
 0002:00013210       _CLSID_FreeSpaceCategorizer 004a6210     uuid:shguids2.obj
 0002:00013220       _CLSID_TimeCategorizer     004a6220     uuid:shguids2.obj
 0002:00013230       _CLSID_SizeCategorizer     004a6230     uuid:shguids2.obj
 0002:00013240       _CLSID_AlphabeticalCategorizer 004a6240     uuid:shguids2.obj
 0002:00013250       _CLSID_MergedCategorizer   004a6250     uuid:shguids2.obj
 0002:00013260       _CLSID_ImageProperties     004a6260     uuid:shguids2.obj
 0002:00013270       _CLSID_PropertiesUI        004a6270     uuid:shguids2.obj
 0002:00013280       _CLSID_UserNotification    004a6280     uuid:shguids2.obj
 0002:00013290       _CLSID_CDBurn              004a6290     uuid:shguids2.obj
 0002:000132a0       _CLSID_TaskbarList         004a62a0     uuid:shguids2.obj
 0002:000132b0       _CLSID_StartMenuPin        004a62b0     uuid:shguids2.obj
 0002:000132c0       _CLSID_WebWizardHost       004a62c0     uuid:shguids2.obj
 0002:000132d0       _CLSID_PublishDropTarget   004a62d0     uuid:shguids2.obj
 0002:000132e0       _CLSID_PublishingWizard    004a62e0     uuid:shguids2.obj
 0002:000132f0       _CLSID_InternetPrintOrdering 004a62f0     uuid:shguids2.obj
 0002:00013300       _CLSID_FolderViewHost      004a6300     uuid:shguids2.obj
 0002:00013310       _CLSID_ExplorerBrowser     004a6310     uuid:shguids2.obj
 0002:00013320       _CLSID_ImageRecompress     004a6320     uuid:shguids2.obj
 0002:00013330       _CLSID_TrayBandSiteService 004a6330     uuid:shguids2.obj
 0002:00013340       _CLSID_TrayDeskBand        004a6340     uuid:shguids2.obj
 0002:00013350       _CLSID_AttachmentServices  004a6350     uuid:shguids2.obj
 0002:00013360       _CLSID_DocPropShellExtension 004a6360     uuid:shguids2.obj
 0002:00013370       _CLSID_ShellItem           004a6370     uuid:shguids2.obj
 0002:00013380       _CLSID_NamespaceWalker     004a6380     uuid:shguids2.obj
 0002:00013390       _CLSID_FileOperation       004a6390     uuid:shguids2.obj
 0002:000133a0       _CLSID_FileOpenDialog      004a63a0     uuid:shguids2.obj
 0002:000133b0       _CLSID_FileSaveDialog      004a63b0     uuid:shguids2.obj
 0002:000133c0       _CLSID_KnownFolderManager  004a63c0     uuid:shguids2.obj
 0002:000133d0       _CLSID_FSCopyHandler       004a63d0     uuid:shguids2.obj
 0002:000133e0       _CLSID_SharingConfigurationManager 004a63e0     uuid:shguids2.obj
 0002:000133f0       _CLSID_PreviousVersions    004a63f0     uuid:shguids2.obj
 0002:00013400       _CLSID_NetworkConnections  004a6400     uuid:shguids2.obj
 0002:00013410       _CLSID_NamespaceTreeControl 004a6410     uuid:shguids2.obj
 0002:00013420       _CLSID_IENamespaceTreeControl 004a6420     uuid:shguids2.obj
 0002:00013430       _CLSID_ScheduledTasks      004a6430     uuid:shguids2.obj
 0002:00013440       _CLSID_ApplicationAssociationRegistration 004a6440     uuid:shguids2.obj
 0002:00013450       _CLSID_ApplicationAssociationRegistrationUI 004a6450     uuid:shguids2.obj
 0002:00013460       _CLSID_SearchFolderItemFactory 004a6460     uuid:shguids2.obj
 0002:00013470       _CLSID_OpenControlPanel    004a6470     uuid:shguids2.obj
 0002:00013480       _CLSID_ComputerInfoAdvise  004a6480     uuid:shguids2.obj
 0002:00013490       _CLSID_NetworkExplorerFolder 004a6490     uuid:shguids2.obj
 0002:000134a0       _IID_IAssocHandlerInvoker  004a64a0     uuid:shguids2.obj
 0002:000134b0       _IID_IAssocHandler         004a64b0     uuid:shguids2.obj
 0002:000134c0       _IID_IEnumAssocHandlers    004a64c0     uuid:shguids2.obj
 0002:000134d0       _GUID_NULL                 004a64d0     uuid:cguid_i.obj
 0002:000134e0       _CATID_MARSHALER           004a64e0     uuid:cguid_i.obj
 0002:000134f0       _IID_IRpcChannel           004a64f0     uuid:cguid_i.obj
 0002:00013500       _IID_IRpcStub              004a6500     uuid:cguid_i.obj
 0002:00013510       _IID_IStubManager          004a6510     uuid:cguid_i.obj
 0002:00013520       _IID_IRpcProxy             004a6520     uuid:cguid_i.obj
 0002:00013530       _IID_IProxyManager         004a6530     uuid:cguid_i.obj
 0002:00013540       _IID_IPSFactory            004a6540     uuid:cguid_i.obj
 0002:00013550       _IID_IInternalMoniker      004a6550     uuid:cguid_i.obj
 0002:00013560       _IID_IDfReserved1          004a6560     uuid:cguid_i.obj
 0002:00013570       _IID_IDfReserved2          004a6570     uuid:cguid_i.obj
 0002:00013580       _IID_IDfReserved3          004a6580     uuid:cguid_i.obj
 0002:00013590       _CLSID_StdMarshal          004a6590     uuid:cguid_i.obj
 0002:000135a0       _IID_IStub                 004a65a0     uuid:cguid_i.obj
 0002:000135b0       _IID_IProxy                004a65b0     uuid:cguid_i.obj
 0002:000135c0       _IID_IEnumGeneric          004a65c0     uuid:cguid_i.obj
 0002:000135d0       _IID_IEnumHolder           004a65d0     uuid:cguid_i.obj
 0002:000135e0       _IID_IEnumCallback         004a65e0     uuid:cguid_i.obj
 0002:000135f0       _IID_IOleManager           004a65f0     uuid:cguid_i.obj
 0002:00013600       _IID_IOlePresObj           004a6600     uuid:cguid_i.obj
 0002:00013610       _IID_IDebug                004a6610     uuid:cguid_i.obj
 0002:00013620       _IID_IDebugStream          004a6620     uuid:cguid_i.obj
 0002:00013630       _CLSID_PSGenObject         004a6630     uuid:cguid_i.obj
 0002:00013640       _CLSID_PSClientSite        004a6640     uuid:cguid_i.obj
 0002:00013650       _CLSID_PSClassObject       004a6650     uuid:cguid_i.obj
 0002:00013660       _CLSID_PSInPlaceActive     004a6660     uuid:cguid_i.obj
 0002:00013670       _CLSID_PSInPlaceFrame      004a6670     uuid:cguid_i.obj
 0002:00013680       _CLSID_PSDragDrop          004a6680     uuid:cguid_i.obj
 0002:00013690       _CLSID_PSBindCtx           004a6690     uuid:cguid_i.obj
 0002:000136a0       _CLSID_PSEnumerators       004a66a0     uuid:cguid_i.obj
 0002:000136b0       _CLSID_StaticMetafile      004a66b0     uuid:cguid_i.obj
 0002:000136c0       _CLSID_StaticDib           004a66c0     uuid:cguid_i.obj
 0002:000136d0       _CLSID_Picture_Metafile    004a66d0     uuid:cguid_i.obj
 0002:000136e0       _CLSID_Picture_EnhMetafile 004a66e0     uuid:cguid_i.obj
 0002:000136f0       _CLSID_Picture_Dib         004a66f0     uuid:cguid_i.obj
 0002:00013700       _CLSID_DCOMAccessControl   004a6700     uuid:cguid_i.obj
 0002:00013710       _CLSID_StdGlobalInterfaceTable 004a6710     uuid:cguid_i.obj
 0002:00013720       _CLSID_ManualResetEvent    004a6720     uuid:cguid_i.obj
 0002:00013730       _CLSID_StdEvent            004a6730     uuid:cguid_i.obj
 0002:00013740       _CLSID_SynchronizeContainer 004a6740     uuid:cguid_i.obj
 0002:00013750       _CLSID_ComBinding          004a6750     uuid:cguid_i.obj
 0002:00013760       _CLSID_StdAsyncActManager  004a6760     uuid:cguid_i.obj
 0002:00013770       _CLSID_InProcFreeMarshaler 004a6770     uuid:cguid_i.obj
 0002:00013780       _CLSID_RemoteUnknownPSFactory 004a6780     uuid:cguid_i.obj
 0002:00013790       _IID_IRichEditOle          004a6790     uuid:cguid_i.obj
 0002:000137a0       _IID_IRichEditOleCallback  004a67a0     uuid:cguid_i.obj
 0002:000137b0       _CLSID_AllClasses          004a67b0     uuid:cguid_i.obj
 0002:000137c0       _CLSID_LocalMachineClasses 004a67c0     uuid:cguid_i.obj
 0002:000137d0       _CLSID_CurrentUserClasses  004a67d0     uuid:cguid_i.obj
 0002:000137e0       _CLSID_AddrControl         004a67e0     uuid:cguid_i.obj
 0002:000137f0       _CLSID_GlobalOptions       004a67f0     uuid:cguid_i.obj
 0002:00013800       _CLSID_SurrogateManager    004a6800     uuid:cguid_i.obj
 0002:00013810       _CLSID_ContextSwitcher     004a6810     uuid:cguid_i.obj
 0002:00013820       _IID_IPropertyFrame        004a6820     uuid:cguid_i.obj
 0002:00013830       _CLSID_CFontPropPage       004a6830     uuid:cguid_i.obj
 0002:00013840       _CLSID_CColorPropPage      004a6840     uuid:cguid_i.obj
 0002:00013850       _CLSID_CPicturePropPage    004a6850     uuid:cguid_i.obj
 0002:00013860       _CLSID_StockFontPage       004a6860     uuid:cguid_i.obj
 0002:00013870       _CLSID_StockColorPage      004a6870     uuid:cguid_i.obj
 0002:00013880       _CLSID_StockPicturePage    004a6880     uuid:cguid_i.obj
 0002:00013890       _CLSID_PersistPropset      004a6890     uuid:cguid_i.obj
 0002:000138a0       _CLSID_ConvertVBX          004a68a0     uuid:cguid_i.obj
 0002:000138b0       _CLSID_StdFont             004a68b0     uuid:cguid_i.obj
 0002:000138c0       _CLSID_StdPicture          004a68c0     uuid:cguid_i.obj
 0002:000138d0       _GUID_HIMETRIC             004a68d0     uuid:cguid_i.obj
 0002:000138e0       _GUID_COLOR                004a68e0     uuid:cguid_i.obj
 0002:000138f0       _GUID_XPOSPIXEL            004a68f0     uuid:cguid_i.obj
 0002:00013900       _GUID_YPOSPIXEL            004a6900     uuid:cguid_i.obj
 0002:00013910       _GUID_XSIZEPIXEL           004a6910     uuid:cguid_i.obj
 0002:00013920       _GUID_YSIZEPIXEL           004a6920     uuid:cguid_i.obj
 0002:00013930       _GUID_XPOS                 004a6930     uuid:cguid_i.obj
 0002:00013940       _GUID_YPOS                 004a6940     uuid:cguid_i.obj
 0002:00013950       _GUID_XSIZE                004a6950     uuid:cguid_i.obj
 0002:00013960       _GUID_YSIZE                004a6960     uuid:cguid_i.obj
 0002:00013970       _GUID_TRISTATE             004a6970     uuid:cguid_i.obj
 0002:00013980       _GUID_OPTIONVALUEEXCLUSIVE 004a6980     uuid:cguid_i.obj
 0002:00013990       _GUID_CHECKVALUEEXCLUSIVE  004a6990     uuid:cguid_i.obj
 0002:000139a0       _GUID_FONTNAME             004a69a0     uuid:cguid_i.obj
 0002:000139b0       _GUID_FONTSIZE             004a69b0     uuid:cguid_i.obj
 0002:000139c0       _GUID_FONTBOLD             004a69c0     uuid:cguid_i.obj
 0002:000139d0       _GUID_FONTITALIC           004a69d0     uuid:cguid_i.obj
 0002:000139e0       _GUID_FONTUNDERSCORE       004a69e0     uuid:cguid_i.obj
 0002:000139f0       _GUID_FONTSTRIKETHROUGH    004a69f0     uuid:cguid_i.obj
 0002:00013a00       _GUID_HANDLE               004a6a00     uuid:cguid_i.obj
 0002:00013a10       _IID_StdOle                004a6a10     uuid:cguid_i.obj
 0002:00013a20       _IID_ICursor               004a6a20     uuid:cguid_i.obj
 0002:00013a30       _IID_ICursorMove           004a6a30     uuid:cguid_i.obj
 0002:00013a40       _IID_ICursorScroll         004a6a40     uuid:cguid_i.obj
 0002:00013a50       _IID_ICursorUpdateARow     004a6a50     uuid:cguid_i.obj
 0002:00013a60       _IID_INotifyDBEvents       004a6a60     uuid:cguid_i.obj
 0002:00013a70       _IID_ICursorFind           004a6a70     uuid:cguid_i.obj
 0002:00013a80       _IID_IEntryID              004a6a80     uuid:cguid_i.obj
 0002:00013a90       __GUID_NAMEONLY            004a6a90     uuid:cguid_i.obj
 0002:00013aa0       __DBBMKGUID                004a6aa0     uuid:cguid_i.obj
 0002:00013ab0       __DBCIDGUID                004a6ab0     uuid:cguid_i.obj
 0002:00013ac0       _IID_IBoundObject          004a6ac0     uuid:cguid_i.obj
 0002:00013ad0       _IID_IBoundObjectSite      004a6ad0     uuid:cguid_i.obj
 0002:00013ae0       _CLSID_GblComponentCategoriesMgr 004a6ae0     uuid:cguid_i.obj
 0002:00013af0       _CLSID_ThumbnailFCNHandler 004a6af0     uuid:cguid_i.obj
 0002:00013b00       _CLSID_ThumbnailUpdater    004a6b00     uuid:cguid_i.obj
 0002:00013b10       _GUID_DEVCLASS_1394        004a6b10     uuid:cguid_i.obj
 0002:00013b20       _GUID_DEVCLASS_1394DEBUG   004a6b20     uuid:cguid_i.obj
 0002:00013b30       _GUID_DEVCLASS_61883       004a6b30     uuid:cguid_i.obj
 0002:00013b40       _GUID_DEVCLASS_ADAPTER     004a6b40     uuid:cguid_i.obj
 0002:00013b50       _GUID_DEVCLASS_APMSUPPORT  004a6b50     uuid:cguid_i.obj
 0002:00013b60       _GUID_DEVCLASS_AVC         004a6b60     uuid:cguid_i.obj
 0002:00013b70       _GUID_DEVCLASS_BATTERY     004a6b70     uuid:cguid_i.obj
 0002:00013b80       _GUID_DEVCLASS_BIOMETRIC   004a6b80     uuid:cguid_i.obj
 0002:00013b90       _GUID_DEVCLASS_BLUETOOTH   004a6b90     uuid:cguid_i.obj
 0002:00013ba0       _GUID_DEVCLASS_CDROM       004a6ba0     uuid:cguid_i.obj
 0002:00013bb0       _GUID_DEVCLASS_COMPUTER    004a6bb0     uuid:cguid_i.obj
 0002:00013bc0       _GUID_DEVCLASS_DECODER     004a6bc0     uuid:cguid_i.obj
 0002:00013bd0       _GUID_DEVCLASS_DISKDRIVE   004a6bd0     uuid:cguid_i.obj
 0002:00013be0       _GUID_DEVCLASS_DISPLAY     004a6be0     uuid:cguid_i.obj
 0002:00013bf0       _GUID_DEVCLASS_DOT4        004a6bf0     uuid:cguid_i.obj
 0002:00013c00       _GUID_DEVCLASS_DOT4PRINT   004a6c00     uuid:cguid_i.obj
 0002:00013c10       _GUID_DEVCLASS_ENUM1394    004a6c10     uuid:cguid_i.obj
 0002:00013c20       _GUID_DEVCLASS_FDC         004a6c20     uuid:cguid_i.obj
 0002:00013c30       _GUID_DEVCLASS_FLOPPYDISK  004a6c30     uuid:cguid_i.obj
 0002:00013c40       _GUID_DEVCLASS_GPS         004a6c40     uuid:cguid_i.obj
 0002:00013c50       _GUID_DEVCLASS_HDC         004a6c50     uuid:cguid_i.obj
 0002:00013c60       _GUID_DEVCLASS_HIDCLASS    004a6c60     uuid:cguid_i.obj
 0002:00013c70       _GUID_DEVCLASS_IMAGE       004a6c70     uuid:cguid_i.obj
 0002:00013c80       _GUID_DEVCLASS_INFINIBAND  004a6c80     uuid:cguid_i.obj
 0002:00013c90       _GUID_DEVCLASS_INFRARED    004a6c90     uuid:cguid_i.obj
 0002:00013ca0       _GUID_DEVCLASS_KEYBOARD    004a6ca0     uuid:cguid_i.obj
 0002:00013cb0       _GUID_DEVCLASS_LEGACYDRIVER 004a6cb0     uuid:cguid_i.obj
 0002:00013cc0       _GUID_DEVCLASS_MEDIA       004a6cc0     uuid:cguid_i.obj
 0002:00013cd0       _GUID_DEVCLASS_MEDIUM_CHANGER 004a6cd0     uuid:cguid_i.obj
 0002:00013ce0       _GUID_DEVCLASS_MODEM       004a6ce0     uuid:cguid_i.obj
 0002:00013cf0       _GUID_DEVCLASS_MONITOR     004a6cf0     uuid:cguid_i.obj
 0002:00013d00       _GUID_DEVCLASS_MOUSE       004a6d00     uuid:cguid_i.obj
 0002:00013d10       _GUID_DEVCLASS_MTD         004a6d10     uuid:cguid_i.obj
 0002:00013d20       _GUID_DEVCLASS_MULTIFUNCTION 004a6d20     uuid:cguid_i.obj
 0002:00013d30       _GUID_DEVCLASS_MULTIPORTSERIAL 004a6d30     uuid:cguid_i.obj
 0002:00013d40       _GUID_DEVCLASS_NET         004a6d40     uuid:cguid_i.obj
 0002:00013d50       _GUID_DEVCLASS_NETCLIENT   004a6d50     uuid:cguid_i.obj
 0002:00013d60       _GUID_DEVCLASS_NETSERVICE  004a6d60     uuid:cguid_i.obj
 0002:00013d70       _GUID_DEVCLASS_NETTRANS    004a6d70     uuid:cguid_i.obj
 0002:00013d80       _GUID_DEVCLASS_NODRIVER    004a6d80     uuid:cguid_i.obj
 0002:00013d90       _GUID_DEVCLASS_PCMCIA      004a6d90     uuid:cguid_i.obj
 0002:00013da0       _GUID_DEVCLASS_PNPPRINTERS 004a6da0     uuid:cguid_i.obj
 0002:00013db0       _GUID_DEVCLASS_PORTS       004a6db0     uuid:cguid_i.obj
 0002:00013dc0       _GUID_DEVCLASS_PRINTER     004a6dc0     uuid:cguid_i.obj
 0002:00013dd0       _GUID_DEVCLASS_PRINTERUPGRADE 004a6dd0     uuid:cguid_i.obj
 0002:00013de0       _GUID_DEVCLASS_PROCESSOR   004a6de0     uuid:cguid_i.obj
 0002:00013df0       _GUID_DEVCLASS_SBP2        004a6df0     uuid:cguid_i.obj
 0002:00013e00       _GUID_DEVCLASS_SCSIADAPTER 004a6e00     uuid:cguid_i.obj
 0002:00013e10       _GUID_DEVCLASS_SECURITYACCELERATOR 004a6e10     uuid:cguid_i.obj
 0002:00013e20       _GUID_DEVCLASS_SIDESHOW    004a6e20     uuid:cguid_i.obj
 0002:00013e30       _GUID_DEVCLASS_SMARTCARDREADER 004a6e30     uuid:cguid_i.obj
 0002:00013e40       _GUID_DEVCLASS_SOUND       004a6e40     uuid:cguid_i.obj
 0002:00013e50       _GUID_DEVCLASS_SYSTEM      004a6e50     uuid:cguid_i.obj
 0002:00013e60       _GUID_DEVCLASS_TAPEDRIVE   004a6e60     uuid:cguid_i.obj
 0002:00013e70       _GUID_DEVCLASS_UNKNOWN     004a6e70     uuid:cguid_i.obj
 0002:00013e80       _GUID_DEVCLASS_USB         004a6e80     uuid:cguid_i.obj
 0002:00013e90       _GUID_DEVCLASS_VOLUME      004a6e90     uuid:cguid_i.obj
 0002:00013ea0       _GUID_DEVCLASS_VOLUMESNAPSHOT 004a6ea0     uuid:cguid_i.obj
 0002:00013eb0       _GUID_DEVCLASS_WCEUSBS     004a6eb0     uuid:cguid_i.obj
 0002:00013ec0       _GUID_DEVCLASS_WPD         004a6ec0     uuid:cguid_i.obj
 0002:00013ed0       _GUID_DEVCLASS_FSFILTER_ACTIVITYMONITOR 004a6ed0     uuid:cguid_i.obj
 0002:00013ee0       _GUID_DEVCLASS_FSFILTER_UNDELETE 004a6ee0     uuid:cguid_i.obj
 0002:00013ef0       _GUID_DEVCLASS_FSFILTER_ANTIVIRUS 004a6ef0     uuid:cguid_i.obj
 0002:00013f00       _GUID_DEVCLASS_FSFILTER_REPLICATION 004a6f00     uuid:cguid_i.obj
 0002:00013f10       _GUID_DEVCLASS_FSFILTER_CONTINUOUSBACKUP 004a6f10     uuid:cguid_i.obj
 0002:00013f20       _GUID_DEVCLASS_FSFILTER_CONTENTSCREENER 004a6f20     uuid:cguid_i.obj
 0002:00013f30       _GUID_DEVCLASS_FSFILTER_QUOTAMANAGEMENT 004a6f30     uuid:cguid_i.obj
 0002:00013f40       _GUID_DEVCLASS_FSFILTER_SYSTEMRECOVERY 004a6f40     uuid:cguid_i.obj
 0002:00013f50       _GUID_DEVCLASS_FSFILTER_CFSMETADATASERVER 004a6f50     uuid:cguid_i.obj
 0002:00013f60       _GUID_DEVCLASS_FSFILTER_HSM 004a6f60     uuid:cguid_i.obj
 0002:00013f70       _GUID_DEVCLASS_FSFILTER_COMPRESSION 004a6f70     uuid:cguid_i.obj
 0002:00013f80       _GUID_DEVCLASS_FSFILTER_ENCRYPTION 004a6f80     uuid:cguid_i.obj
 0002:00013f90       _GUID_DEVCLASS_FSFILTER_PHYSICALQUOTAMANAGEMENT 004a6f90     uuid:cguid_i.obj
 0002:00013fa0       _GUID_DEVCLASS_FSFILTER_OPENFILEBACKUP 004a6fa0     uuid:cguid_i.obj
 0002:00013fb0       _GUID_DEVCLASS_FSFILTER_SECURITYENHANCER 004a6fb0     uuid:cguid_i.obj
 0002:00013fc0       _GUID_DEVCLASS_FSFILTER_COPYPROTECTION 004a6fc0     uuid:cguid_i.obj
 0002:00013fd0       _GUID_DEVCLASS_FSFILTER_SYSTEM 004a6fd0     uuid:cguid_i.obj
 0002:00013fe0       _GUID_DEVCLASS_FSFILTER_INFRASTRUCTURE 004a6fe0     uuid:cguid_i.obj
 0002:00013ff0       _GUID_DEVINTERFACE_DISK    004a6ff0     uuid:cguid_i.obj
 0002:00014000       _GUID_DEVINTERFACE_CDROM   004a7000     uuid:cguid_i.obj
 0002:00014010       _GUID_DEVINTERFACE_PARTITION 004a7010     uuid:cguid_i.obj
 0002:00014020       _GUID_DEVINTERFACE_TAPE    004a7020     uuid:cguid_i.obj
 0002:00014030       _GUID_DEVINTERFACE_WRITEONCEDISK 004a7030     uuid:cguid_i.obj
 0002:00014040       _GUID_DEVINTERFACE_VOLUME  004a7040     uuid:cguid_i.obj
 0002:00014050       _GUID_DEVINTERFACE_MEDIUMCHANGER 004a7050     uuid:cguid_i.obj
 0002:00014060       _GUID_DEVINTERFACE_FLOPPY  004a7060     uuid:cguid_i.obj
 0002:00014070       _GUID_DEVINTERFACE_CDCHANGER 004a7070     uuid:cguid_i.obj
 0002:00014080       _GUID_DEVINTERFACE_STORAGEPORT 004a7080     uuid:cguid_i.obj
 0002:00014090       _GUID_DEVINTERFACE_COMPORT 004a7090     uuid:cguid_i.obj
 0002:000140a0       _GUID_DEVINTERFACE_SERENUM_BUS_ENUMERATOR 004a70a0     uuid:cguid_i.obj
 0002:000140b0       _IID_IEnumConnections      004a70b0     uuid:ocidl_i.obj
 0002:000140c0       _IID_IConnectionPoint      004a70c0     uuid:ocidl_i.obj
 0002:000140d0       _IID_IEnumConnectionPoints 004a70d0     uuid:ocidl_i.obj
 0002:000140e0       _IID_IConnectionPointContainer 004a70e0     uuid:ocidl_i.obj
 0002:000140f0       _IID_IClassFactory2        004a70f0     uuid:ocidl_i.obj
 0002:00014100       _IID_IProvideClassInfo     004a7100     uuid:ocidl_i.obj
 0002:00014110       _IID_IProvideClassInfo2    004a7110     uuid:ocidl_i.obj
 0002:00014120       _IID_IProvideMultipleClassInfo 004a7120     uuid:ocidl_i.obj
 0002:00014130       _IID_IOleControl           004a7130     uuid:ocidl_i.obj
 0002:00014140       _IID_IOleControlSite       004a7140     uuid:ocidl_i.obj
 0002:00014150       _IID_IPropertyPage         004a7150     uuid:ocidl_i.obj
 0002:00014160       _IID_IPropertyPage2        004a7160     uuid:ocidl_i.obj
 0002:00014170       _IID_IPropertyPageSite     004a7170     uuid:ocidl_i.obj
 0002:00014180       _IID_IPropertyNotifySink   004a7180     uuid:ocidl_i.obj
 0002:00014190       _IID_ISpecifyPropertyPages 004a7190     uuid:ocidl_i.obj
 0002:000141a0       _IID_IPersistMemory        004a71a0     uuid:ocidl_i.obj
 0002:000141b0       _IID_IPersistStreamInit    004a71b0     uuid:ocidl_i.obj
 0002:000141c0       _IID_IPersistPropertyBag   004a71c0     uuid:ocidl_i.obj
 0002:000141d0       _IID_ISimpleFrameSite      004a71d0     uuid:ocidl_i.obj
 0002:000141e0       _IID_IFont                 004a71e0     uuid:ocidl_i.obj
 0002:000141f0       _IID_IPicture              004a71f0     uuid:ocidl_i.obj
 0002:00014200       _IID_IPicture2             004a7200     uuid:ocidl_i.obj
 0002:00014210       _IID_IFontEventsDisp       004a7210     uuid:ocidl_i.obj
 0002:00014220       _IID_IFontDisp             004a7220     uuid:ocidl_i.obj
 0002:00014230       _IID_IPictureDisp          004a7230     uuid:ocidl_i.obj
 0002:00014240       _IID_IOleInPlaceObjectWindowless 004a7240     uuid:ocidl_i.obj
 0002:00014250       _IID_IOleInPlaceSiteEx     004a7250     uuid:ocidl_i.obj
 0002:00014260       _IID_IOleInPlaceSiteWindowless 004a7260     uuid:ocidl_i.obj
 0002:00014270       _IID_IViewObjectEx         004a7270     uuid:ocidl_i.obj
 0002:00014280       _IID_IOleUndoUnit          004a7280     uuid:ocidl_i.obj
 0002:00014290       _IID_IOleParentUndoUnit    004a7290     uuid:ocidl_i.obj
 0002:000142a0       _IID_IEnumOleUndoUnits     004a72a0     uuid:ocidl_i.obj
 0002:000142b0       _IID_IOleUndoManager       004a72b0     uuid:ocidl_i.obj
 0002:000142c0       _IID_IPointerInactive      004a72c0     uuid:ocidl_i.obj
 0002:000142d0       _IID_IObjectWithSite       004a72d0     uuid:ocidl_i.obj
 0002:000142e0       _IID_IPerPropertyBrowsing  004a72e0     uuid:ocidl_i.obj
 0002:000142f0       _IID_IPropertyBag2         004a72f0     uuid:ocidl_i.obj
 0002:00014300       _IID_IPersistPropertyBag2  004a7300     uuid:ocidl_i.obj
 0002:00014310       _IID_IAdviseSinkEx         004a7310     uuid:ocidl_i.obj
 0002:00014320       _IID_IQuickActivate        004a7320     uuid:ocidl_i.obj
 0002:00014334       ??_7type_info@@6B@         004a7334     MSVCRTD:ti_inst.obj
 0002:00014338       ??_C@_0BO@GNIAFIKK@Unknown?5Runtime?5Check?5Error?6?$AN?$AA@ 004a7338     MSVCRTD:_error_.obj
 0002:00014358       ??_C@_0CM@NGINOKPC@Stack?5memory?5around?5_alloca?5was?5@ 004a7358     MSVCRTD:_error_.obj
 0002:00014384       ??_C@_0DG@HKJMLLLP@A?5local?5variable?5was?5used?5before@ 004a7384     MSVCRTD:_error_.obj
 0002:000143bc       ??_C@_0BN@FFOINMNJ@Stack?5memory?5was?5corrupted?6?$AN?$AA@ 004a73bc     MSVCRTD:_error_.obj
 0002:000143e0       ??_C@_0BBN@GPMLNJCF@A?5cast?5to?5a?5smaller?5data?5type?5ha@ 004a73e0     MSVCRTD:_error_.obj
 0002:00014500       ??_C@_0NN@NGPKDKPD@The?5value?5of?5ESP?5was?5not?5properl@ 004a7500     MSVCRTD:_error_.obj
 0002:0001467c       ??_C@_0CA@IODNCDPG@Run?9Time?5Check?5Failure?5?$CD?$CFd?5?9?5?$CFs?$AA@ 004a767c     MSVCRTD:_error_.obj
 0002:0001469c       ??_C@_0BE@GNBOBNCK@Unknown?5Module?5Name?$AA@ 004a769c     MSVCRTD:_error_.obj
 0002:000146b0       ??_C@_0BB@PFFGGCJP@Unknown?5Filename?$AA@ 004a76b0     MSVCRTD:_error_.obj
 0002:000146c8       ??_C@_1EA@NFKNIFJP@?$AAR?$AAu?$AAn?$AA?9?$AAT?$AAi?$AAm?$AAe?$AA?5?$AAC?$AAh?$AAe?$AAc?$AAk?$AA?5?$AAF?$AAa?$AAi?$AAl?$AAu?$AAr?$AAe?$AA?5?$AA?$CD?$AA?$CF?$AAd?$AA?5?$AA?9?$AA?5?$AA?$CF?$AAs?$AA?$AA@ 004a76c8     MSVCRTD:_error_.obj
 0002:00014708       ??_C@_1GM@OLMCBDMB@?$AAR?$AAu?$AAn?$AAt?$AAi?$AAm?$AAe?$AA?5?$AAC?$AAh?$AAe?$AAc?$AAk?$AA?5?$AAE?$AAr?$AAr?$AAo?$AAr?$AA?4?$AA?6?$AA?$AN?$AA?5?$AAU?$AAn?$AAa?$AAb?$AAl?$AAe?$AA?5?$AAt?$AAo@ 004a7708     MSVCRTD:_error_.obj
 0002:00014774       ??_C@_0CG@IAFNJNEE@Stack?5corrupted?5near?5unknown?5var@ 004a7774     MSVCRTD:_error_.obj
 0002:000147a0       ??_C@_0EJ@LJKNEOLN@Stack?5area?5around?5_alloca?5memory@ 004a77a0     MSVCRTD:_error_.obj
 0002:000147ec       ??_C@_08KJEDNCKC@?$CFs?$CFs?$CFs?$CFs?$AA@ 004a77ec     MSVCRTD:_error_.obj
 0002:000147f8       ??_C@_02LLMPMKNF@?$DO?5?$AA@ 004a77f8     MSVCRTD:_error_.obj
 0002:000147fc       ??_C@_01EEMJAFIK@?6?$AA@   004a77fc     MSVCRTD:_error_.obj
 0002:00014800       ??_C@_0BC@KIBAILCI@?$CFs?$CFs?$CFp?$CFs?$CFld?$CFs?$CFd?$CFs?$AA@ 004a7800     MSVCRTD:_error_.obj
 0002:00014818       ??_C@_0EI@CLEPFNGI@Stack?5area?5around?5_alloca?5memory@ 004a7818     MSVCRTD:_error_.obj
 0002:00014860       ??_C@_0N@MHFFIMFG@?6Address?3?50x?$AA@ 004a7860     MSVCRTD:_error_.obj
 0002:00014870       ??_C@_07DFDJCKFN@?6Size?3?5?$AA@ 004a7870     MSVCRTD:_error_.obj
 0002:00014878       ??_C@_0CK@DKGBICFE@?6Allocation?5number?5within?5this?5f@ 004a7878     MSVCRTD:_error_.obj
 0002:000148a4       ??_C@_08OMAHNMHJ@?6Data?3?5?$DM?$AA@ 004a78a4     MSVCRTD:_error_.obj
 0002:000148b0       ??_C@_09FOPFMPEJ@wsprintfA?$AA@ 004a78b0     MSVCRTD:_error_.obj
 0002:000148bc       ??_C@_0L@GMPLCCII@user32?4dll?$AA@ 004a78bc     MSVCRTD:_error_.obj
 0002:000148c8       ??_C@_05MKKEDADM@?$CF?42X?5?$AA@ 004a78c8     MSVCRTD:_error_.obj
 0002:000148d0       ??_C@_0DE@OHJBPMBP@A?5variable?5is?5being?5used?5without@ 004a78d0     MSVCRTD:_error_.obj
 0002:00014908       ??_C@_1GA@EHAKPACL@?$AAf?$AA?3?$AA?2?$AAd?$AAd?$AA?2?$AAv?$AAc?$AAt?$AAo?$AAo?$AAl?$AAs?$AA?2?$AAc?$AAr?$AAt?$AA_?$AAb?$AAl?$AAd?$AA?2?$AAs?$AAe?$AAl?$AAf?$AA_?$AAx?$AA8?$AA6?$AA?2?$AAc@ 004a7908     MSVCRTD:crtexew.obj
 0002:00014968       ??_C@_1FA@DALEHHGL@?$AA_?$AA_?$AAn?$AAa?$AAt?$AAi?$AAv?$AAe?$AA_?$AAs?$AAt?$AAa?$AAr?$AAt?$AAu?$AAp?$AA_?$AAs?$AAt?$AAa?$AAt?$AAe?$AA?5?$AA?$DN?$AA?$DN?$AA?5?$AA_?$AA_?$AAi?$AAn?$AAi?$AAt@ 004a7968     MSVCRTD:crtexew.obj
 0002:000149b8       ??_C@_0BP@OGBCLIBO@Stack?5around?5_alloca?5corrupted?$AA@ 004a79b8     MSVCRTD:_userapi_.obj
 0002:000149d8       ??_C@_0CK@CNLNOEPB@Local?5variable?5used?5before?5initi@ 004a79d8     MSVCRTD:_userapi_.obj
 0002:00014a04       ??_C@_0BI@CIGMDCBH@Stack?5memory?5corruption?$AA@ 004a7a04     MSVCRTD:_userapi_.obj
 0002:00014a1c       ??_C@_0CK@FEGOIOPB@Cast?5to?5smaller?5type?5causing?5los@ 004a7a1c     MSVCRTD:_userapi_.obj
 0002:00014a48       ??_C@_0BJ@HEGAHDFO@Stack?5pointer?5corruption?$AA@ 004a7a48     MSVCRTD:_userapi_.obj
 0002:00014a80       ??_C@_0M@EKFFODEC@MSPDB80?4DLL?$AA@ 004a7a80     MSVCRTD:_pdblkup_.obj
 0002:00014a8c       ??_C@_01KDCPPGHE@r?$AA@    004a7a8c     MSVCRTD:_pdblkup_.obj
 0002:00014a90       ??_C@_0BB@KCIACLNC@PDBOpenValidate5?$AA@ 004a7a90     MSVCRTD:_pdblkup_.obj
 0002:00014aa4       ??_C@_0BF@BMIHBHCA@EnvironmentDirectory?$AA@ 004a7aa4     MSVCRTD:_pdblkup_.obj
 0002:00014abc       ??_C@_0CN@JNNIHDGH@SOFTWARE?2Microsoft?2VisualStudio?2@ 004a7abc     MSVCRTD:_pdblkup_.obj
 0002:00014aec       ??_C@_0M@HLOHPNFA@RegCloseKey?$AA@ 004a7aec     MSVCRTD:_pdblkup_.obj
 0002:00014af8       ??_C@_0BB@HHEIPGME@RegQueryValueExA?$AA@ 004a7af8     MSVCRTD:_pdblkup_.obj
 0002:00014b0c       ??_C@_0O@DCOGKJGG@RegOpenKeyExA?$AA@ 004a7b0c     MSVCRTD:_pdblkup_.obj
 0002:00014b1c       ??_C@_0N@JJPEKNFO@ADVAPI32?4DLL?$AA@ 004a7b1c     MSVCRTD:_pdblkup_.obj
 0002:00014b2c       ?ProcessDetach@NativeDll@<CrtImplementationDetails>@@0IB 004a7b2c     MSVCRTD:unhandld.obj
 0002:00014b30       ?ProcessAttach@NativeDll@<CrtImplementationDetails>@@0IB 004a7b30     MSVCRTD:unhandld.obj
 0002:00014b34       ?ThreadAttach@NativeDll@<CrtImplementationDetails>@@0IB 004a7b34     MSVCRTD:unhandld.obj
 0002:00014b38       ?ThreadDetach@NativeDll@<CrtImplementationDetails>@@0IB 004a7b38     MSVCRTD:unhandld.obj
 0002:00014b3c       ?ProcessVerifier@NativeDll@<CrtImplementationDetails>@@0IB 004a7b3c     MSVCRTD:unhandld.obj
 0002:00014b40       ??_C@_1GE@KOCFNGPB@?$AA_?$AAc?$AAo?$AAn?$AAt?$AAr?$AAo?$AAl?$AAf?$AAp?$AA_?$AAs?$AA?$CI?$AA?$CI?$AA?$CI?$AAv?$AAo?$AAi?$AAd?$AA?5?$AA?$CK?$AA?$CJ?$AA0?$AA?$CJ?$AA?0?$AA?5?$AA0?$AAx?$AA0?$AA0?$AA0?$AA1@ 004a7b40     MSVCRTD:fp8.obj
 0002:00014ba4       ??_C@_1CK@JMKHCBEI@?$AA_?$AAs?$AAe?$AAt?$AAd?$AAe?$AAf?$AAa?$AAu?$AAl?$AAt?$AAp?$AAr?$AAe?$AAc?$AAi?$AAs?$AAi?$AAo?$AAn?$AA?$AA@ 004a7ba4     MSVCRTD:fp8.obj
 0002:00014bd0       ??_C@_1GG@PHGJJHBC@?$AAf?$AA?3?$AA?2?$AAd?$AAd?$AA?2?$AAv?$AAc?$AAt?$AAo?$AAo?$AAl?$AAs?$AA?2?$AAc?$AAr?$AAt?$AA_?$AAb?$AAl?$AAd?$AA?2?$AAs?$AAe?$AAl?$AAf?$AA_?$AAx?$AA8?$AA6?$AA?2?$AAc@ 004a7bd0     MSVCRTD:fp8.obj
 0002:00014c38       __GUID_b196b284_bab4_101a_b69c_00aa00341d07 004a7c38     atlsd:atlfuncs.obj
 0002:00014c48       ??_C@_1GM@JACHBNBJ@?$AAf?$AA?3?$AA?2?$AAd?$AAd?$AA?2?$AAv?$AAc?$AAt?$AAo?$AAo?$AAl?$AAs?$AA?2?$AAv?$AAc?$AA7?$AAl?$AAi?$AAb?$AAs?$AA?2?$AAs?$AAh?$AAi?$AAp?$AA?2?$AAa?$AAt?$AAl?$AAm?$AAf@ 004a7c48     atlsd:atlfuncs.obj
 0002:00014cb4       ??_C@_1BM@JDLBBKGD@?$AAp?$AAp?$AAS?$AAt?$AAr?$AAe?$AAa?$AAm?$AA?5?$AA?$CB?$AA?$DN?$AA?5?$AA0?$AA?$AA@ 004a7cb4     atlsd:atlfuncs.obj
 0002:00014cd0       ??_C@_1BG@IICBGEDI@?$AAp?$AAp?$AAU?$AAn?$AAk?$AA?5?$AA?$CB?$AA?$DN?$AA?5?$AA0?$AA?$AA@ 004a7cd0     atlsd:atlfuncs.obj
 0002:00014ce8       __GUID_00000000_0000_0000_c000_000000000046 004a7ce8     atlsd:atlfuncs.obj
 0002:00014cf8       ??_C@_0DG@EKJDFEGF@f?3?2dd?2vctools?2vc7libs?2ship?2atlmf@ 004a7cf8     atlsd:atlfuncs.obj
 0002:00014d30       ??_C@_0EH@NIJCHDDG@ERROR?5?3?5Unable?5to?5lock?5critical?5@ 004a7d30     atlsd:atlfuncs.obj
 0002:00014d78       ??_C@_1CA@GAOMIJFK@?$AAp?$AAC?$AAo?$AAm?$AAM?$AAo?$AAd?$AAu?$AAl?$AAe?$AA?5?$AA?$CB?$AA?$DN?$AA?5?$AA0?$AA?$AA@ 004a7d78     atlsd:atlfuncs.obj
 0002:00014d98       ??_C@_1BA@JJDNGNLN@?$AA?$CB?$AAb?$AAB?$AAl?$AAi?$AAn?$AAd?$AA?$AA@ 004a7d98     atlsd:atlfuncs.obj
 0002:00014da8       ??_C@_1GE@KALDMMBC@?$AAp?$AAE?$AAn?$AAt?$AAr?$AAi?$AAe?$AAs?$AA?9?$AA?$DO?$AAp?$AAF?$AAu?$AAn?$AAc?$AA?5?$AA?$DN?$AA?$DN?$AA?5?$AA?$CI?$AA?$CI?$AAA?$AAT?$AAL?$AA?3?$AA?3?$AA_?$AAA?$AAT?$AAL?$AA_?$AAC@ 004a7da8     atlsd:atlfuncs.obj
 0002:00014e0c       ??_C@_1BK@ENABKMAI@?$AAp?$AAE?$AAn?$AAt?$AAr?$AAi?$AAe?$AAs?$AA?$CB?$AA?$DN?$AA?5?$AA0?$AA?$AA@ 004a7e0c     atlsd:atlfuncs.obj
 0002:00014e28       ??_C@_1BG@PEGMCOIG@?$AAp?$AAT?$AAh?$AAi?$AAs?$AA?5?$AA?$CB?$AA?$DN?$AA?5?$AA0?$AA?$AA@ 004a7e28     atlsd:atlfuncs.obj
 0002:00014e40       ??_C@_0EJ@CKDEEONF@ERROR?5?3?5Unable?5to?5lock?5critical?5@ 004a7e40     atlsd:atlfuncs.obj
 0002:00014e8c       ??_C@_1DG@BEGLAIHK@?$AAp?$AAD?$AAa?$AAt?$AAa?$AA?5?$AA?$CB?$AA?$DN?$AA?5?$AA0?$AA?5?$AA?$CG?$AA?$CG?$AA?5?$AAp?$AAO?$AAb?$AAj?$AAe?$AAc?$AAt?$AA?5?$AA?$CB?$AA?$DN?$AA?5?$AA0?$AA?$AA@ 004a7e8c     atlsd:atlfuncs.obj
 0002:00014ec8       ??_C@_0EN@LNBCEPAE@ERROR?5?3?5Unable?5to?5lock?5critical?5@ 004a7ec8     atlsd:atlfuncs.obj
 0002:00014f18       ??_C@_0ED@GFNHMOFC@ERROR?5?3?5Unable?5to?5initialize?5cri@ 004a7f18     atlsd:atlfuncs.obj
 0002:00014f60       ??_C@_0EB@NAGECGJC@ERROR?5?3?5Unable?5to?5lock?5critical?5@ 004a7f60     atlsd:atlfuncs.obj
 0002:00014fa8       ??_C@_1GM@HJGNLPJ@?$AAf?$AA?3?$AA?2?$AAd?$AAd?$AA?2?$AAv?$AAc?$AAt?$AAo?$AAo?$AAl?$AAs?$AA?2?$AAv?$AAc?$AA7?$AAl?$AAi?$AAb?$AAs?$AA?2?$AAs?$AAh?$AAi?$AAp?$AA?2?$AAa?$AAt?$AAl?$AAm?$AAf@ 004a7fa8     atlsd:atlfuncs.obj
 0002:00015014       ??_C@_19LMDLLIGP@?$AAp?$AA?$DN?$AA?$DN?$AA0?$AA?$AA@ 004a8014     atlsd:atlfuncs.obj
 0002:00015020       ??_C@_19JHCPJMAL@?$AAp?$AA?$CB?$AA?$DN?$AA0?$AA?$AA@ 004a8020     atlsd:atlfuncs.obj
 0002:00015030       ??_C@_1GM@OMLOBEGL@?$AAf?$AA?3?$AA?2?$AAd?$AAd?$AA?2?$AAv?$AAc?$AAt?$AAo?$AAo?$AAl?$AAs?$AA?2?$AAv?$AAc?$AA7?$AAl?$AAi?$AAb?$AAs?$AA?2?$AAs?$AAh?$AAi?$AAp?$AA?2?$AAa?$AAt?$AAl?$AAm?$AAf@ 004a8030     atlsd:atlfuncs.obj
 0002:0001509c       ??_C@_1M@HLGKFCJM@?$AAf?$AAa?$AAl?$AAs?$AAe?$AA?$AA@ 004a809c     atlsd:atlfuncs.obj
 0002:000150a8       ??_C@_0DG@BLHODJEO@f?3?2dd?2vctools?2vc7libs?2ship?2atlmf@ 004a80a8     atlsd:atlfuncs.obj
 0002:000150e0       ??_C@_0BF@IAAKIJDJ@AtlThrow?3?5hr?5?$DN?50x?$CFx?6?$AA@ 004a80e0     atlsd:atlfuncs.obj
 0002:000150f8       ??_C@_1GI@HPMIGMAH@?$AAf?$AA?3?$AA?2?$AAd?$AAd?$AA?2?$AAv?$AAc?$AAt?$AAo?$AAo?$AAl?$AAs?$AA?2?$AAv?$AAc?$AA7?$AAl?$AAi?$AAb?$AAs?$AA?2?$AAs?$AAh?$AAi?$AAp?$AA?2?$AAa?$AAt?$AAl?$AAm?$AAf@ 004a80f8     atlsd:atlfuncs.obj
 0002:00015160       ??_C@_1BG@OHCCAGNO@?$AA?$CB?$AAm?$AA_?$AAb?$AAL?$AAo?$AAc?$AAk?$AAe?$AAd?$AA?$AA@ 004a8160     atlsd:atlfuncs.obj
 0002:00015178       ??_C@_1BE@NPGJNKLA@?$AAm?$AA_?$AAb?$AAL?$AAo?$AAc?$AAk?$AAe?$AAd?$AA?$AA@ 004a8178     atlsd:atlfuncs.obj
 0002:0001518c       _GUID_ATLVer30             004a818c     atlsd:atlbase.obj
 0002:0001519c       _GUID_ATLVer70             004a819c     atlsd:atlbase.obj
 0002:000151b0       ??_C@_1HG@FCGFJFIH@?$AAf?$AA?3?$AA?2?$AAd?$AAd?$AA?2?$AAv?$AAc?$AAt?$AAo?$AAo?$AAl?$AAs?$AA?2?$AAv?$AAc?$AA7?$AAl?$AAi?$AAb?$AAs?$AA?2?$AAs?$AAh?$AAi?$AAp?$AA?2?$AAa?$AAt?$AAl?$AAm?$AAf@ 004a81b0     atlsd:atlbase.obj
 0002:00015228       ??_C@_0DL@JGBOLPLE@f?3?2dd?2vctools?2vc7libs?2ship?2atlmf@ 004a8228     atlsd:atlbase.obj
 0002:00015268       ??_C@_0EB@DFGPPPOF@ERROR?5?3?5Unable?5to?5initialize?5cri@ 004a8268     atlsd:atlbase.obj
 0002:000152ac       ??_C@_0DL@DGOEKOEF@ERROR?5?3?5Unable?5to?5lock?5critical?5@ 004a82ac     atlsd:atlbase.obj
 0002:000152e8       ??_C@_1HA@EFGOBFOA@?$AAf?$AA?3?$AA?2?$AAd?$AAd?$AA?2?$AAv?$AAc?$AAt?$AAo?$AAo?$AAl?$AAs?$AA?2?$AAv?$AAc?$AA7?$AAl?$AAi?$AAb?$AAs?$AA?2?$AAs?$AAh?$AAi?$AAp?$AA?2?$AAa?$AAt?$AAl?$AAm?$AAf@ 004a82e8     atlsd:atlbase.obj
 0002:00015358       ??_C@_0BA@MKMIKKJB@atlTraceGeneral?$AA@ 004a8358     atlsd:atltrace.obj
 0002:00015368       ??_C@_0M@DGPFJEBB@atlTraceCOM?$AA@ 004a8368     atlsd:atltrace.obj
 0002:00015374       ??_C@_0L@LHELAKBP@atlTraceQI?$AA@ 004a8374     atlsd:atltrace.obj
 0002:00015380       ??_C@_0BC@MALHFBAO@atlTraceRegistrar?$AA@ 004a8380     atlsd:atltrace.obj
 0002:00015394       ??_C@_0BB@ILPPDKFL@atlTraceRefcount?$AA@ 004a8394     atlsd:atltrace.obj
 0002:000153a8       ??_C@_0BC@DGHHNKDC@atlTraceWindowing?$AA@ 004a83a8     atlsd:atltrace.obj
 0002:000153bc       ??_C@_0BB@GHKJKKIE@atlTraceControls?$AA@ 004a83bc     atlsd:atltrace.obj
 0002:000153d0       ??_C@_0BA@DKOAAGGM@atlTraceHosting?$AA@ 004a83d0     atlsd:atltrace.obj
 0002:000153e0       ??_C@_0BB@BEBMGMDO@atlTraceDBClient?$AA@ 004a83e0     atlsd:atltrace.obj
 0002:000153f4       ??_C@_0BD@KOADKDIA@atlTraceDBProvider?$AA@ 004a83f4     atlsd:atltrace.obj
 0002:00015408       ??_C@_0P@LNEGBOLO@atlTraceSnapin?$AA@ 004a8408     atlsd:atltrace.obj
 0002:00015418       ??_C@_0BA@MCBFIDIC@atlTraceNotImpl?$AA@ 004a8418     atlsd:atltrace.obj
 0002:00015428       ??_C@_0BD@PJPCCAKP@atlTraceAllocation?$AA@ 004a8428     atlsd:atltrace.obj
 0002:0001543c       ??_C@_0BC@PGMFNIFA@atlTraceException?$AA@ 004a843c     atlsd:atltrace.obj
 0002:00015450       ??_C@_0N@BNNILHBE@atlTraceTime?$AA@ 004a8450     atlsd:atltrace.obj
 0002:00015460       ??_C@_0O@MEOJAOKK@atlTraceCache?$AA@ 004a8460     atlsd:atltrace.obj
 0002:00015470       ??_C@_0BA@IDBKCKK@atlTraceStencil?$AA@ 004a8470     atlsd:atltrace.obj
 0002:00015480       ??_C@_0P@MBNHGHMI@atlTraceString?$AA@ 004a8480     atlsd:atltrace.obj
 0002:00015490       ??_C@_0M@IOBBMAHG@atlTraceMap?$AA@ 004a8490     atlsd:atltrace.obj
 0002:0001549c       ??_C@_0N@FEAAACHD@atlTraceUtil?$AA@ 004a849c     atlsd:atltrace.obj
 0002:000154ac       ??_C@_0BB@DNJDADMG@atlTraceSecurity?$AA@ 004a84ac     atlsd:atltrace.obj
 0002:000154c0       ??_C@_0N@KLPNCFEE@atlTraceSync?$AA@ 004a84c0     atlsd:atltrace.obj
 0002:000154d0       ??_C@_0O@KHOBHOBJ@atlTraceISAPI?$AA@ 004a84d0     atlsd:atltrace.obj
 0002:000154e0       ??_C@_0N@BEIMPMHB@atlTraceUser?$AA@ 004a84e0     atlsd:atltrace.obj
 0002:000154f0       ??_C@_0O@MKGGJJCH@atlTraceUser2?$AA@ 004a84f0     atlsd:atltrace.obj
 0002:00015500       ??_C@_0O@NDHNKIGG@atlTraceUser3?$AA@ 004a8500     atlsd:atltrace.obj
 0002:00015510       ??_C@_0O@JMDMDOKB@atlTraceUser4?$AA@ 004a8510     atlsd:atltrace.obj
 0002:00015520       ??_C@_06JMICFIKN@?$CFs_?$CF0x?$AA@ 004a8520     atlsd:Externs.obj
 0002:00015528       ??_C@_0CJ@CAALMDEI@AtlDebugAllocator_FileMappingNam@ 004a8528     atlsd:Externs.obj
 0002:00015554       ??_C@_0CK@BODLKOMG@AtlTraceModuleManager_ProcessAdd@ 004a8554     atlsd:Externs.obj
 0002:00015580       ??_C@_1HO@MNFHLCLF@?$AAf?$AA?3?$AA?2?$AAd?$AAd?$AA?2?$AAv?$AAc?$AAt?$AAo?$AAo?$AAl?$AAs?$AA?2?$AAv?$AAc?$AA7?$AAl?$AAi?$AAb?$AAs?$AA?2?$AAs?$AAh?$AAi?$AAp?$AA?2?$AAa?$AAt?$AAl?$AAm?$AAf@ 004a8580     atlsd:AtlDebugAPI.obj
 0002:00015600       ??_C@_1BK@LIHAAANN@?$AAp?$AAM?$AAo?$AAd?$AAu?$AAl?$AAe?$AA?5?$AA?$CB?$AA?$DN?$AA?5?$AA0?$AA?$AA@ 004a8600     atlsd:AtlDebugAPI.obj
 0002:0001561c       ??_C@_1BM@DFEBCPM@?$AAp?$AAP?$AAr?$AAo?$AAc?$AAe?$AAs?$AAs?$AA?5?$AA?$CB?$AA?$DN?$AA?5?$AA0?$AA?$AA@ 004a861c     atlsd:AtlDebugAPI.obj
 0002:00015638       ??_C@_04FFDMEMDO@?$CFS?3?5?$AA@ 004a8638     atlsd:AtlDebugAPI.obj
 0002:00015640       ??_C@_09IIMHCEDG@?$CFs?$CI?$CFd?$CJ?5?3?5?$AA@ 004a8640     atlsd:AtlDebugAPI.obj
 0002:0001564c       ??_C@_02KPKOKMHB@?$CFS?$AA@ 004a864c     atlsd:AtlDebugAPI.obj
 0002:00015650       ??_C@_19JCANECJL@?$AA?$CF?$AAs?$AA?3?$AA?5?$AA?$AA@ 004a8650     atlsd:AtlDebugAPI.obj
 0002:0001565c       ??_C@_1BE@PGKGHBDF@?$AA?$CF?$AAS?$AA?$CI?$AA?$CF?$AAd?$AA?$CJ?$AA?5?$AA?3?$AA?5?$AA?$AA@ 004a865c     atlsd:AtlDebugAPI.obj
 0002:00015670       ??_C@_1DA@NMHCLMEJ@?$AAp?$AAA?$AAl?$AAl?$AAo?$AAc?$AAa?$AAt?$AAo?$AAr?$AA?9?$AA?$DO?$AAm?$AA_?$AAb?$AAS?$AAn?$AAa?$AAp?$AAs?$AAh?$AAo?$AAt?$AA?$AA@ 004a8670     atlsd:AtlDebugAPI.obj
 0002:000156a0       ??_C@_1CE@NDBHOLMF@?$AAp?$AAP?$AAr?$AAo?$AAc?$AAe?$AAs?$AAs?$AAI?$AAn?$AAf?$AAo?$AA?5?$AA?$CB?$AA?$DN?$AA?5?$AA0?$AA?$AA@ 004a86a0     atlsd:AtlDebugAPI.obj
 0002:000156c4       ??_C@_1CC@ONKAHKMP@?$AAp?$AAM?$AAo?$AAd?$AAu?$AAl?$AAe?$AAI?$AAn?$AAf?$AAo?$AA?5?$AA?$CB?$AA?$DN?$AA?5?$AA0?$AA?$AA@ 004a86c4     atlsd:AtlDebugAPI.obj
 0002:000156e8       ??_C@_1CG@BANGGBIE@?$AAp?$AAC?$AAa?$AAt?$AAe?$AAg?$AAo?$AAr?$AAy?$AAI?$AAn?$AAf?$AAo?$AA?5?$AA?$CB?$AA?$DN?$AA?5?$AA0?$AA?$AA@ 004a86e8     atlsd:AtlDebugAPI.obj
 0002:00015710       ??_C@_1BC@JOPFIJLO@?$AAp?$AAP?$AAr?$AAo?$AAc?$AAe?$AAs?$AAs?$AA?$AA@ 004a8710     atlsd:AtlDebugAPI.obj
 0002:00015724       ??_C@_1DM@CECLCIOA@?$AAp?$AAp?$AAC?$AAa?$AAt?$AAe?$AAg?$AAo?$AAr?$AAy?$AA?5?$AA?$CG?$AA?$CG?$AA?5?$AAp?$AAf?$AAn?$AAC?$AAr?$AAt?$AAD?$AAb?$AAg?$AAR?$AAe?$AAp?$AAo?$AAr?$AAt?$AA?$AA@ 004a8724     atlsd:AtlDebugAPI.obj
 0002:00015760       ??_C@_1GI@CLJCGCPP@?$AAf?$AA?3?$AA?2?$AAd?$AAd?$AA?2?$AAv?$AAc?$AAt?$AAo?$AAo?$AAl?$AAs?$AA?2?$AAv?$AAc?$AA7?$AAl?$AAi?$AAb?$AAs?$AA?2?$AAs?$AAh?$AAi?$AAp?$AA?2?$AAa?$AAt?$AAl?$AAm?$AAf@ 004a8760     atlsd:AtlDebugAPI.obj
 0002:000157c8       ??_C@_1BC@PMINONJG@?$AAb?$AAS?$AAu?$AAc?$AAc?$AAe?$AAs?$AAs?$AA?$AA@ 004a87c8     atlsd:Allocate.obj
 0002:000157e0       ??_C@_1HI@MDMANKNC@?$AAf?$AA?3?$AA?2?$AAd?$AAd?$AA?2?$AAv?$AAc?$AAt?$AAo?$AAo?$AAl?$AAs?$AA?2?$AAv?$AAc?$AA7?$AAl?$AAi?$AAb?$AAs?$AA?2?$AAs?$AAh?$AAi?$AAp?$AA?2?$AAa?$AAt?$AAl?$AAm?$AAf@ 004a87e0     atlsd:Allocate.obj
 0002:00015858       ??_C@_1DG@LHMNHOH@?$AA?$CB?$AAm?$AA_?$AAh?$AAM?$AAa?$AAp?$AA?5?$AA?$CG?$AA?$CG?$AA?5?$AA?$CB?$AAm?$AA_?$AAp?$AAB?$AAu?$AAf?$AAf?$AAe?$AAr?$AAS?$AAt?$AAa?$AAr?$AAt?$AA?$AA@ 004a8858     atlsd:Allocate.obj
 0002:00015890       ??_C@_1CC@JCNIBNON@?$AAi?$AAM?$AAo?$AAd?$AAu?$AAl?$AAe?$AA?5?$AA?$DM?$AA?5?$AAm?$AAo?$AAd?$AAc?$AAn?$AAt?$AA?$AA@ 004a8890     atlsd:Allocate.obj
 0002:000158b8       ??_C@_1HO@KONLCGL@?$AA?$CI?$AAi?$AAC?$AAa?$AAt?$AAe?$AAg?$AAo?$AAr?$AAy?$AA?5?$AA?$DM?$AA?5?$AAm?$AA_?$AAp?$AAP?$AAr?$AAo?$AAc?$AAe?$AAs?$AAs?$AA?9?$AA?$DO?$AAC?$AAa?$AAt?$AAe?$AAg?$AAo?$AAr@ 004a88b8     atlsd:Allocate.obj
 0002:00015938       ??_C@_1BG@EIHNOMMF@?$AAm?$AA_?$AAp?$AAP?$AAr?$AAo?$AAc?$AAe?$AAs?$AAs?$AA?$AA@ 004a8938     atlsd:Allocate.obj
 0002:00015950       ??_C@_1IO@GJLKCBCE@?$AAf?$AA?3?$AA?2?$AAd?$AAd?$AA?2?$AAv?$AAc?$AAt?$AAo?$AAo?$AAl?$AAs?$AA?2?$AAv?$AAc?$AA7?$AAl?$AAi?$AAb?$AAs?$AA?2?$AAs?$AAh?$AAi?$AAp?$AA?2?$AAa?$AAt?$AAl?$AAm?$AAf@ 004a8950     atlsd:Allocate.obj
 0002:000159e0       ??_C@_1BK@GFEAMNLJ@?$AAn?$AAC?$AAo?$AAo?$AAk?$AAi?$AAe?$AA?5?$AA?$CB?$AA?$DN?$AA?5?$AA0?$AA?$AA@ 004a89e0     atlsd:Allocate.obj
 0002:000159fc       ??_C@_1BO@OAGIAJOK@?$AAp?$AAC?$AAa?$AAt?$AAe?$AAg?$AAo?$AAr?$AAy?$AA?5?$AA?$CB?$AA?$DN?$AA?5?$AA0?$AA?$AA@ 004a89fc     atlsd:Allocate.obj
 0002:00015a20       __load_config_used         004a8a20     MSVCRTD:loadcfg.obj
 0002:00015ac8       ??_R4CppSQLite3Exception@@6B@ 004a8ac8     CppSQLite3.obj
 0002:00015adc       ??_R3CppSQLite3Exception@@8 004a8adc     CppSQLite3.obj
 0002:00015aec       ??_R2CppSQLite3Exception@@8 004a8aec     CppSQLite3.obj
 0002:00015af4       ??_R1A@?0A@EA@CppSQLite3Exception@@8 004a8af4     CppSQLite3.obj
 0002:00015b10       ??_R4CppSQLite3Query@@6B@  004a8b10     CppSQLite3.obj
 0002:00015b24       ??_R3CppSQLite3Query@@8    004a8b24     CppSQLite3.obj
 0002:00015b34       ??_R2CppSQLite3Query@@8    004a8b34     CppSQLite3.obj
 0002:00015b3c       ??_R1A@?0A@EA@CppSQLite3Query@@8 004a8b3c     CppSQLite3.obj
 0002:00015b58       ??_R4CppSQLite3Table@@6B@  004a8b58     CppSQLite3.obj
 0002:00015b6c       ??_R3CppSQLite3Table@@8    004a8b6c     CppSQLite3.obj
 0002:00015b7c       ??_R2CppSQLite3Table@@8    004a8b7c     CppSQLite3.obj
 0002:00015b84       ??_R1A@?0A@EA@CppSQLite3Table@@8 004a8b84     CppSQLite3.obj
 0002:00015ba0       ??_R4CppSQLite3Statement@@6B@ 004a8ba0     CppSQLite3.obj
 0002:00015bb4       ??_R3CppSQLite3Statement@@8 004a8bb4     CppSQLite3.obj
 0002:00015bc4       ??_R2CppSQLite3Statement@@8 004a8bc4     CppSQLite3.obj
 0002:00015bcc       ??_R1A@?0A@EA@CppSQLite3Statement@@8 004a8bcc     CppSQLite3.obj
 0002:00015be8       ??_R4CppSQLite3DB@@6B@     004a8be8     CppSQLite3.obj
 0002:00015bfc       ??_R3CppSQLite3DB@@8       004a8bfc     CppSQLite3.obj
 0002:00015c0c       ??_R2CppSQLite3DB@@8       004a8c0c     CppSQLite3.obj
 0002:00015c14       ??_R1A@?0A@EA@CppSQLite3DB@@8 004a8c14     CppSQLite3.obj
 0002:00015c30       ??_R4DBClass@@6B@          004a8c30     DBClass.obj
 0002:00015c44       ??_R3DBClass@@8            004a8c44     DBClass.obj
 0002:00015c54       ??_R2DBClass@@8            004a8c54     DBClass.obj
 0002:00015c5c       ??_R1A@?0A@EA@DBClass@@8   004a8c5c     DBClass.obj
 0002:00015c78       ??_R4Thank_you@Define_the_symbol__ATL_MIXED@@6B@ 004a8c78     hd.obj
 0002:00015c8c       ??_R3Thank_you@Define_the_symbol__ATL_MIXED@@8 004a8c8c     hd.obj
 0002:00015c9c       ??_R2Thank_you@Define_the_symbol__ATL_MIXED@@8 004a8c9c     hd.obj
 0002:00015ca4       ??_R1A@?0A@EA@Thank_you@Define_the_symbol__ATL_MIXED@@8 004a8ca4     hd.obj
 0002:00015cc0       ??_R4CComModule@ATL@@6B@   004a8cc0     hd.obj
 0002:00015cd4       ??_R3CComModule@ATL@@8     004a8cd4     hd.obj
 0002:00015ce4       ??_R2CComModule@ATL@@8     004a8ce4     hd.obj
 0002:00015cf8       ??_R1A@?0A@EA@CComModule@ATL@@8 004a8cf8     hd.obj
 0002:00015d14       ??_R1A@?0A@EA@?$CAtlModuleT@VCComModule@ATL@@@ATL@@8 004a8d14     hd.obj
 0002:00015d30       ??_R3?$CAtlModuleT@VCComModule@ATL@@@ATL@@8 004a8d30     hd.obj
 0002:00015d40       ??_R2?$CAtlModuleT@VCComModule@ATL@@@ATL@@8 004a8d40     hd.obj
 0002:00015d50       ??_R1A@?0A@EA@CAtlModule@ATL@@8 004a8d50     hd.obj
 0002:00015d6c       ??_R3CAtlModule@ATL@@8     004a8d6c     hd.obj
 0002:00015d7c       ??_R2CAtlModule@ATL@@8     004a8d7c     hd.obj
 0002:00015d88       ??_R13?0A@EA@_ATL_MODULE70@ATL@@8 004a8d88     hd.obj
 0002:00015da4       ??_R3_ATL_MODULE70@ATL@@8  004a8da4     hd.obj
 0002:00015db4       ??_R2_ATL_MODULE70@ATL@@8  004a8db4     hd.obj
 0002:00015dbc       ??_R1A@?0A@EA@_ATL_MODULE70@ATL@@8 004a8dbc     hd.obj
 0002:00015dd8       ??_R4CRegObject@ATL@@6B@   004a8dd8     hd.obj
 0002:00015dec       ??_R3CRegObject@ATL@@8     004a8dec     hd.obj
 0002:00015dfc       ??_R2CRegObject@ATL@@8     004a8dfc     hd.obj
 0002:00015e0c       ??_R1A@?0A@EA@CRegObject@ATL@@8 004a8e0c     hd.obj
 0002:00015e28       ??_R1A@?0A@EA@IRegistrarBase@@8 004a8e28     hd.obj
 0002:00015e44       ??_R3IRegistrarBase@@8     004a8e44     hd.obj
 0002:00015e54       ??_R2IRegistrarBase@@8     004a8e54     hd.obj
 0002:00015e60       ??_R1A@?0A@EA@IUnknown@@8  004a8e60     hd.obj
 0002:00015e7c       ??_R3IUnknown@@8           004a8e7c     hd.obj
 0002:00015e8c       ??_R2IUnknown@@8           004a8e8c     hd.obj
 0002:00015e94       ??_R4length_error@std@@6B@ 004a8e94     hd2.obj
 0002:00015ea8       ??_R3length_error@std@@8   004a8ea8     hd2.obj
 0002:00015eb8       ??_R2length_error@std@@8   004a8eb8     hd2.obj
 0002:00015ec8       ??_R1A@?0A@EA@length_error@std@@8 004a8ec8     hd2.obj
 0002:00015ee4       ??_R1A@?0A@EA@logic_error@std@@8 004a8ee4     hd2.obj
 0002:00015f00       ??_R3logic_error@std@@8    004a8f00     hd2.obj
 0002:00015f10       ??_R2logic_error@std@@8    004a8f10     hd2.obj
 0002:00015f1c       ??_R1A@?0A@EA@exception@std@@8 004a8f1c     hd2.obj
 0002:00015f38       ??_R3exception@std@@8      004a8f38     hd2.obj
 0002:00015f48       ??_R2exception@std@@8      004a8f48     hd2.obj
 0002:00015f50       ??_R4logic_error@std@@6B@  004a8f50     hd2.obj
 0002:00015f64       ??_R4bad_alloc@std@@6B@    004a8f64     hd2.obj
 0002:00015f78       ??_R3bad_alloc@std@@8      004a8f78     hd2.obj
 0002:00015f88       ??_R2bad_alloc@std@@8      004a8f88     hd2.obj
 0002:00015f94       ??_R1A@?0A@EA@bad_alloc@std@@8 004a8f94     hd2.obj
 0002:00015fb0       ??_R4CHyperLink@@6B@       004a8fb0     HyperLink.obj
 0002:00015fc4       ??_R3CHyperLink@@8         004a8fc4     HyperLink.obj
 0002:00015fd4       ??_R2CHyperLink@@8         004a8fd4     HyperLink.obj
 0002:00015fdc       ??_R1A@?0A@EA@CHyperLink@@8 004a8fdc     HyperLink.obj
 0002:00015ff8       ??_R4CPictureEx@@6B@       004a8ff8     PictureEx.obj
 0002:0001600c       ??_R3CPictureEx@@8         004a900c     PictureEx.obj
 0002:0001601c       ??_R2CPictureEx@@8         004a901c     PictureEx.obj
 0002:00016024       ??_R1A@?0A@EA@CPictureEx@@8 004a9024     PictureEx.obj
 0002:00016040       ??_R4UseProxyDlg@@6B@      004a9040     UseProxyDlg.obj
 0002:00016054       ??_R3UseProxyDlg@@8        004a9054     UseProxyDlg.obj
 0002:00016064       ??_R2UseProxyDlg@@8        004a9064     UseProxyDlg.obj
 0002:0001606c       ??_R1A@?0A@EA@UseProxyDlg@@8 004a906c     UseProxyDlg.obj
 0002:00016088       ??_R4CWebDB@@6B@           004a9088     WebDB.obj
 0002:0001609c       ??_R3CWebDB@@8             004a909c     WebDB.obj
 0002:000160ac       ??_R2CWebDB@@8             004a90ac     WebDB.obj
 0002:000160b4       ??_R1A@?0A@EA@CWebDB@@8    004a90b4     WebDB.obj
 0002:000160d0       ??_R4CWINButton@@6B@       004a90d0     WINButton.obj
 0002:000160e4       ??_R3CWINButton@@8         004a90e4     WINButton.obj
 0002:000160f4       ??_R2CWINButton@@8         004a90f4     WINButton.obj
 0002:000160fc       ??_R1A@?0A@EA@CWINButton@@8 004a90fc     WINButton.obj
 0002:00016118       ??_R4type_info@@6B@        004a9118     MSVCRTD:ti_inst.obj
 0002:0001612c       ??_R3type_info@@8          004a912c     MSVCRTD:ti_inst.obj
 0002:0001613c       ??_R2type_info@@8          004a913c     MSVCRTD:ti_inst.obj
 0002:00016144       ??_R1A@?0A@EA@type_info@@8 004a9144     MSVCRTD:ti_inst.obj
 0002:00016160       ___safe_se_handler_table   004a9160     <linker-defined>
 0002:00016500       ___rtc_iaa                 004a9500     MSVCRTD:_initsect_.obj
 0002:00016534       ___rtc_izz                 004a9534     MSVCRTD:_initsect_.obj
 0002:00016538       ___rtc_taa                 004a9538     MSVCRTD:_initsect_.obj
 0002:0001656c       ___rtc_tzz                 004a956c     MSVCRTD:_initsect_.obj
 0002:00016570       __TI1?AVCppSQLite3Exception@@ 004a9570     CppSQLite3.obj
 0002:00016580       __CTA1?AVCppSQLite3Exception@@ 004a9580     CppSQLite3.obj
 0002:00016588       __CT??_R0?AVCppSQLite3Exception@@@8??0CppSQLite3Exception@@QAE@ABV0@@Z12 004a9588     CppSQLite3.obj
 0002:000173c4       __TI1H                     004aa3c4     hd.obj
 0002:0001743c       __CTA1H                    004aa43c     hd.obj
 0002:00017444       __CT??_R0H@84              004aa444     hd.obj
 0002:000176e4       __TI1?AVCAtlException@ATL@@ 004aa6e4     hd.obj
 0002:000176f4       __CTA1?AVCAtlException@ATL@@ 004aa6f4     hd.obj
 0002:000176fc       __CT??_R0?AVCAtlException@ATL@@@84 004aa6fc     hd.obj
 0002:000179c8       __TI2PAD                   004aa9c8     hd2.obj
 0002:00017a30       __CTA2PAD                  004aaa30     hd2.obj
 0002:00017a3c       __CT??_R0PAD@84            004aaa3c     hd2.obj
 0002:00017a58       __CT??_R0PAX@84            004aaa58     hd2.obj
 0002:00019004       __TI3?AVlength_error@std@@ 004ac004     hd2.obj
 0002:00019040       __CTA3?AVlength_error@std@@ 004ac040     hd2.obj
 0002:00019050       __CT??_R0?AVlength_error@std@@@8??0length_error@std@@QAE@ABV01@@Z44 004ac050     hd2.obj
 0002:0001906c       __CT??_R0?AVlogic_error@std@@@8??0logic_error@std@@QAE@ABV01@@Z44 004ac06c     hd2.obj
 0002:00019088       __CT??_R0?AVexception@std@@@8??0exception@std@@QAE@ABV01@@Z12 004ac088     hd2.obj
 0002:000193bc       __TI2?AVbad_alloc@std@@    004ac3bc     hd2.obj
 0002:000193cc       __CTA2?AVbad_alloc@std@@   004ac3cc     hd2.obj
 0002:000193d8       __CT??_R0?AVbad_alloc@std@@@8??0bad_alloc@std@@QAE@ABV01@@Z12 004ac3d8     hd2.obj
 0002:0001a684       ___pobjMapEntryFirst       004ad684     hd.obj
 0002:0001a688       ___pobjMapEntryLast        004ad688     hd.obj
 0002:0001a68c       __IMPORT_DESCRIPTOR_HOOKLIB 004ad68c     hooklib:HOOKLIB.dll
 0002:0001a6a0       __IMPORT_DESCRIPTOR_COMCTL32 004ad6a0     comctl32:COMCTL32.dll
 0002:0001a6b4       __IMPORT_DESCRIPTOR_SHLWAPI 004ad6b4     shlwapi:SHLWAPI.dll
 0002:0001a6c8       __IMPORT_DESCRIPTOR_WS2_32 004ad6c8     ws2_32:WS2_32.dll
 0002:0001a6dc       __IMPORT_DESCRIPTOR_VERSION 004ad6dc     version:VERSION.dll
 0002:0001a6f0       __IMPORT_DESCRIPTOR_WININET 004ad6f0     wininet:WININET.dll
 0002:0001a704       __IMPORT_DESCRIPTOR_unrar  004ad704     unrar:unrar.dll
 0002:0001a718       __IMPORT_DESCRIPTOR_sqlite3 004ad718     sqlite3:sqlite3.dll
 0002:0001a72c       __IMPORT_DESCRIPTOR_RASAPI32 004ad72c     Rasapi32:RASAPI32.dll
 0002:0001a740       __IMPORT_DESCRIPTOR_KERNEL32 004ad740     kernel32:KERNEL32.dll
 0002:0001a754       __IMPORT_DESCRIPTOR_USER32 004ad754     user32:USER32.dll
 0002:0001a768       __IMPORT_DESCRIPTOR_GDI32  004ad768     gdi32:GDI32.dll
 0002:0001a77c       __IMPORT_DESCRIPTOR_COMDLG32 004ad77c     comdlg32:COMDLG32.dll
 0002:0001a790       __IMPORT_DESCRIPTOR_ADVAPI32 004ad790     advapi32:ADVAPI32.dll
 0002:0001a7a4       __IMPORT_DESCRIPTOR_SHELL32 004ad7a4     shell32:SHELL32.dll
 0002:0001a7b8       __IMPORT_DESCRIPTOR_ole32  004ad7b8     ole32:ole32.dll
 0002:0001a7cc       __IMPORT_DESCRIPTOR_OLEAUT32 004ad7cc     oleaut32:OLEAUT32.dll
 0002:0001a7e0       __IMPORT_DESCRIPTOR_MSVCP90D 004ad7e0     msvcprtd:MSVCP90D.dll
 0002:0001a7f4       __IMPORT_DESCRIPTOR_MSVCR90D 004ad7f4     MSVCRTD:MSVCR90D.dll
 0002:0001a808       __NULL_IMPORT_DESCRIPTOR   004ad808     hooklib:HOOKLIB.dll
 0003:00000004       ?g_TreeCheckedArray@@3PAHA 004b1004     ClearDlg.obj
 0003:00000020       ?iArrayCount@@3HA          004b1020     ClearDlg.obj
 0003:00000024       ??_R0?AVCppSQLite3Exception@@@8 004b1024     CppSQLite3.obj
 0003:00000048       ??_R0?AVCppSQLite3Query@@@8 004b1048     CppSQLite3.obj
 0003:00000068       ??_R0?AVCppSQLite3Table@@@8 004b1068     CppSQLite3.obj
 0003:00000088       ??_R0?AVCppSQLite3Statement@@@8 004b1088     CppSQLite3.obj
 0003:000000ac       ??_R0?AVCppSQLite3DB@@@8   004b10ac     CppSQLite3.obj
 0003:000000c8       _MyIStorageTable           004b10c8     CWebPage.obj
 0003:00000110       _MyIStorage                004b1110     CWebPage.obj
 0003:00000114       _MyIOleInPlaceFrameTable   004b1114     CWebPage.obj
 0003:00000150       _MyIOleClientSiteTable     004b1150     CWebPage.obj
 0003:00000174       _MyIOleInPlaceSiteTable    004b1174     CWebPage.obj
 0003:000001b0       ?__LINE__Var@?1??Storage_QueryInterface@@9@9 004b11b0     CWebPage.obj
 0003:000001b4       ?__LINE__Var@?1??Storage_CreateStream@@9@9 004b11b4     CWebPage.obj
 0003:000001b8       ?__LINE__Var@?1??Storage_OpenStream@@9@9 004b11b8     CWebPage.obj
 0003:000001bc       ?__LINE__Var@?1??Storage_CreateStorage@@9@9 004b11bc     CWebPage.obj
 0003:000001c0       ?__LINE__Var@?1??Storage_OpenStorage@@9@9 004b11c0     CWebPage.obj
 0003:000001c4       ?__LINE__Var@?1??Storage_CopyTo@@9@9 004b11c4     CWebPage.obj
 0003:000001c8       ?__LINE__Var@?1??Storage_MoveElementTo@@9@9 004b11c8     CWebPage.obj
 0003:000001cc       ?__LINE__Var@?1??Storage_Commit@@9@9 004b11cc     CWebPage.obj
 0003:000001d0       ?__LINE__Var@?1??Storage_Revert@@9@9 004b11d0     CWebPage.obj
 0003:000001d4       ?__LINE__Var@?1??Storage_EnumElements@@9@9 004b11d4     CWebPage.obj
 0003:000001d8       ?__LINE__Var@?1??Storage_DestroyElement@@9@9 004b11d8     CWebPage.obj
 0003:000001dc       ?__LINE__Var@?1??Storage_RenameElement@@9@9 004b11dc     CWebPage.obj
 0003:000001e0       ?__LINE__Var@?1??Storage_SetElementTimes@@9@9 004b11e0     CWebPage.obj
 0003:000001e4       ?__LINE__Var@?1??Storage_SetStateBits@@9@9 004b11e4     CWebPage.obj
 0003:000001e8       ?__LINE__Var@?1??Storage_Stat@@9@9 004b11e8     CWebPage.obj
 0003:000001ec       ?__LINE__Var@?1??Site_SaveObject@@9@9 004b11ec     CWebPage.obj
 0003:000001f0       ?__LINE__Var@?1??Site_GetMoniker@@9@9 004b11f0     CWebPage.obj
 0003:000001f4       ?__LINE__Var@?1??Site_OnShowWindow@@9@9 004b11f4     CWebPage.obj
 0003:000001f8       ?__LINE__Var@?1??Site_RequestNewObjectLayout@@9@9 004b11f8     CWebPage.obj
 0003:000001fc       ?__LINE__Var@?1??Site_ContextSensitiveHelp@@9@9 004b11fc     CWebPage.obj
 0003:00000200       ?__LINE__Var@?1??Site_Scroll@@9@9 004b1200     CWebPage.obj
 0003:00000204       ?__LINE__Var@?1??Site_DiscardUndoState@@9@9 004b1204     CWebPage.obj
 0003:00000208       ?__LINE__Var@?1??Site_DeactivateAndUndo@@9@9 004b1208     CWebPage.obj
 0003:0000020c       ?__LINE__Var@?1??Frame_QueryInterface@@9@9 004b120c     CWebPage.obj
 0003:00000210       ?__LINE__Var@?1??Frame_ContextSensitiveHelp@@9@9 004b1210     CWebPage.obj
 0003:00000214       ?__LINE__Var@?1??Frame_GetBorder@@9@9 004b1214     CWebPage.obj
 0003:00000218       ?__LINE__Var@?1??Frame_RequestBorderSpace@@9@9 004b1218     CWebPage.obj
 0003:0000021c       ?__LINE__Var@?1??Frame_SetBorderSpace@@9@9 004b121c     CWebPage.obj
 0003:00000220       ?__LINE__Var@?1??Frame_InsertMenus@@9@9 004b1220     CWebPage.obj
 0003:00000224       ?__LINE__Var@?1??Frame_RemoveMenus@@9@9 004b1224     CWebPage.obj
 0003:00000228       ?__LINE__Var@?1??Frame_TranslateAccelerator@@9@9 004b1228     CWebPage.obj
 0003:0000022c       ?__LINE__Var@?1??UnEmbedBrowserObject@@9@9 004b122c     CWebPage.obj
 0003:00000234       ??_R0?AVDBClass@@@8        004b1234     DBClass.obj
 0003:0000024c       ?rcDefault@CWindow@ATL@@2UtagRECT@@A 004b124c     hd.obj
 0003:00000260       ?cCode@@3PAY04_WA          004b1260     hd.obj
 0003:00000288       ?bRef@@3HA                 004b1288     hd.obj
 0003:0000028c       ?iEvaluateTime@@3HA        004b128c     hd.obj
 0003:00000290       ?cGUID1@@3PADA             004b1290     hd.obj
 0003:000002b8       ?cGUID2@@3PADA             004b12b8     hd.obj
 0003:000002e0       ?cGUID3@@3PADA             004b12e0     hd.obj
 0003:00000308       ?cGUID4@@3PADA             004b1308     hd.obj
 0003:00000330       ?cGUID5@@3PADA             004b1330     hd.obj
 0003:00000358       ?cGUID6@@3PADA             004b1358     hd.obj
 0003:00000380       ?iTryTime@@3HA             004b1380     hd.obj
 0003:00000384       ?iTryTime_re@@3HA          004b1384     hd.obj
 0003:00000388       ?g_iTabCount@@3HA          004b1388     hd.obj
 0003:00000394       ??_R0H@8                   004b1394     hd.obj
 0003:000003a0       ??_R0?AUThank_you@Define_the_symbol__ATL_MIXED@@@8 004b13a0     hd.obj
 0003:000003d8       ??_R0?AVCComModule@ATL@@@8 004b13d8     hd.obj
 0003:000003f8       ??_R0?AV?$CAtlModuleT@VCComModule@ATL@@@ATL@@@8 004b13f8     hd.obj
 0003:0000042c       ??_R0?AVCAtlModule@ATL@@@8 004b142c     hd.obj
 0003:0000044c       ??_R0?AU_ATL_MODULE70@ATL@@@8 004b144c     hd.obj
 0003:0000046c       ?__LINE__Var@?1??UpdateRegistryFromResourceS@CAtlModule@ATL@@QAGJPB_WHPAU_ATL_REGMAP_ENTRY@3@@Z@4JA 004b146c     hd.obj
 0003:00000470       ??_R0?AVCRegObject@ATL@@@8 004b1470     hd.obj
 0003:00000490       ??_R0?AUIRegistrarBase@@@8 004b1490     hd.obj
 0003:000004b0       ??_R0?AUIUnknown@@@8       004b14b0     hd.obj
 0003:000004c8       ?__LINE__Var@?1??AtlThrowImpl@ATL@@YGXJ@Z@4JA 004b14c8     hd.obj
 0003:000004cc       ??_R0?AVCAtlException@ATL@@@8 004b14cc     hd.obj
 0003:000004ec       ?__LINE__Var@?1??RegisterFromResource@CRegObject@ATL@@IAEJPB_W00H@Z@4JA 004b14ec     hd.obj
 0003:000004f0       ?__LINE__Var@?1??RegisterBuffer@CRegParser@ATL@@QAEJPA_WH@Z@4JA 004b14f0     hd.obj
 0003:000004f4       ?__LINE__Var@?1??NextToken@CRegParser@ATL@@IAEJPA_W@Z@4JA 004b14f4     hd.obj
 0003:000004f8       ?__LINE__Var@?1??PreProcessBuffer@CRegParser@ATL@@QAEJPA_WPAPA_W@Z@4JA 004b14f8     hd.obj
 0003:000004fc       ?__LINE__Var@?1??StrFromMap@CRegObject@ATL@@QAEPB_WPA_W@Z@4JA 004b14fc     hd.obj
 0003:00000500       ?__LINE__Var@?1??RegisterSubkeys@CRegParser@ATL@@IAEJPA_WPAUHKEY__@@HH@Z@4JA 004b1500     hd.obj
 0003:00000504       ?__LINE__Var@?1??Attach@CRegKey@ATL@@QAEXPAUHKEY__@@@Z@4JA 004b1504     hd.obj
 0003:00000508       ?__LINE__Var@?1??DeleteSubKey@CRegKey@ATL@@QAEJPB_W@Z@4JA 004b1508     hd.obj
 0003:0000050c       ?__LINE__Var@?1??DeleteValue@CRegKey@ATL@@QAEJPB_W@Z@4JA 004b150c     hd.obj
 0003:00000510       ?__LINE__Var@?1??Create@CRegKey@ATL@@QAEJPAUHKEY__@@PB_WPA_WKKPAU_SECURITY_ATTRIBUTES@@PAK@Z@4JA 004b1510     hd.obj
 0003:00000514       ?__LINE__Var@?1??Open@CRegKey@ATL@@QAEJPAUHKEY__@@PB_WK@Z@4JA 004b1514     hd.obj
 0003:00000518       ?__LINE__Var@?1??RecurseDeleteKey@CRegKey@ATL@@QAEJPB_W@Z@4JA 004b1518     hd.obj
 0003:0000051c       ?__LINE__Var@?1??AddValue@CRegParser@ATL@@IAEJAAVCRegKey@3@PB_WPA_W@Z@4JA 004b151c     hd.obj
 0003:00000520       ?__LINE__Var@?1??SetDWORDValue@CRegKey@ATL@@QAEJPB_WK@Z@4JA 004b1520     hd.obj
 0003:00000524       ?__LINE__Var@?1??SetStringValue@CRegKey@ATL@@QAEJPB_W0K@Z@4JA 004b1524     hd.obj
 0003:00000528       ?__LINE__Var@?1??SetMultiStringValue@CRegKey@ATL@@QAEJPB_W0@Z@4JA 004b1528     hd.obj
 0003:0000052c       ?__LINE__Var@?1??ChToByte@CRegParser@ATL@@KAE_W@Z@4JA@accfad3f 004b152c     hd.obj
 0003:00000530       ?__LINE__Var@?1??HasSubKeys@CRegParser@ATL@@IAEHPAUHKEY__@@@Z@4JA 004b1530     hd.obj
 0003:00000534       ?__LINE__Var@?1??UpdateRegistryFromResourceS@CAtlModule@ATL@@QAGJIHPAU_ATL_REGMAP_ENTRY@3@@Z@4JA 004b1534     hd.obj
 0003:0000053c       ??_R0PAD@8                 004b153c     hd2.obj
 0003:0000054c       ??_R0PAX@8                 004b154c     hd2.obj
 0003:0000055c       ??_R0?AVlength_error@std@@@8 004b155c     hd2.obj
 0003:0000057c       ??_R0?AVlogic_error@std@@@8 004b157c     hd2.obj
 0003:0000059c       ??_R0?AVexception@std@@@8  004b159c     hd2.obj
 0003:000005b8       ??_R0?AVbad_alloc@std@@@8  004b15b8     hd2.obj
 0003:000005d8       ??_R0?AVCHyperLink@@@8     004b15d8     HyperLink.obj
 0003:000005f8       ??_R0?AVCPictureEx@@@8     004b15f8     PictureEx.obj
 0003:00000614       ?__LINE__Var@?1??Load@CPictureEx@@QAEHPAUHINSTANCE__@@PB_W1@Z@4JA 004b1614     PictureEx.obj
 0003:00000618       ?__LINE__Var@?1??Load@CPictureEx@@QAEHPB_W@Z@4JA 004b1618     PictureEx.obj
 0003:0000061c       ?__LINE__Var@?1??_ThreadAnimation@CPictureEx@@KGIPAX@Z@4JA@0ab50535 004b161c     PictureEx.obj
 0003:00000624       ?g_CompleteFlag1@@3HA      004b1624     UseProxyDlg.obj
 0003:00000628       ?g_CompleteFlag2@@3HA      004b1628     UseProxyDlg.obj
 0003:0000062c       ?g_CompleteFlag3@@3HA      004b162c     UseProxyDlg.obj
 0003:00000630       ?g_CompleteFlag4@@3HA      004b1630     UseProxyDlg.obj
 0003:00000634       ??_R0?AVUseProxyDlg@@@8    004b1634     UseProxyDlg.obj
 0003:00000654       ??_R0?AVCWebDB@@@8         004b1654     WebDB.obj
 0003:0000066c       ??_R0?AVCWINButton@@@8     004b166c     WINButton.obj
 0003:0000068c       ___security_cookie         004b168c     MSVCRTD:gs_cookie.obj
 0003:00000690       ___security_cookie_complement 004b1690     MSVCRTD:gs_cookie.obj
 0003:000006a0       ??_R0?AVtype_info@@@8      004b16a0     MSVCRTD:ti_inst.obj
 0003:000006c0       ?_RTC_ErrorLevels@@3PAHA   004b16c0     MSVCRTD:_error_.obj
 0003:000006e4       ___globallocalestatus      004b16e4     MSVCRTD:xthdloc.obj
 0003:000006e8       ___defaultmatherr          004b16e8     MSVCRTD:merr.obj
 0003:000006ec       ___native_dllmain_reason   004b16ec     MSVCRTD:natstart.obj
 0003:000006f0       ___native_vcclrit_reason   004b16f0     MSVCRTD:natstart.obj
 0003:000006f4       ?g_pszUpdateEventName@@3PBDB 004b16f4     atlsd:Externs.obj
 0003:000006f8       ?g_pszAllocFileMapName@@3PBDB 004b16f8     atlsd:Externs.obj
 0003:000006fc       ?g_pszKernelObjFmt@@3PBDB  004b16fc     atlsd:Externs.obj
 0003:00000700       ?g_brushCleanPage@@3PAUHBRUSH__@@A 004b1700     ClearDlg.obj
 0003:00000704       ?hThread@CClearDlg@@2PAXA  004b1704     ClearDlg.obj
 0003:00000708       ?hThreadWnd@CClearDlg@@2PAUHWND__@@A 004b1708     ClearDlg.obj
 0003:0000070c       ?hMainWnd@CClearDlg@@2PAUHWND__@@A 004b170c     ClearDlg.obj
 0003:00000710       ?hTreeWnd@CClearDlg@@2PAUHWND__@@A 004b1710     ClearDlg.obj
 0003:00000714       ?g_hCursorLink@CClearDlg@@2PAUHICON__@@A 004b1714     ClearDlg.obj
 0003:00000718       ?g_hCursorLink_org@CClearDlg@@2PAUHICON__@@A 004b1718     ClearDlg.obj
 0003:0000071c       ?hInst@CClearDlg@@2PAUHINSTANCE__@@A 004b171c     ClearDlg.obj
 0003:00000720       ?g_ExitDoWork@@3HA         004b1720     ClearDlg.obj
 0003:00000728       ?gif_clean@@3VCPictureEx@@A 004b1728     ClearDlg.obj
 0003:000007c0       ?m_lnk_cleanpri@@3VCHyperLink@@A 004b17c0     ClearDlg.obj
 0003:000017d4       _WindowCount               004b27d4     CWebPage.obj
 0003:000017d8       ?nID@@3U_NOTIFYICONDATAW@@A 004b27d8     hd.obj
 0003:00001b94       ?csDelListView@@3U_RTL_CRITICAL_SECTION@@A 004b2b94     hd.obj
 0003:00001bac       ?g_StartTime@@3U_SYSTEMTIME@@A 004b2bac     hd.obj
 0003:00001bbc       ?hNetworkThread@@3PAXA     004b2bbc     hd.obj
 0003:00001bc0       ?cBKWndText@@3PA_WA        004b2bc0     hd.obj
 0003:00001bc4       ?iBK_All@@3HA              004b2bc4     hd.obj
 0003:00001bc8       ?hImage_Confirm@@3PAU_IMAGELIST@@A 004b2bc8     hd.obj
 0003:00001bcc       ?hStatic_BKG@@3PAUHWND__@@A 004b2bcc     hd.obj
 0003:00001bd0       ?iBaSWC@@3HA               004b2bd0     hd.obj
 0003:00001bd4       ?d@@3PA_WA                 004b2bd4     hd.obj
 0003:00001bd8       ?aHideWindowsHotKey@@3GA   004b2bd8     hd.obj
 0003:00001bdc       ?iTotalSelected@@3HA       004b2bdc     hd.obj
 0003:00001be0       ?g_iStarted@@3HA           004b2be0     hd.obj
 0003:00001be4       ?iFlag_Restore@@3HA        004b2be4     hd.obj
 0003:00001be8       ?cRequestHeader@@3PADA     004b2be8     hd.obj
 0003:00001bec       ?hNorm@@3PAUHICON__@@A     004b2bec     hd.obj
 0003:00001bf0       ?hImage_BK@@3PAU_IMAGELIST@@A 004b2bf0     hd.obj
 0003:00001bf4       ?hWLMenu@@3PAUHMENU__@@A   004b2bf4     hd.obj
 0003:00001bf8       ?hHK_HA@@3PAUHWND__@@A     004b2bf8     hd.obj
 0003:00001bfc       ?rMail@@3UtagRECT@@A       004b2bfc     hd.obj
 0003:00001c0c       ?g_TrayList@@3PAUHWND__@@A 004b2c0c     hd.obj
 0003:00001c10       ?rAds@@3UtagRECT@@A        004b2c10     hd.obj
 0003:00001c20       ?hMainWndMenu@@3PAUHMENU__@@A 004b2c20     hd.obj
 0003:00001c24       ?iRefInterval@@3HA         004b2c24     hd.obj
 0003:00001c28       ?lReaded@@3KA              004b2c28     hd.obj
 0003:00001c2c       ?g_hCleanStatus@@3PAUHWND__@@A 004b2c2c     hd.obj
 0003:00001c30       ?wsd@@3UWSAData@@A         004b2c30     hd.obj
 0003:00001dc0       ?hd_guid@@3U_GUID@@A       004b2dc0     hd.obj
 0003:00001dd0       ?g_hUpdateHandle@@3PAXA    004b2dd0     hd.obj
 0003:00001dd4       ?hr@@3JA                   004b2dd4     hd.obj
 0003:00001dd8       ?hDisguiseMenu@@3PAUHMENU__@@A 004b2dd8     hd.obj
 0003:00001ddc       ?pMouse@@3UtagPOINT@@A     004b2ddc     hd.obj
 0003:00001de4       ?hToolTip_about@@3PAUHWND__@@A 004b2de4     hd.obj
 0003:00001de8       ?hEditCre@@3PAUHWND__@@A   004b2de8     hd.obj
 0003:00001dec       ?g_hAdvWnd@@3PAUHWND__@@A  004b2dec     hd.obj
 0003:00001df0       ?lpItemIdList@@3PAU_ITEMIDLIST@@A 004b2df0     hd.obj
 0003:00001df4       ?hWinDC2@@3PAUHDC__@@A     004b2df4     hd.obj
 0003:00001df8       ?hd_guid2@@3U_GUID@@A      004b2df8     hd.obj
 0003:00001e08       ?hBKBrush@@3PAUHBRUSH__@@A 004b2e08     hd.obj
 0003:00001e0c       ?aShowSelf@@3GA            004b2e0c     hd.obj
 0003:00001e10       ?hHttp@@3PAUHWND__@@A      004b2e10     hd.obj
 0003:00001e14       ?hEdit_PPath@@3PAUHWND__@@A 004b2e14     hd.obj
 0003:00001e18       ?cPass@@3PA_WA             004b2e18     hd.obj
 0003:00001e38       ?iNoTitle@@3HA             004b2e38     hd.obj
 0003:00001e3c       ?lvItem@@3UtagLVITEMW@@A   004b2e3c     hd.obj
 0003:00001e78       ?hOptionDialog@@3PAUHWND__@@A 004b2e78     hd.obj
 0003:00001e7c       ?hCheck_UsePassword@@3PAUHWND__@@A 004b2e7c     hd.obj
 0003:00001e80       ?hToolTip@@3PAUHWND__@@A   004b2e80     hd.obj
 0003:00001e84       ?FileSizeHigh@@3KA         004b2e84     hd.obj
 0003:00001e88       ?g_IPList@@3PAUHWND__@@A   004b2e88     hd.obj
 0003:00001e8c       ?hTrayWnd@@3PAUHWND__@@A   004b2e8c     hd.obj
 0003:00001e90       ?hGM@@3PAUHHOOK__@@A       004b2e90     hd.obj
 0003:00001e94       ?g_OldLangID@@3IA          004b2e94     hd.obj
 0003:00001e98       ?hBtnExpandInfo@@3PAUHWND__@@A 004b2e98     hd.obj
 0003:00001e9c       ?hAds@@3PAUHWND__@@A       004b2e9c     hd.obj
 0003:00001ea0       ?hToolTip_reg@@3PAUHWND__@@A 004b2ea0     hd.obj
 0003:00001ea4       ?viRF@@3UVersionInfo@@A    004b2ea4     hd.obj
 0003:00001eb0       ?nIDW@@3U_NOTIFYICONDATAW@@A 004b2eb0     hd.obj
 0003:0000226c       ?iShowSelf@@3IA            004b326c     hd.obj
 0003:00002270       ?pExeFunc@@3UExeFunc@@A    004b3270     hd.obj
 0003:00002288       ?hRestAll@@3PAUHWND__@@A   004b3288     hd.obj
 0003:0000228c       ?hEdit_MiddleCode@@3PAUHWND__@@A 004b328c     hd.obj
 0003:00002290       ?hHK_SS@@3PAUHWND__@@A     004b3290     hd.obj
 0003:00002294       ?g_iAutoRun@@3HA           004b3294     hd.obj
 0003:00002298       ?iFlag_ThroughIcon@@3HA    004b3298     hd.obj
 0003:0000229c       ?FileSizeLow@@3KA          004b329c     hd.obj
 0003:000022a0       ?hList_Confirm@@3PAUHWND__@@A 004b32a0     hd.obj
 0003:000022a4       ?hWinDC3@@3PAUHDC__@@A     004b32a4     hd.obj
 0003:000022ac       ?rHttp@@3UtagRECT@@A       004b32ac     hd.obj
 0003:000022bc       ?iHideWindows@@3IA         004b32bc     hd.obj
 0003:000022c0       ?hHideIcon@@3PAUHWND__@@A  004b32c0     hd.obj
 0003:000022c4       ?csFillList@@3U_RTL_CRITICAL_SECTION@@A 004b32c4     hd.obj
 0003:000022dc       ?iBuff@@3PAHA              004b32dc     hd.obj
 0003:00002308       ?g_iTipCount@@3HA          004b3308     hd.obj
 0003:0000230c       ?hI1@@3PAUHICON__@@A       004b330c     hd.obj
 0003:00002310       ?ppf@@3PAUIPersistFile@@A  004b3310     hd.obj
 0003:00002314       ?hInst@@3PAUHINSTANCE__@@A 004b3314     hd.obj
 0003:00002318       ?g_ProcessList@@3PAUHWND__@@A 004b3318     hd.obj
 0003:0000231c       ?iTotalBK@@3HA             004b331c     hd.obj
 0003:00002320       ?hWinDC_LD@@3PAUHDC__@@A   004b3320     hd.obj
 0003:00002324       ?hWLMenu1@@3PAUHMENU__@@A  004b3324     hd.obj
 0003:00002328       ?sWP@@3UWndParam@@A        004b3328     hd.obj
 0003:00008728       ?hWizardDialog@@3PAUHWND__@@A 004b9728     hd.obj
 0003:0000872c       ?g_TabWnd@@3PAPAUHWND__@@A 004b972c     hd.obj
 0003:00008754       ?TrayFlag@@3HA             004b9754     hd.obj
 0003:00008758       ?hJobMenu@@3PAUHMENU__@@A  004b9758     hd.obj
 0003:0000875c       ?hBKMenu@@3PAUHMENU__@@A   004b975c     hd.obj
 0003:00008760       ?hEdit_Validate@@3PAUHWND__@@A 004b9760     hd.obj
 0003:00008764       ?iExtWindow@@3HA           004b9764     hd.obj
 0003:00008768       ?sW@@3PAUWndAndHandle@@A   004b9768     hd.obj
 0003:0000876c       ?hWinDC@@3PAUHDC__@@A      004b976c     hd.obj
 0003:00008770       ?g_iLangCount@@3HA         004b9770     hd.obj
 0003:00008774       ?hButton_Update@@3PAUHWND__@@A 004b9774     hd.obj
 0003:00008778       ?hRadio_ShowAll@@3PAUHWND__@@A 004b9778     hd.obj
 0003:0000877c       ?bFir@@3HA                 004b977c     hd.obj
 0003:00008780       ?hHand@@3PAUHICON__@@A     004b9780     hd.obj
 0003:00008784       ?iKorS@@3HA                004b9784     hd.obj
 0003:00008788       ?hHK_ShowSelf@@3PAUHWND__@@A 004b9788     hd.obj
 0003:0000878c       ?i@@3HA                    004b978c     hd.obj
 0003:00008790       ?arrTray@@3PAUTRAYDATA@@A  004b9790     hd.obj
 0003:00008d30       ?pe32@@3UtagPROCESSENTRY32W@@A 004b9d30     hd.obj
 0003:00008f5c       ?hRegAutoRun@@3PAUHKEY__@@A 004b9f5c     hd.obj
 0003:00008f60       ?hHelpMenu@@3PAUHMENU__@@A 004b9f60     hd.obj
 0003:00008f64       ?hHK_HideAll@@3PAUHWND__@@A 004b9f64     hd.obj
 0003:00008f68       ?Array_QH@@3PAPAUHWND__@@A 004b9f68     hd.obj
 0003:00008fb8       ?aResHK@@3GA               004b9fb8     hd.obj
 0003:00008fbc       ?hAlphaMenu@@3PAUHMENU__@@A 004b9fbc     hd.obj
 0003:00008fc0       ?g_CurrLangID@@3IA         004b9fc0     hd.obj
 0003:00008fc4       ?hListView@@3PAUHWND__@@A  004b9fc4     hd.obj
 0003:00008fc8       ?iFlag_EndInit@@3HA        004b9fc8     hd.obj
 0003:00008fcc       ?g_iTip@@3HA               004b9fcc     hd.obj
 0003:00008fd0       ?hIconList@@3PAU_IMAGELIST@@A 004b9fd0     hd.obj
 0003:00008fd4       ?cHT@@3_WA                 004b9fd4     hd.obj
 0003:00008fd8       ?hDlg_Other@@3PAUHWND__@@A 004b9fd8     hd.obj
 0003:00008fdc       ?hIcon_Default@@3PAUHICON__@@A 004b9fdc     hd.obj
 0003:00008fe0       ?hBKWnd@@3PAPAUHWND__@@A   004b9fe0     hd.obj
 0003:00009030       ?iTemp@@3HA                004ba030     hd.obj
 0003:00009034       ?hList_SelWI@@3PAUHWND__@@A 004ba034     hd.obj
 0003:00009038       ?hI2@@3PAUHICON__@@A       004ba038     hd.obj
 0003:0000903c       ?lWritten@@3KA             004ba03c     hd.obj
 0003:00009040       ?lf@@3UtagLOGFONTW@@A      004ba040     hd.obj
 0003:0000909c       ?g_ChangeIconTitleHandle@@3PAXA 004ba09c     hd.obj
 0003:000090a0       ?hUsageTip@@3PAUHWND__@@A  004ba0a0     hd.obj
 0003:000090a4       ?sock_Scan@@3IA            004ba0a4     hd.obj
 0003:000090a8       ?iSelectedItems@@3PAHA     004ba0a8     hd.obj
 0003:00009238       ?g_iUseLanguage@@3HA       004ba238     hd.obj
 0003:0000923c       ?iFlag_Size@@3HA           004ba23c     hd.obj
 0003:00009240       ?g_TrayWnd@@3PAUHWND__@@A  004ba240     hd.obj
 0003:00009244       ?hJobTipMenu@@3PAUHMENU__@@A 004ba244     hd.obj
 0003:00009248       ?iTakeToBk@@3HA            004ba248     hd.obj
 0003:0000924c       ?hBalTip@@3PAUHWND__@@A    004ba24c     hd.obj
 0003:00009250       ?hEdit_RC@@3PAPAUHWND__@@A 004ba250     hd.obj
 0003:00009264       ?hMainMenu@@3PAUHMENU__@@A 004ba264     hd.obj
 0003:00009268       ?sOP@@3UOptionFile@@A      004ba268     hd.obj
 0003:0000934c       ?g_HidedProcess@@3HA       004ba34c     hd.obj
 0003:00009350       ?hBKWindowHandle@@3PAPAXA  004ba350     hd.obj
 0003:000093a0       ?hProcessSnap@@3PAXA       004ba3a0     hd.obj
 0003:000093a4       ?CurMouPos@@3UtagPOINT@@A  004ba3a4     hd.obj
 0003:000093ac       ?hRegDialog@@3PAUHWND__@@A 004ba3ac     hd.obj
 0003:000093b0       ?hEmail@@3PAUHWND__@@A     004ba3b0     hd.obj
 0003:000093b4       ?iW_Sel@@3HA               004ba3b4     hd.obj
 0003:000093b8       ?iUseSkin@@3HA             004ba3b8     hd.obj
 0003:000093bc       ?hRadioAuto@@3PAUHWND__@@A 004ba3bc     hd.obj
 0003:000093c0       ?cResponseHeader@@3PADA    004ba3c0     hd.obj
 0003:000093c4       ?hHttpDC@@3PAUHDC__@@A     004ba3c4     hd.obj
 0003:000093c8       ?hTrayMenu@@3PAUHMENU__@@A 004ba3c8     hd.obj
 0003:000093cc       ?hFileMenu@@3PAUHMENU__@@A 004ba3cc     hd.obj
 0003:000093d0       ?hStatic_Update@@3PAUHWND__@@A 004ba3d0     hd.obj
 0003:000093d4       ?hImage_Sel@@3PAU_IMAGELIST@@A 004ba3d4     hd.obj
 0003:000093d8       ?hIcon_Unknown@@3PAUHICON__@@A 004ba3d8     hd.obj
 0003:000093dc       ?hMouse@@3PAUHWND__@@A     004ba3dc     hd.obj
 0003:000093e0       ?Msg@@3UtagMSG@@A          004ba3e0     hd.obj
 0003:000093fc       ?hOptionFile@@3PAXA        004ba3fc     hd.obj
 0003:00009400       ?pe322@@3UtagPROCESSENTRY32W@@A 004ba400     hd.obj
 0003:0000962c       ?g_hGenWnd@@3PAUHWND__@@A  004ba62c     hd.obj
 0003:00009630       ?cItemString@@3PA_WA       004ba630     hd.obj
 0003:000096d0       ?hRightFirst@@3PAUHWND__@@A 004ba6d0     hd.obj
 0003:000096d8       ?pWH@@3PAUWndAndHandle@@A  004ba6d8     hd.obj
 0003:000096dc       ?iBKItemCount@@3HA         004ba6dc     hd.obj
 0003:000096e0       ?hAboutDialog@@3PAUHWND__@@A 004ba6e0     hd.obj
 0003:000096e4       ?iForSWC@@3HA              004ba6e4     hd.obj
 0003:000096e8       ?yP@@3JA                   004ba6e8     hd.obj
 0003:000096f0       ?iResTemp@@3HA             004ba6f0     hd.obj
 0003:000096f4       ?hBtn_Path@@3PAUHWND__@@A  004ba6f4     hd.obj
 0003:000096f8       ?lpBuff@@3PADA             004ba6f8     hd.obj
 0003:00009704       ?pShellLink@@3PAUIShellLinkW@@A 004ba704     hd.obj
 0003:00009708       ?hFont_New@@3PAUHFONT__@@A 004ba708     hd.obj
 0003:0000970c       ?g_UseIcon@@3HA            004ba70c     hd.obj
 0003:00009710       ?iForState@@3HA            004ba710     hd.obj
 0003:00009714       ?bUseMouse@@3HA            004ba714     hd.obj
 0003:00009718       ?g_pTipText@@3PAY09PA_WA   004ba718     hd.obj
 0003:000098a8       ?cOptionFileName@@3PA_WA   004ba8a8     hd.obj
 0003:000098ac       ?hMainDialog@@3PAUHWND__@@A 004ba8ac     hd.obj
 0003:000098b0       ?iForSW@@3HA               004ba8b0     hd.obj
 0003:000098b4       ?iBaSW@@3HA                004ba8b4     hd.obj
 0003:000098b8       ?hIcon_NoIcon@@3PAUHICON__@@A 004ba8b8     hd.obj
 0003:000098bc       ?hButton_ShowBK@@3PAUHWND__@@A 004ba8bc     hd.obj
 0003:000098c0       ?g_hLangMenu@@3PAUHMENU__@@A 004ba8c0     hd.obj
 0003:000098c4       ?g_iExit@@3HA              004ba8c4     hd.obj
 0003:000098c8       ?iA1@@3PAHA                004ba8c8     hd.obj
 0003:00009a58       ?cStrings@@3PAY04_WA       004baa58     hd.obj
 0003:00009b84       ?hEmailDC@@3PAUHDC__@@A    004bab84     hd.obj
 0003:00009b88       ?sc_BKWnd@@3U_RTL_CRITICAL_SECTION@@A 004bab88     hd.obj
 0003:00009ba0       ?pNoTitle@@3PAUWndAndHandle@@A 004baba0     hd.obj
 0003:00009ba4       ?sBK_All@@3PAUWndAndHandle@@A 004baba4     hd.obj
 0003:00009ba8       ?hRadioTip@@3PAUHWND__@@A  004baba8     hd.obj
 0003:00009bac       ?g_hUpdateLangHandle@@3PAXA 004babac     hd.obj
 0003:00009bb0       ?hList_BK@@3PAUHWND__@@A   004babb0     hd.obj
 0003:00009bb4       ?xP@@3JA                   004babb4     hd.obj
 0003:00009bb8       ?hHideMain@@3PAUHWND__@@A  004babb8     hd.obj
 0003:00009bbc       ?hMonitorBKThread@@3PAXA   004babbc     hd.obj
 0003:00009bc0       ?iSelectedItem@@3HA        004babc0     hd.obj
 0003:00009bc4       ?cOrgCode@@3PA_WA          004babc4     hd.obj
 0003:00009bec       ?bReserveOperation@@3HA    004babec     hd.obj
 0003:00009bf0       ?dwPathSize@@3KA           004babf0     hd.obj
 0003:00009bf4       ?dwExPID@@3KA              004babf4     hd.obj
 0003:00009bf8       ?hEdit_Password@@3PAUHWND__@@A 004babf8     hd.obj
 0003:00009bfc       ?cObject@@3PADA            004babfc     hd.obj
 0003:00009c00       ?cHostName@@3PADA          004bac00     hd.obj
 0003:00009c04       ?cValue@@3PADA             004bac04     hd.obj
 0003:00009c08       ?pVerBuff@@3PA_WA          004bac08     hd.obj
 0003:00009c0c       ?cRecvBuff@@3PADA          004bac0c     hd.obj
 0003:00009c10       ?lHeaderLength@@3JA        004bac10     hd.obj
 0003:00009c14       ?g_HD_Msg_GetIcon@@3IA     004bac14     hd.obj
 0003:00009c18       ?sBKWI@@3PAPAUWndAndHandle@@A 004bac18     hd.obj
 0003:00009c1c       ?sBKSel@@3PAUWndAndHandle@@A 004bac1c     hd.obj
 0003:00009c20       ?g_AutoHide@@3HA           004bac20     hd.obj
 0003:00009c24       ?g_AutoHideHandle@@3PAXA   004bac24     hd.obj
 0003:00009c28       ?g_Tab@@3PAUHWND__@@A      004bac28     hd.obj
 0003:00009c2c       ?g_hInfoPanel@@3PAUHWND__@@A 004bac2c     hd.obj
 0003:00009c30       ?g_QuickHideAllTray@@3PAUWndAndHandle@@A 004bac30     hd.obj
 0003:00009c34       ?g_bmenu@@3PAUHBRUSH__@@A  004bac34     hd.obj
 0003:00009c38       ?g_wbr@@3PAUHBRUSH__@@A    004bac38     hd.obj
 0003:00009c6c       ?g_BKThreadCount@@3JA      004bac6c     hd.obj
 0003:00009c70       ?g_iBmpIdx@@3HA            004bac70     hd.obj
 0003:00009c74       ?_Module@@3VCComModule@ATL@@A 004bac74     hd.obj
 0003:00009ca4       ?_pAtlAutoThreadModule@ATL@@3PAUIAtlAutoThreadModule@1@A 004baca4     hd.obj
 0003:00009ca8       ?s_pfnPrevHook@CNoUIAssertHook@ATL@@0P6AHHPADPAH@ZA 004baca8     hd.obj
 0003:00009cac       ?m_bInitFailed@CAtlBaseModule@ATL@@2_NA 004bacac     hd.obj
 0003:00009cb0       ?_pPerfRegFunc@ATL@@3P6AJPAUHINSTANCE__@@@ZA 004bacb0     hd.obj
 0003:00009cb4       ?_pPerfUnRegFunc@ATL@@3P6AJXZA 004bacb4     hd.obj
 0003:00009cb8       ?_AtlRegisterPerUser@ATL@@3_NA 004bacb8     hd.obj
 0003:00009cbc       ?_pAtlModule@ATL@@3PAVCAtlModule@1@A 004bacbc     hd.obj
 0003:00009cc0       ?m_libid@CAtlModule@ATL@@2U_GUID@@A 004bacc0     hd.obj
 0003:00009cd0       ?_pModule@ATL@@3PAVCComModule@1@A 004bacd0     hd.obj
 0003:00009cd4       ?ATL_CREATE_OBJECT@CComApartment@ATL@@2IA 004bacd4     hd.obj
 0003:00009cd8       ?WM_ATLGETHOST@ATL@@3IA    004bacd8     hd.obj
 0003:00009cdc       ?WM_ATLGETCONTROL@ATL@@3IA 004bacdc     hd.obj
 0003:00009ce0       ?pfnRegDeleteKeyEx@?5??DeleteSubKey@CRegKey@ATL@@QAEJPB_W@Z@4P6GJPAUHKEY__@@0KK@ZA 004bace0     hd.obj
 0003:00009ce4       ?bInitialized@?5??DeleteSubKey@CRegKey@ATL@@QAEJPB_W@Z@4_NA 004bace4     hd.obj
 0003:00009ce8       ?map@?1??VTFromRegType@CRegParser@ATL@@KAHPB_WAAG@Z@4QBUtypemap@?1??123@KAH01@Z@B 004bace8     hd.obj
 0003:00009d08       ??_B?1??VTFromRegType@CRegParser@ATL@@KAHPB_WAAG@Z@51 004bad08     hd.obj
 0003:00009d0c       ?clash@Define_the_symbol__ATL_MIXED@@3UThank_you@1@A 004bad0c     hd.obj
 0003:00009d10       ?clash@Inconsistent_definition_of_symbol__ATL_MIXED@@3U_Please_define_it_the_same_throughout_your_project@1@A 004bad10     hd.obj
 0003:00009d18       ?iPressIn@@3HA             004bad18     hd2.obj
 0003:00009d1c       ?hHK_BkWnd@@3PAUHWND__@@A  004bad1c     hd2.obj
 0003:00009d20       ?g_brushBKPage@@3PAUHBRUSH__@@A 004bad20     hd2.obj
 0003:00009d24       ?hProcessMenu_Sub@@3PAUHMENU__@@A 004bad24     hd2.obj
 0003:00009d28       ?iUpIn@@3HA                004bad28     hd2.obj
 0003:00009d2c       ?hProcessListMenu@@3PAUHMENU__@@A 004bad2c     hd2.obj
 0003:00009d30       ?lf2@@3UtagLOGFONTW@@A     004bad30     hd2.obj
 0003:00009d8c       ?pBHHeader@@3PAUsBKWHotkey@@A 004bad8c     hd2.obj
 0003:00009df4       ?hAutohide_Adlink@@3PAUHWND__@@A 004badf4     hd2.obj
 0003:00009df8       ?hBKDialog@@3PAUHWND__@@A  004badf8     hd2.obj
 0003:00009dfc       ?hHotKey_TIPSS@@3PAUHWND__@@A 004badfc     hd2.obj
 0003:00009e00       ?hList_AllWnd@@3PAUHWND__@@A 004bae00     hd2.obj
 0003:00009e04       ?hToolTip_tray@@3PAUHWND__@@A 004bae04     hd2.obj
 0003:00009e08       ?hUpIconA@@3PAUHICON__@@A  004bae08     hd2.obj
 0003:00009e0c       ?iShowFileDialog@@3HA      004bae0c     hd2.obj
 0003:00009e10       ?g_ImageList_Tab@@3PAU_IMAGELIST@@A 004bae10     hd2.obj
 0003:00009e14       ?g_GetAdsLinkHandle@@3PAXA 004bae14     hd2.obj
 0003:00009e18       ?hTitleDialog@@3PAUHWND__@@A 004bae18     hd2.obj
 0003:00009e1c       ?hToolTip_allwnd@@3PAUHWND__@@A 004bae1c     hd2.obj
 0003:00009e20       ?g_brushProcessPage@@3PAUHBRUSH__@@A 004bae20     hd2.obj
 0003:00009e24       ?ti_tray@@3UtagTOOLINFOW@@A 004bae24     hd2.obj
 0003:00009e54       ?iMoveIn@@3HA              004bae54     hd2.obj
 0003:00009e58       ?g_hChangeLangHandle@@3PAXA 004bae58     hd2.obj
 0003:00009e5c       ?hStatic_ADLink@@3PAUHWND__@@A 004bae5c     hd2.obj
 0003:00009e60       ?hPropertyDialog@@3PAUHWND__@@A 004bae60     hd2.obj
 0003:00009e64       ?g_BKTipDialog@@3PAUHWND__@@A 004bae64     hd2.obj
 0003:00009e68       ?g_brushWebPage@@3PAUHBRUSH__@@A 004bae68     hd2.obj
 0003:00009e7c       ?hCurrIcon@@3PAUHICON__@@A 004bae7c     hd2.obj
 0003:00009e84       ?hUpIconI@@3PAUHICON__@@A  004bae84     hd2.obj
 0003:00009e88       ?hProcess_Adlink@@3PAUHWND__@@A 004bae88     hd2.obj
 0003:00009e8c       ?g_brushAllPage@@3PAUHBRUSH__@@A 004bae8c     hd2.obj
 0003:00009e90       ?pITHeader@@3PAUsIconTitle@@A 004bae90     hd2.obj
 0003:00009e94       ?hDnIconA@@3PAUHICON__@@A  004bae94     hd2.obj
 0003:00009e98       ?wBKWnd@@3GA               004bae98     hd2.obj
 0003:00009ea0       ?g_AutoHideList@@3PAUHWND__@@A 004baea0     hd2.obj
 0003:00009ea4       ?cPID_BK@@3PA_WA           004baea4     hd2.obj
 0003:00009ecc       ?hList_Tray@@3PAUHWND__@@A 004baecc     hd2.obj
 0003:00009ed0       ?hAutoHideListMenu_Sub@@3PAUHMENU__@@A 004baed0     hd2.obj
 0003:00009ed4       ?hAutoHideListMenu@@3PAUHMENU__@@A 004baed4     hd2.obj
 0003:00009ed8       ?pIconHeader@@3PAUsIconTitle@@A 004baed8     hd2.obj
 0003:00009edc       ?hUser32@@3PAUHINSTANCE__@@A 004baedc     hd2.obj
 0003:00009ee0       ?hwndStatus@@3PAUHWND__@@A 004baee0     hd2.obj
 0003:00009ee4       ?hImage_TrayList@@3PAU_IMAGELIST@@A 004baee4     hd2.obj
 0003:00009ee8       ?FFD@@3U_WIN32_FIND_DATAW@@A 004baee8     hd2.obj
 0003:0000a138       ?hBK_ADLink@@3PAUHWND__@@A 004bb138     hd2.obj
 0003:0000a13c       ?hDnIconI@@3PAUHICON__@@A  004bb13c     hd2.obj
 0003:0000a140       ?g_brushTrayPage@@3PAUHBRUSH__@@A 004bb140     hd2.obj
 0003:0000a144       ?pGetLayeredWindowAttributes@@3P6GHPAUHWND__@@PAKPAE1@ZA 004bb144     hd2.obj
 0003:0000a148       ?g_oleemb@@3HA             004bb148     hd2.obj
 0003:0000a14c       ?uModifier_BK@@3IA         004bb14c     hd2.obj
 0003:0000a150       ?uMF_BK@@3IA               004bb150     hd2.obj
 0003:0000a154       ?uVK_BK@@3IA               004bb154     hd2.obj
 0003:0000a158       ?hTrayListMenu@@3PAUHMENU__@@A 004bb158     hd2.obj
 0003:0000a15c       ?hTrayListMenu_Sub@@3PAUHMENU__@@A 004bb15c     hd2.obj
 0003:0000a160       ?hBKListMenu@@3PAUHMENU__@@A 004bb160     hd2.obj
 0003:0000a164       ?hBKListMenu_Sub@@3PAUHMENU__@@A 004bb164     hd2.obj
 0003:0000a168       ?hBKListMenu_Wizard@@3PAUHMENU__@@A 004bb168     hd2.obj
 0003:0000a16c       ?hBKListMenu_WizardSub@@3PAUHMENU__@@A 004bb16c     hd2.obj
 0003:0000a170       ?g_uCheckTI@@3IA           004bb170     hd2.obj
 0003:0000a174       ?g_SetAdsTimer@@3IA        004bb174     hd2.obj
 0003:0000a178       ?g_SetWndAdsTimer@@3IA     004bb178     hd2.obj
 0003:0000a17c       ?g_ReConnTimer@@3IA        004bb17c     hd2.obj
 0003:0000a180       ?g_ExitChangeIconThread@@3HA 004bb180     hd2.obj
 0003:0000a184       ?pTempBK@@3PAUWndAndHandle@@A 004bb184     hd2.obj
 0003:0000a188       ?g_hStatus_Link@@3PAUHWND__@@A 004bb188     hd2.obj
 0003:0000a18c       ?g_hOpenFileHandle@@3PAXA  004bb18c     hd2.obj
 0003:0000a1ac       ?wbr_gen@@3PAUHBRUSH__@@A  004bb1ac     hd2.obj
 0003:0000a1b0       ?wbr@@3PAUHBRUSH__@@A      004bb1b0     hd2.obj
 0003:0000a1b8       ?hFont_New2@@3PAUHFONT__@@A 004bb1b8     hd2.obj
 0003:0000a1bc       ?tabDC@@3PAUHDC__@@A       004bb1bc     hd2.obj
 0003:0000a1c0       ?cr@@3KA                   004bb1c0     hd2.obj
 0003:0000a1c4       ?hToolTip1@@3PAUHWND__@@A  004bb1c4     hd2.obj
 0003:0000a1c8       ?hBtn_SwitchHide@@3PAUHWND__@@A 004bb1c8     hd2.obj
 0003:0000a1cc       ?g_ProcessParam@@3PAUWndAndHandle@@A 004bb1cc     hd2.obj
 0003:0000a1d0       ?g_iProcessCount@@3HA      004bb1d0     hd2.obj
 0003:0000a1d4       ?g_GetWeb1Fail@@3HA        004bb1d4     hd2.obj
 0003:0000a1d8       ?g_GetWeb2Fail@@3HA        004bb1d8     hd2.obj
 0003:0000a1dc       ?g_iAdsIdx@@3HA            004bb1dc     hd2.obj
 0003:0000a1e0       ?g_iWndAdsIdx@@3HA         004bb1e0     hd2.obj
 0003:0000a1e8       ?m_lnk_process@@3VCHyperLink@@A 004bb1e8     hd2.obj
 0003:0000b1fc       ?g_NewProcessList@@3V?$list@PAUNewProcessInfo@@V?$allocator@PAUNewProcessInfo@@@std@@@std@@A 004bc1fc     hd2.obj
 0003:0000b218       ?m_lnk1@@3VCHyperLink@@A   004bc218     hd2.obj
 0003:0000c22c       ?g_ProcessList1@@3V?$list@PAUNewProcessInfo@@V?$allocator@PAUNewProcessInfo@@@std@@@std@@A 004bd22c     hd2.obj
 0003:0000c248       ?gif_bk@@3VCPictureEx@@A   004bd248     hd2.obj
 0003:0000c2e0       ?m_lnk_tray@@3VCHyperLink@@A 004bd2e0     hd2.obj
 0003:0000d2f8       ?gif_web@@3VCPictureEx@@A  004be2f8     hd2.obj
 0003:0000d390       ?g_ICList@@3V?$list@PAUsIconTitle@@V?$allocator@PAUsIconTitle@@@std@@@std@@A 004be390     hd2.obj
 0003:0000d3a8       ?m_flash@@3VCPictureEx@@A  004be3a8     hd2.obj
 0003:0000d440       ?g_DBProcessList@@3V?$list@PAUAutoHideItem@@V?$allocator@PAUAutoHideItem@@@std@@@std@@A 004be440     hd2.obj
 0003:0000d458       ?gif_tray@@3VCPictureEx@@A 004be458     hd2.obj
 0003:0000d4f0       ?g_ITList@@3V?$list@PAUsIconTitle@@V?$allocator@PAUsIconTitle@@@std@@@std@@A 004be4f0     hd2.obj
 0003:0000d508       ?m_lnk_wndlist@@3VCHyperLink@@A 004be508     hd2.obj
 0003:0000e51c       ?g_BKHList@@3V?$list@PAUsBKWHotkey@@V?$allocator@PAUsBKWHotkey@@@std@@@std@@A 004bf51c     hd2.obj
 0003:0000e538       ?m_lnk_bk@@3VCHyperLink@@A 004bf538     hd2.obj
 0003:0000f550       ?m_lnk_autohide@@3VCHyperLink@@A 004c0550     hd2.obj
 0003:00010564       ?g_ProcessList2@@3V?$list@PAUNewProcessInfo@@V?$allocator@PAUNewProcessInfo@@@std@@@std@@A 004c1564     hd2.obj
 0003:00010580       ?gif_ah@@3VCPictureEx@@A   004c1580     hd2.obj
 0003:00010618       ?pe322_au@@3UtagPROCESSENTRY32W@@A 004c1618     hd3.obj
 0003:00010844       ?g_QuickHideAllTray_au@@3PAUWndAndHandle@@A 004c1844     hd3.obj
 0003:00010848       ?sBKSel_con@@3PAUWndAndHandle@@A 004c1848     hd3.obj
 0003:0001084c       ?iW_Sel_au@@3HA            004c184c     hd3.obj
 0003:00010850       ?cBKWndText_au@@3PA_WA     004c1850     hd3.obj
 0003:00010854       ?sBKSel_au@@3PAUWndAndHandle@@A 004c1854     hd3.obj
 0003:00010858       ?urlArray@@3V?$vector@PAUsGifUrl@@V?$allocator@PAUsGifUrl@@@std@@@std@@A 004c1858     hd3.obj
 0003:0001086c       ?g_HidedTrayList@@3V?$list@PAUWndAndHandle@@V?$allocator@PAUWndAndHandle@@@std@@@std@@A 004c186c     hd3.obj
 0003:00010884       ?g_HidedWndList@@3V?$list@PAUWndAndHandle@@V?$allocator@PAUWndAndHandle@@@std@@@std@@A 004c1884     hd3.obj
 0003:0001089c       ?hwndFrom@@3PAUHWND__@@A   004c189c     HyperLink.obj
 0003:000108a0       ?hStatusToolTip@@3PAUHWND__@@A 004c18a0     HyperLink.obj
 0003:000108a4       ?m_pOldWindowProc@CPictureEx@@1P6GJPAUHWND__@@IIJ@ZA 004c18a4     PictureEx.obj
 0003:000108a8       ?ProxyInfoHead@UseProxyDlg@@2UProxyInfo@@A 004c18a8     UseProxyDlg.obj
 0003:00010d18       ?hHideIP_ADLink@@3PAUHWND__@@A 004c1d18     UseProxyDlg.obj
 0003:00010d1c       ?hThread1@@3PAXA           004c1d1c     UseProxyDlg.obj
 0003:00010d20       ?hThread4@@3PAXA           004c1d20     UseProxyDlg.obj
 0003:00010d24       ?hThread_testpro@@3PAXA    004c1d24     UseProxyDlg.obj
 0003:00010d28       ?hThread2@@3PAXA           004c1d28     UseProxyDlg.obj
 0003:00010d2c       ?hAdv_ADLink@@3PAUHWND__@@A 004c1d2c     UseProxyDlg.obj
 0003:00010d30       ?hThread3@@3PAXA           004c1d30     UseProxyDlg.obj
 0003:00010d34       ?g_brushGeneralPage@@3PAUHBRUSH__@@A 004c1d34     UseProxyDlg.obj
 0003:00010d38       ?hMainWnd@UseProxyDlg@@2PAUHWND__@@A 004c1d38     UseProxyDlg.obj
 0003:00010d3c       ?hAdvWnd@UseProxyDlg@@2PAUHWND__@@A 004c1d3c     UseProxyDlg.obj
 0003:00010d40       ?hGenWnd@UseProxyDlg@@2PAUHWND__@@A 004c1d40     UseProxyDlg.obj
 0003:00010d44       ?hUseInfoWnd@UseProxyDlg@@2PAUHWND__@@A 004c1d44     UseProxyDlg.obj
 0003:00010d48       ?ProGressWnd@UseProxyDlg@@2PAUHWND__@@A 004c1d48     UseProxyDlg.obj
 0003:00010d4c       ?hFile@UseProxyDlg@@2PAXA  004c1d4c     UseProxyDlg.obj
 0003:00010d50       ?hMapping@UseProxyDlg@@2PAXA 004c1d50     UseProxyDlg.obj
 0003:00010d54       ?basepointer@UseProxyDlg@@2PA_WA 004c1d54     UseProxyDlg.obj
 0003:00010d58       ?hThread@UseProxyDlg@@2PAXA 004c1d58     UseProxyDlg.obj
 0003:00010d5c       ?hThread_setproxylist@@3PAXA 004c1d5c     UseProxyDlg.obj
 0003:00010d60       ?hThread_download@@3PAXA   004c1d60     UseProxyDlg.obj
 0003:00010d64       ?g_ExitDownloadQuery@@3HA  004c1d64     UseProxyDlg.obj
 0003:00010d68       ?g_ExitDownloadThread@@3HA 004c1d68     UseProxyDlg.obj
 0003:00010d6c       ?g_ExitSetProxyThread@@3HA 004c1d6c     UseProxyDlg.obj
 0003:00010d70       ?g_ExitTestProxyThread@@3HA 004c1d70     UseProxyDlg.obj
 0003:00010d74       ?hInst@UseProxyDlg@@2PAUHINSTANCE__@@A 004c1d74     UseProxyDlg.obj
 0003:00010d78       ?g_RestoreHandle@@3PAXA    004c1d78     UseProxyDlg.obj
 0003:00010d80       ?gif_gen@@3VCPictureEx@@A  004c1d80     UseProxyDlg.obj
 0003:00010e18       ?m_lnk_hideip@@3VCHyperLink@@A 004c1e18     UseProxyDlg.obj
 0003:00011e30       ?gif_adv@@3VCPictureEx@@A  004c2e30     UseProxyDlg.obj
 0003:00011ec8       ?m_lnk_adv@@3VCHyperLink@@A 004c2ec8     UseProxyDlg.obj
 0003:00012ee8       ?wsprintffp@@3P6AHPADPBDZZA 004c3ee8     MSVCRTD:_error_.obj
 0003:00013248       __forceCRTManifestRTM      004c4248     MSVCRTD:crtmanifestrtm.obj
 0003:0001324c       __commode                  004c424c     MSVCRTD:xncommod.obj
 0003:00013250       __fmode                    004c4250     MSVCRTD:xtxtmode.obj
 0003:00013254       __dowildcard               004c4254     MSVCRTD:wildcard.obj
 0003:00013258       __newmode                  004c4258     MSVCRTD:_newmode.obj
 0003:0001325c       ?_AtlBaseModule@ATL@@3VCAtlBaseModule@1@A 004c425c     atlsd:atlbase.obj
 0003:00013294       ?atlTraceGeneral@ATL@@3VCTraceCategory@1@A 004c4294     atlsd:atltrace.obj
 0003:00013298       ?atlTraceCOM@ATL@@3VCTraceCategory@1@A 004c4298     atlsd:atltrace.obj
 0003:0001329c       ?atlTraceQI@ATL@@3VCTraceCategory@1@A 004c429c     atlsd:atltrace.obj
 0003:000132a0       ?atlTraceRegistrar@ATL@@3VCTraceCategory@1@A 004c42a0     atlsd:atltrace.obj
 0003:000132a4       ?atlTraceRefcount@ATL@@3VCTraceCategory@1@A 004c42a4     atlsd:atltrace.obj
 0003:000132a8       ?atlTraceWindowing@ATL@@3VCTraceCategory@1@A 004c42a8     atlsd:atltrace.obj
 0003:000132ac       ?atlTraceControls@ATL@@3VCTraceCategory@1@A 004c42ac     atlsd:atltrace.obj
 0003:000132b0       ?atlTraceHosting@ATL@@3VCTraceCategory@1@A 004c42b0     atlsd:atltrace.obj
 0003:000132b4       ?atlTraceDBClient@ATL@@3VCTraceCategory@1@A 004c42b4     atlsd:atltrace.obj
 0003:000132b8       ?atlTraceDBProvider@ATL@@3VCTraceCategory@1@A 004c42b8     atlsd:atltrace.obj
 0003:000132bc       ?atlTraceSnapin@ATL@@3VCTraceCategory@1@A 004c42bc     atlsd:atltrace.obj
 0003:000132c0       ?atlTraceNotImpl@ATL@@3VCTraceCategory@1@A 004c42c0     atlsd:atltrace.obj
 0003:000132c4       ?atlTraceAllocation@ATL@@3VCTraceCategory@1@A 004c42c4     atlsd:atltrace.obj
 0003:000132c8       ?atlTraceException@ATL@@3VCTraceCategory@1@A 004c42c8     atlsd:atltrace.obj
 0003:000132cc       ?atlTraceTime@ATL@@3VCTraceCategory@1@A 004c42cc     atlsd:atltrace.obj
 0003:000132d0       ?atlTraceCache@ATL@@3VCTraceCategory@1@A 004c42d0     atlsd:atltrace.obj
 0003:000132d4       ?atlTraceStencil@ATL@@3VCTraceCategory@1@A 004c42d4     atlsd:atltrace.obj
 0003:000132d8       ?atlTraceString@ATL@@3VCTraceCategory@1@A 004c42d8     atlsd:atltrace.obj
 0003:000132dc       ?atlTraceMap@ATL@@3VCTraceCategory@1@A 004c42dc     atlsd:atltrace.obj
 0003:000132e0       ?atlTraceUtil@ATL@@3VCTraceCategory@1@A 004c42e0     atlsd:atltrace.obj
 0003:000132e4       ?atlTraceSecurity@ATL@@3VCTraceCategory@1@A 004c42e4     atlsd:atltrace.obj
 0003:000132e8       ?atlTraceSync@ATL@@3VCTraceCategory@1@A 004c42e8     atlsd:atltrace.obj
 0003:000132ec       ?atlTraceISAPI@ATL@@3VCTraceCategory@1@A 004c42ec     atlsd:atltrace.obj
 0003:000132f0       ?atlTraceUser@ATL@@3VCTraceCategory@1@A 004c42f0     atlsd:atltrace.obj
 0003:000132f4       ?atlTraceUser2@ATL@@3VCTraceCategory@1@A 004c42f4     atlsd:atltrace.obj
 0003:000132f8       ?atlTraceUser3@ATL@@3VCTraceCategory@1@A 004c42f8     atlsd:atltrace.obj
 0003:000132fc       ?atlTraceUser4@ATL@@3VCTraceCategory@1@A 004c42fc     atlsd:atltrace.obj
 0003:00013300       ?g_Allocator@@3VCAtlAllocator@@A 004c4300     atlsd:Externs.obj
 0003:00013334       ?s_trace@CTrace@ATL@@2V12@A 004c4334     atlsd:Externs.obj
 0003:0001333c       ___native_startup_state    004c433c     <common>
 0003:00013340       ___native_startup_lock     004c4340     <common>
 0003:00013344       __adjust_fdiv              004c4344     <common>
 0003:00013348       ___sse2_available          004c4348     <common>
 0003:0001334c       ___dyn_tls_init_callback   004c434c     <common>
 0003:00013350       ___onexitend               004c4350     <common>
 0003:00013354       ___onexitbegin             004c4354     <common>
 0004:00000000       ?InstNum@@3HA              004c5000     hd.obj
 0004:00000004       ?hMainWindow@@3PAUHWND__@@A 004c5004     hd.obj

 entry point at        0001:000863e0

 Static symbols

 0001:fffff000       __unwindfunclet$??0logic_error@std@@QAE@ABV?$basic_string@DU?$char_traits@D@std@@V?$allocator@D@2@@1@@Z$0 00400000 f   PictureEx.obj
 0001:fffff000       __unwindfunclet$??E?$_Iterator@$00@?$list@PAUsBKWHotkey@@V?$allocator@PAUsBKWHotkey@@@std@@@std@@QAE?AV012@H@Z$0 00400000 f   hd2.obj
 0001:fffff000       __unwindfunclet$?_Adopt@_Iterator_base@std@@QAEXPBV_Container_base_secure@2@@Z$0 00400000 f   PictureEx.obj
 0001:fffff000       __unwindfunclet$??4_Iterator_base@std@@QAEAAV01@ABV01@@Z$0 00400000 f   PictureEx.obj
 0001:fffff000       __unwindfunclet$??1_Iterator_base@std@@QAE@XZ$0 00400000 f   PictureEx.obj
 0001:fffff000       __unwindfunclet$??0logic_error@std@@QAE@ABV01@@Z$0 00400000 f   hd3.obj
 0001:fffff000       __unwindfunclet$??E?$_Iterator@$00@?$list@PAUAutoHideItem@@V?$allocator@PAUAutoHideItem@@@std@@@std@@QAE?AV012@H@Z$0 00400000 f   hd3.obj
 0001:fffff000       __unwindfunclet$??0?$_Const_iterator@$00@?$list@PAUsBKWHotkey@@V?$allocator@PAUsBKWHotkey@@@std@@@std@@QAE@PAU_Node@?$_List_nod@PAUsBKWHotkey@@V?$allocator@PAUsBKWHotkey@@@std@@@2@PBV12@@Z$0 00400000 f   hd2.obj
 0001:fffff000       __unwindfunclet$??0logic_error@std@@QAE@ABV?$basic_string@DU?$char_traits@D@std@@V?$allocator@D@2@@1@@Z$0 00400000 f   hd3.obj
 0001:fffff000       __unwindfunclet$??4_Iterator_base@std@@QAEAAV01@ABV01@@Z$0 00400000 f   hd2.obj
 0001:fffff000       __unwindfunclet$?_Adopt@_Iterator_base@std@@QAEXPBV_Container_base_secure@2@@Z$0 00400000 f   hd2.obj
 0001:fffff000       __unwindfunclet$??1_Iterator_base@std@@QAE@XZ$0 00400000 f   hd3.obj
 0001:fffff000       __unwindfunclet$??1_Iterator_base@std@@QAE@XZ$0 00400000 f   hd2.obj
 0001:fffff000       __unwindfunclet$?_Adopt@_Iterator_base@std@@QAEXPBV_Container_base_secure@2@@Z$0 00400000 f   hd3.obj
 0001:fffff000       __unwindfunclet$??0?$_Const_iterator@$00@?$list@PAUAutoHideItem@@V?$allocator@PAUAutoHideItem@@@std@@@std@@QAE@PAU_Node@?$_List_nod@PAUAutoHideItem@@V?$allocator@PAUAutoHideItem@@@std@@@2@PBV12@@Z$0 00400000 f   hd3.obj
 0001:fffff000       __unwindfunclet$??4_Iterator_base@std@@QAEAAV01@ABV01@@Z$0 00400000 f   hd3.obj
 0001:fffff000       __unwindfunclet$??0logic_error@std@@QAE@ABV01@@Z$0 00400000 f   PictureEx.obj
 0001:fffff008       __unwindfunclet$??E?$_Iterator@$00@?$list@PAUAutoHideItem@@V?$allocator@PAUAutoHideItem@@@std@@@std@@QAE?AV012@H@Z$1 00400008 f   hd3.obj
 0001:fffff008       __ehhandler$??0?$_Const_iterator@$00@?$list@PAUAutoHideItem@@V?$allocator@PAUAutoHideItem@@@std@@@std@@QAE@PAU_Node@?$_List_nod@PAUAutoHideItem@@V?$allocator@PAUAutoHideItem@@@std@@@2@PBV12@@Z 00400008 f   hd3.obj
 0001:fffff008       __unwindfunclet$??E?$_Iterator@$00@?$list@PAUsBKWHotkey@@V?$allocator@PAUsBKWHotkey@@@std@@@std@@QAE?AV012@H@Z$1 00400008 f   hd2.obj
 0001:fffff008       __ehhandler$??0?$_Const_iterator@$00@?$list@PAUsBKWHotkey@@V?$allocator@PAUsBKWHotkey@@@std@@@std@@QAE@PAU_Node@?$_List_nod@PAUsBKWHotkey@@V?$allocator@PAUsBKWHotkey@@@std@@@2@PBV12@@Z 00400008 f   hd2.obj
 0001:fffff012       __ehhandler$??0logic_error@std@@QAE@ABV01@@Z 00400012 f   PictureEx.obj
 0001:fffff012       __ehhandler$?_Adopt@_Iterator_base@std@@QAEXPBV_Container_base_secure@2@@Z 00400012 f   PictureEx.obj
 0001:fffff012       __ehhandler$??0logic_error@std@@QAE@ABV?$basic_string@DU?$char_traits@D@std@@V?$allocator@D@2@@1@@Z 00400012 f   PictureEx.obj
 0001:fffff012       __ehhandler$??4_Iterator_base@std@@QAEAAV01@ABV01@@Z 00400012 f   PictureEx.obj
 0001:fffff012       __ehhandler$??1_Iterator_base@std@@QAE@XZ 00400012 f   PictureEx.obj
 0001:fffff012       __ehhandler$??0logic_error@std@@QAE@ABV?$basic_string@DU?$char_traits@D@std@@V?$allocator@D@2@@1@@Z 00400012 f   hd3.obj
 0001:fffff012       __ehhandler$??4_Iterator_base@std@@QAEAAV01@ABV01@@Z 00400012 f   hd3.obj
 0001:fffff012       __ehhandler$??1_Iterator_base@std@@QAE@XZ 00400012 f   hd2.obj
 0001:fffff012       __ehhandler$??4_Iterator_base@std@@QAEAAV01@ABV01@@Z 00400012 f   hd2.obj
 0001:fffff012       __ehhandler$?_Adopt@_Iterator_base@std@@QAEXPBV_Container_base_secure@2@@Z 00400012 f   hd3.obj
 0001:fffff012       __ehhandler$??1_Iterator_base@std@@QAE@XZ 00400012 f   hd3.obj
 0001:fffff012       __ehhandler$?_Adopt@_Iterator_base@std@@QAEXPBV_Container_base_secure@2@@Z 00400012 f   hd2.obj
 0001:fffff012       __ehhandler$??0logic_error@std@@QAE@ABV01@@Z 00400012 f   hd3.obj
 0001:fffff027       __ehhandler$??E?$_Iterator@$00@?$list@PAUsBKWHotkey@@V?$allocator@PAUsBKWHotkey@@@std@@@std@@QAE?AV012@H@Z 00400027 f   hd2.obj
 0001:fffff027       __ehhandler$??E?$_Iterator@$00@?$list@PAUAutoHideItem@@V?$allocator@PAUAutoHideItem@@@std@@@std@@QAE?AV012@H@Z 00400027 f   hd3.obj
 0001:00008590       __catch$??1CppSQLite3Query@@UAE@XZ$0 00409590 f   CppSQLite3.obj
 0001:00008627       __catch$??4CppSQLite3Query@@QAEAAV0@ABV0@@Z$0 00409627 f   CppSQLite3.obj
 0001:000092b0       __catch$??1CppSQLite3Table@@UAE@XZ$0 0040a2b0 f   CppSQLite3.obj
 0001:00009347       __catch$??4CppSQLite3Table@@QAEAAV0@ABV0@@Z$0 0040a347 f   CppSQLite3.obj
 0001:00009d20       __catch$??1CppSQLite3Statement@@UAE@XZ$0 0040ad20 f   CppSQLite3.obj
 0001:0000d013       __catch$??0DBClass@@QAE@XZ$0 0040e013 f   DBClass.obj
 0001:0000d240       __catch$?CreateARTable@DBClass@@QAEHXZ$0 0040e240 f   DBClass.obj
 0001:0000d360       __catch$?CreateHMTable@DBClass@@QAEHXZ$0 0040e360 f   DBClass.obj
 0001:0000d480       __catch$?CreateBKHKTable@DBClass@@QAEHXZ$0 0040e480 f   DBClass.obj
 0001:0000d5cf       __catch$?CreateSizePosTable@DBClass@@QAEHXZ$0 0040e5cf f   DBClass.obj
 0001:0000d700       __catch$?CreateIconTitleTable@DBClass@@QAEHXZ$0 0040e700 f   DBClass.obj
 0001:0000d820       __catch$?CreateAutoHideTable@DBClass@@QAEHXZ$0 0040e820 f   DBClass.obj
 0001:0000db8d       __catch$?InsertAutoHideItem@DBClass@@QAEHPAUAutoHideItem@@@Z$0 0040eb8d f   DBClass.obj
 0001:0000dda3       __catch$?DelAutoHideItem@DBClass@@QAEHPAUAutoHideItem@@@Z$0 0040eda3 f   DBClass.obj
 0001:0000dfae       __catch$?InsertARItem@DBClass@@QAEHPAUsFileItem@@@Z$0 0040efae f   DBClass.obj
 0001:0000e1a0       __catch$?InsertSizePosItem@DBClass@@QAEHPAUSizePosItem@@@Z$0 0040f1a0 f   DBClass.obj
 0001:0000e5f8       __catch$?InsertIconTitleItem@DBClass@@QAEHPAUIconTitleItem@@H@Z$0 0040f5f8 f   DBClass.obj
 0001:0000e7ea       __catch$?UpdateSizePosItem@DBClass@@QAEHPAUSizePosItem@@@Z$0 0040f7ea f   DBClass.obj
 0001:0000eab5       __catch$?InsertHMItem@DBClass@@QAEHPAUsHMF_Item@@@Z$0 0040fab5 f   DBClass.obj
 0001:0000efe7       __catch$?InsertBKHKItem@DBClass@@QAEHPAUsBKWHotkey@@@Z$0 0040ffe7 f   DBClass.obj
 0001:0000f253       __catch$?IsInARFL@DBClass@@QAEHPAUsFileItem@@@Z$0 00410253 f   DBClass.obj
 0001:0000f4b3       __catch$?IsInHM@DBClass@@QAEHPAUsHMF_Item@@@Z$0 004104b3 f   DBClass.obj
 0001:0000f710       __catch$?IsInBKHK@DBClass@@QAEHPAUsBKWHotkey@@@Z$0 00410710 f   DBClass.obj
 0001:0000f911       __catch$?DelARItem@DBClass@@QAEHPAUsFileItem@@@Z$0 00410911 f   DBClass.obj
 0001:0000fd57       __catch$?DeleteIconTitleItem@DBClass@@QAEHPAUIconTitleItem@@H@Z$0 00410d57 f   DBClass.obj
 0001:0000ff61       __catch$?DelHMItem@DBClass@@QAEHPAUsHMF_Item@@@Z$0 00410f61 f   DBClass.obj
 0001:00010161       __catch$?DelBKHKItem@DBClass@@QAEHPAUsBKWHotkey@@@Z$0 00411161 f   DBClass.obj
 0001:00010462       __catch$?AddHMTime@DBClass@@QAEHPAUsHMF_Item@@@Z$0 00411462 f   DBClass.obj
 0001:00010868       __catch$?ReadHK@DBClass@@QAEHPAUsBKWHotkey@@@Z$0 00411868 f   DBClass.obj
 0001:00010b06       __catch$?ReadSizePos@DBClass@@QAEHPAUSizePosItem@@@Z$0 00411b06 f   DBClass.obj
 0001:00010ea8       __catch$?ReadIconTitleItem@DBClass@@QAEHPAUIconTitleItem@@PAH@Z$0 00411ea8 f   DBClass.obj
 0001:00011185       __catch$?ReadAHItem@DBClass@@QAEHPAUAutoHideItem@@PAHP6AH0@Z@Z$0 00412185 f   DBClass.obj
 0001:000112b0       __catch$?CreateUserNameTable@DBClass@@QAEHXZ$0 004122b0 f   DBClass.obj
 0001:0001158d       __catch$?SaveUserName@DBClass@@QAEHPA_W@Z$0 0041258d f   DBClass.obj
 0001:000117db       __catch$?ReadUserName@DBClass@@QAEHPA_W@Z$0 004127db f   DBClass.obj
 0001:00024095       __catch$?GetFileFromServer@@YAHPAD@Z$0 00425095 f   hd.obj
 0001:00024195       __catch$?GetFileFromServer@@YAHPAD@Z$1 00425195 f   hd.obj
 0001:00032275       __catch$?Add@CExpansionVector@ATL@@QAEHPB_W0@Z$0 00433275 f i hd.obj
 0001:000322fb       __catch$?Add@CExpansionVector@ATL@@QAEHPB_W0@Z$2 004332fb f i hd.obj
 0001:00032bc3       __catch$?RegisterFromResource@CRegObject@ATL@@IAEJPB_W00H@Z$3 00433bc3 f i hd.obj
 0001:00035b90       __catch$?AddValue@CRegParser@ATL@@IAEJAAVCRegKey@2@PB_WPA_W@Z$0 00436b90 f i hd.obj
 0001:00035eac       __catch$?AddValue@CRegParser@ATL@@IAEJAAVCRegKey@2@PB_WPA_W@Z$2 00436eac f i hd.obj
 0001:00039e1b       __catch$?AddARFL@@YAHPAUsFileItem@@@Z$0 0043ae1b f   hd2.obj
 0001:0003a1f2       __catch$?IsInARFL@@YAHPAUsFileItem@@@Z$0 0043b1f2 f   hd2.obj
 0001:0003a252       __catch$?IsInARFL@@YAHPAUsFileItem@@@Z$1 0043b252 f   hd2.obj
 0001:0003a29c       __catch$?IsInARFL@@YAHPAUsFileItem@@@Z$2 0043b29c f   hd2.obj
 0001:0003a7ee       __catch$?DelItem@@YAHPAUsFileItem@@@Z$0 0043b7ee f   hd2.obj
 0001:0003a84e       __catch$?DelItem@@YAHPAUsFileItem@@@Z$1 0043b84e f   hd2.obj
 0001:0003a898       __catch$?DelItem@@YAHPAUsFileItem@@@Z$2 0043b898 f   hd2.obj
 0001:0003b3fc       __catch$?HMF_Modify@@YAHPAUsHMF_Item@@G@Z$0 0043c3fc f   hd2.obj
 0001:0003b45c       __catch$?HMF_Modify@@YAHPAUsHMF_Item@@G@Z$1 0043c45c f   hd2.obj
 0001:0003b4a6       __catch$?HMF_Modify@@YAHPAUsHMF_Item@@G@Z$2 0043c4a6 f   hd2.obj
 0001:0005e4b0       _time                      0045f4b0 f   hd2.obj
 0001:00060d6f       __catch$?_Buynode@?$list@PAUsTitleWnd@@V?$allocator@PAUsTitleWnd@@@std@@@std@@IAEPAU_Node@?$_List_nod@PAUsTitleWnd@@V?$allocator@PAUsTitleWnd@@@std@@@2@XZ$0 00461d6f f i hd2.obj
 0001:000632d0       __catch$?_Buynode@?$list@PAUsTitleWnd@@V?$allocator@PAUsTitleWnd@@@std@@@std@@IAEPAU_Node@?$_List_nod@PAUsTitleWnd@@V?$allocator@PAUsTitleWnd@@@std@@@2@PAU342@0ABQAUsTitleWnd@@@Z$0 004642d0 f i hd2.obj
 0001:000639b0       __catch$?_Buynode@?$list@PAUsBKWHotkey@@V?$allocator@PAUsBKWHotkey@@@std@@@std@@IAEPAU_Node@?$_List_nod@PAUsBKWHotkey@@V?$allocator@PAUsBKWHotkey@@@std@@@2@PAU342@0ABQAUsBKWHotkey@@@Z$0 004649b0 f i hd2.obj
 0001:00063d40       __catch$?_Buynode@?$list@PAUsIconTitle@@V?$allocator@PAUsIconTitle@@@std@@@std@@IAEPAU_Node@?$_List_nod@PAUsIconTitle@@V?$allocator@PAUsIconTitle@@@std@@@2@PAU342@0ABQAUsIconTitle@@@Z$0 00464d40 f i hd2.obj
 0001:000645d0       __catch$?_Buynode@?$list@PAUNewProcessInfo@@V?$allocator@PAUNewProcessInfo@@@std@@@std@@IAEPAU_Node@?$_List_nod@PAUNewProcessInfo@@V?$allocator@PAUNewProcessInfo@@@std@@@2@PAU342@0ABQAUNewProcessInfo@@@Z$0 004655d0 f i hd2.obj
 0001:00064960       __catch$?_Buynode@?$list@PAUAutoHideItem@@V?$allocator@PAUAutoHideItem@@@std@@@std@@IAEPAU_Node@?$_List_nod@PAUAutoHideItem@@V?$allocator@PAUAutoHideItem@@@std@@@2@PAU342@0ABQAUAutoHideItem@@@Z$0 00465960 f i hd2.obj
 0001:0006652f       __catch$?_Buynode@?$list@PAUsBKWHotkey@@V?$allocator@PAUsBKWHotkey@@@std@@@std@@IAEPAU_Node@?$_List_nod@PAUsBKWHotkey@@V?$allocator@PAUsBKWHotkey@@@std@@@2@XZ$0 0046752f f i hd2.obj
 0001:00066a9f       __catch$?_Buynode@?$list@PAUsIconTitle@@V?$allocator@PAUsIconTitle@@@std@@@std@@IAEPAU_Node@?$_List_nod@PAUsIconTitle@@V?$allocator@PAUsIconTitle@@@std@@@2@XZ$0 00467a9f f i hd2.obj
 0001:0006700f       __catch$?_Buynode@?$list@PAUNewProcessInfo@@V?$allocator@PAUNewProcessInfo@@@std@@@std@@IAEPAU_Node@?$_List_nod@PAUNewProcessInfo@@V?$allocator@PAUNewProcessInfo@@@std@@@2@XZ$0 0046800f f i hd2.obj
 0001:0006757f       __catch$?_Buynode@?$list@PAUAutoHideItem@@V?$allocator@PAUAutoHideItem@@@std@@@std@@IAEPAU_Node@?$_List_nod@PAUAutoHideItem@@V?$allocator@PAUAutoHideItem@@@std@@@2@XZ$0 0046857f f i hd2.obj
 0001:0006dbaf       __catch$?_Insert_n@?$vector@PAUsGifUrl@@V?$allocator@PAUsGifUrl@@@std@@@std@@IAEXV?$_Vector_const_iterator@PAUsGifUrl@@V?$allocator@PAUsGifUrl@@@std@@@2@IABQAUsGifUrl@@@Z$0 0046ebaf f i hd3.obj
 0001:0006dd15       __catch$?_Insert_n@?$vector@PAUsGifUrl@@V?$allocator@PAUsGifUrl@@@std@@@std@@IAEXV?$_Vector_const_iterator@PAUsGifUrl@@V?$allocator@PAUsGifUrl@@@std@@@2@IABQAUsGifUrl@@@Z$2 0046ed15 f i hd3.obj
 0001:0006e160       __catch$?_Buynode@?$list@PAUWndAndHandle@@V?$allocator@PAUWndAndHandle@@@std@@@std@@IAEPAU_Node@?$_List_nod@PAUWndAndHandle@@V?$allocator@PAUWndAndHandle@@@std@@@2@PAU342@0ABQAUWndAndHandle@@@Z$0 0046f160 f i hd3.obj
 0001:0007009f       __catch$?_Buynode@?$list@PAUWndAndHandle@@V?$allocator@PAUWndAndHandle@@@std@@@std@@IAEPAU_Node@?$_List_nod@PAUWndAndHandle@@V?$allocator@PAUWndAndHandle@@@std@@@2@XZ$0 0047109f f i hd3.obj
 0001:00075ef6       __catch$?_Insert_n@?$vector@UTFrame@CPictureEx@@V?$allocator@UTFrame@CPictureEx@@@std@@@std@@IAEXV?$_Vector_const_iterator@UTFrame@CPictureEx@@V?$allocator@UTFrame@CPictureEx@@@std@@@2@IABUTFrame@CPictureEx@@@Z$0 00476ef6 f i PictureEx.obj
 0001:00076072       __catch$?_Insert_n@?$vector@UTFrame@CPictureEx@@V?$allocator@UTFrame@CPictureEx@@@std@@@std@@IAEXV?$_Vector_const_iterator@UTFrame@CPictureEx@@V?$allocator@UTFrame@CPictureEx@@@std@@@2@IABUTFrame@CPictureEx@@@Z$2 00477072 f i PictureEx.obj
 0001:0007700c       __catch$??$_Uninit_fill_n@PAUTFrame@CPictureEx@@IU12@V?$allocator@UTFrame@CPictureEx@@@std@@@std@@YAXPAUTFrame@CPictureEx@@IABU12@AAV?$allocator@UTFrame@CPictureEx@@@0@U_Nonscalar_ptr_iterator_tag@0@U_Range_checked_iterator_tag@0@@Z$0 0047800c f i PictureEx.obj
 0001:000778b8       __catch$??$_Uninit_copy@PAUTFrame@CPictureEx@@PAU12@V?$allocator@UTFrame@CPictureEx@@@std@@@std@@YAPAUTFrame@CPictureEx@@PAU12@00AAV?$allocator@UTFrame@CPictureEx@@@0@U_Nonscalar_ptr_iterator_tag@0@U_Range_checked_iterator_tag@0@@Z$0 004788b8 f i PictureEx.obj
 0001:0007b613       __catch$?TestHttpProxy@UseProxyDlg@@SGKPAX@Z$0 0047c613 f   UseProxyDlg.obj
 0001:0007b687       __catch$?TestHttpProxy@UseProxyDlg@@SGKPAX@Z$2 0047c687 f   UseProxyDlg.obj
 0001:0007b863       __catch$?TestSockProxy@UseProxyDlg@@SGKPAX@Z$0 0047c863 f   UseProxyDlg.obj
 0001:0007b8d7       __catch$?TestSockProxy@UseProxyDlg@@SGKPAX@Z$2 0047c8d7 f   UseProxyDlg.obj
 0001:0007b9b9       __catch$?TestSockProxy@UseProxyDlg@@SGKPAX@Z$4 0047c9b9 f   UseProxyDlg.obj
 0001:0007ba2d       __catch$?TestSockProxy@UseProxyDlg@@SGKPAX@Z$6 0047ca2d f   UseProxyDlg.obj
 0001:0007bd0c       __catch$?DownLoadFile@UseProxyDlg@@SGKPAX@Z$0 0047cd0c f   UseProxyDlg.obj
 0001:0007bd63       __catch$?DownLoadFile@UseProxyDlg@@SGKPAX@Z$2 0047cd63 f   UseProxyDlg.obj
 0001:0007bf76       __catch$?DownLoadFile@UseProxyDlg@@SGKPAX@Z$4 0047cf76 f   UseProxyDlg.obj
 0001:0008127b       __catch$?Init@CWebDB@@QAEHXZ$0 0048227b f   WebDB.obj
 0001:00081610       __catch$?ReadIconTitleItem@CWebDB@@QAEHPAUStatusTxtLinkItem@@@Z$0 00482610 f   WebDB.obj
 0001:00081930       __catch$?ReadWndAdsItem@CWebDB@@QAEHPAUStatusTxtLinkItem@@@Z$0 00482930 f   WebDB.obj
 0001:00081db2       __catch$?GetCount@CWebDB@@QAEHXZ$0 00482db2 f   WebDB.obj
 0001:00085970       ?ArrayUnwindFilter@@YAHPAU_EXCEPTION_POINTERS@@@Z 00486970 f   MSVCRTD:ehvecdtr.obj
 0001:00085a00       ?DebuggerProbe@@YAHK@Z     00486a00 f   MSVCRTD:_error_.obj
 0001:00085af0       ?failwithmessage@@YAXPAXHHPBD@Z 00486af0 f   MSVCRTD:_error_.obj
 0001:00085d00       ?DebuggerRuntime@@YAHKHPAXPB_W@Z 00486d00 f   MSVCRTD:_error_.obj
 0001:00085fe0       ?_getMemBlockDataString@@YAXPAD00I@Z 00486fe0 f   MSVCRTD:_error_.obj
 0001:000862e0       _pre_c_init                004872e0 f   MSVCRTD:crtexew.obj
 0001:00086380       _pre_cpp_init              00487380 f   MSVCRTD:crtexew.obj
 0001:00086400       ___tmainCRTStartup         00487400 f   MSVCRTD:crtexew.obj
 0001:00086740       _check_managed_app         00487740 f   MSVCRTD:crtexew.obj
 0001:00086cb0       ?GetPdbDll@@YAPAUHINSTANCE__@@XZ 00487cb0 f   MSVCRTD:_pdblkup_.obj
 0001:00086f10       _has_osfxsr_set            00487f10 f   MSVCRTD:cpu_disp.obj
 0001:000890b0       ?Init@@YG_NXZ              0048a0b0 f   atlsd:Externs.obj
 0001:0008a990       ?ShouldTraceOutput@ATL@@YG_NKKIPAPBVCAtlTraceCategory@@PAP6AHHPBDH11ZZ@Z 0048b990 f   atlsd:AtlDebugAPI.obj
 0001:0008ca70       __ehhandler$??1CppSQLite3Query@@UAE@XZ 0048da70 f   CppSQLite3.obj
 0001:0008ca90       __ehhandler$??4CppSQLite3Query@@QAEAAV0@ABV0@@Z 0048da90 f   CppSQLite3.obj
 0001:0008cab0       __ehhandler$??1CppSQLite3Table@@UAE@XZ 0048dab0 f   CppSQLite3.obj
 0001:0008cad0       __ehhandler$??4CppSQLite3Table@@QAEAAV0@ABV0@@Z 0048dad0 f   CppSQLite3.obj
 0001:0008caf0       __ehhandler$??1CppSQLite3Statement@@UAE@XZ 0048daf0 f   CppSQLite3.obj
 0001:0008cb10       __unwindfunclet$?execScalar@CppSQLite3DB@@QAEHPBD@Z$0 0048db10 f   CppSQLite3.obj
 0001:0008cb18       __ehhandler$?execScalar@CppSQLite3DB@@QAEHPBD@Z 0048db18 f   CppSQLite3.obj
 0001:0008cb40       __unwindfunclet$??0DBClass@@QAE@XZ$2 0048db40 f   DBClass.obj
 0001:0008cb4b       __ehhandler$??0DBClass@@QAE@XZ 0048db4b f   DBClass.obj
 0001:0008cb70       __unwindfunclet$??1DBClass@@UAE@XZ$0 0048db70 f   DBClass.obj
 0001:0008cb7b       __ehhandler$??1DBClass@@UAE@XZ 0048db7b f   DBClass.obj
 0001:0008cba0       __ehhandler$?CreateARTable@DBClass@@QAEHXZ 0048dba0 f   DBClass.obj
 0001:0008cbc0       __ehhandler$?CreateHMTable@DBClass@@QAEHXZ 0048dbc0 f   DBClass.obj
 0001:0008cbe0       __ehhandler$?CreateBKHKTable@DBClass@@QAEHXZ 0048dbe0 f   DBClass.obj
 0001:0008cc00       __ehhandler$?CreateSizePosTable@DBClass@@QAEHXZ 0048dc00 f   DBClass.obj
 0001:0008cc20       __ehhandler$?CreateIconTitleTable@DBClass@@QAEHXZ 0048dc20 f   DBClass.obj
 0001:0008cc40       __ehhandler$?CreateAutoHideTable@DBClass@@QAEHXZ 0048dc40 f   DBClass.obj
 0001:0008cc60       __unwindfunclet$?InsertAutoHideItem@DBClass@@QAEHPAUAutoHideItem@@@Z$2 0048dc60 f   DBClass.obj
 0001:0008cc68       __ehhandler$?InsertAutoHideItem@DBClass@@QAEHPAUAutoHideItem@@@Z 0048dc68 f   DBClass.obj
 0001:0008cc90       __ehhandler$?DelAutoHideItem@DBClass@@QAEHPAUAutoHideItem@@@Z 0048dc90 f   DBClass.obj
 0001:0008ccb0       __ehhandler$?InsertARItem@DBClass@@QAEHPAUsFileItem@@@Z 0048dcb0 f   DBClass.obj
 0001:0008ccd0       __ehhandler$?InsertSizePosItem@DBClass@@QAEHPAUSizePosItem@@@Z 0048dcd0 f   DBClass.obj
 0001:0008ccf0       __unwindfunclet$?InsertIconTitleItem@DBClass@@QAEHPAUIconTitleItem@@H@Z$2 0048dcf0 f   DBClass.obj
 0001:0008ccf8       __ehhandler$?InsertIconTitleItem@DBClass@@QAEHPAUIconTitleItem@@H@Z 0048dcf8 f   DBClass.obj
 0001:0008cd20       __ehhandler$?UpdateSizePosItem@DBClass@@QAEHPAUSizePosItem@@@Z 0048dd20 f   DBClass.obj
 0001:0008cd40       __ehhandler$?InsertHMItem@DBClass@@QAEHPAUsHMF_Item@@@Z 0048dd40 f   DBClass.obj
 0001:0008cd60       __unwindfunclet$?InsertBKHKItem@DBClass@@QAEHPAUsBKWHotkey@@@Z$2 0048dd60 f   DBClass.obj
 0001:0008cd68       __unwindfunclet$?InsertBKHKItem@DBClass@@QAEHPAUsBKWHotkey@@@Z$3 0048dd68 f   DBClass.obj
 0001:0008cd73       __ehhandler$?InsertBKHKItem@DBClass@@QAEHPAUsBKWHotkey@@@Z 0048dd73 f   DBClass.obj
 0001:0008cda0       __unwindfunclet$?IsInARFL@DBClass@@QAEHPAUsFileItem@@@Z$2 0048dda0 f   DBClass.obj
 0001:0008cda8       __ehhandler$?IsInARFL@DBClass@@QAEHPAUsFileItem@@@Z 0048dda8 f   DBClass.obj
 0001:0008cdd0       __unwindfunclet$?IsInHM@DBClass@@QAEHPAUsHMF_Item@@@Z$2 0048ddd0 f   DBClass.obj
 0001:0008cdd8       __ehhandler$?IsInHM@DBClass@@QAEHPAUsHMF_Item@@@Z 0048ddd8 f   DBClass.obj
 0001:0008ce00       __unwindfunclet$?IsInBKHK@DBClass@@QAEHPAUsBKWHotkey@@@Z$2 0048de00 f   DBClass.obj
 0001:0008ce08       __ehhandler$?IsInBKHK@DBClass@@QAEHPAUsBKWHotkey@@@Z 0048de08 f   DBClass.obj
 0001:0008ce30       __ehhandler$?DelARItem@DBClass@@QAEHPAUsFileItem@@@Z 0048de30 f   DBClass.obj
 0001:0008ce50       __unwindfunclet$?DeleteIconTitleItem@DBClass@@QAEHPAUIconTitleItem@@H@Z$2 0048de50 f   DBClass.obj
 0001:0008ce58       __ehhandler$?DeleteIconTitleItem@DBClass@@QAEHPAUIconTitleItem@@H@Z 0048de58 f   DBClass.obj
 0001:0008ce80       __ehhandler$?DelHMItem@DBClass@@QAEHPAUsHMF_Item@@@Z 0048de80 f   DBClass.obj
 0001:0008cea0       __ehhandler$?DelBKHKItem@DBClass@@QAEHPAUsBKWHotkey@@@Z 0048dea0 f   DBClass.obj
 0001:0008cec0       __unwindfunclet$?AddHMTime@DBClass@@QAEHPAUsHMF_Item@@@Z$2 0048dec0 f   DBClass.obj
 0001:0008cecb       __ehhandler$?AddHMTime@DBClass@@QAEHPAUsHMF_Item@@@Z 0048decb f   DBClass.obj
 0001:0008cf00       __unwindfunclet$?ReadHK@DBClass@@QAEHPAUsBKWHotkey@@@Z$2 0048df00 f   DBClass.obj
 0001:0008cf08       __ehhandler$?ReadHK@DBClass@@QAEHPAUsBKWHotkey@@@Z 0048df08 f   DBClass.obj
 0001:0008cf30       __unwindfunclet$?ReadSizePos@DBClass@@QAEHPAUSizePosItem@@@Z$2 0048df30 f   DBClass.obj
 0001:0008cf38       __ehhandler$?ReadSizePos@DBClass@@QAEHPAUSizePosItem@@@Z 0048df38 f   DBClass.obj
 0001:0008cf60       __unwindfunclet$?ReadIconTitleItem@DBClass@@QAEHPAUIconTitleItem@@PAH@Z$2 0048df60 f   DBClass.obj
 0001:0008cf68       __ehhandler$?ReadIconTitleItem@DBClass@@QAEHPAUIconTitleItem@@PAH@Z 0048df68 f   DBClass.obj
 0001:0008cf90       __unwindfunclet$?ReadAHItem@DBClass@@QAEHPAUAutoHideItem@@PAHP6AH0@Z@Z$2 0048df90 f   DBClass.obj
 0001:0008cf98       __ehhandler$?ReadAHItem@DBClass@@QAEHPAUAutoHideItem@@PAHP6AH0@Z@Z 0048df98 f   DBClass.obj
 0001:0008cfc0       __ehhandler$?CreateUserNameTable@DBClass@@QAEHXZ 0048dfc0 f   DBClass.obj
 0001:0008cfe0       __unwindfunclet$?SaveUserName@DBClass@@QAEHPA_W@Z$2 0048dfe0 f   DBClass.obj
 0001:0008cfe8       __ehhandler$?SaveUserName@DBClass@@QAEHPA_W@Z 0048dfe8 f   DBClass.obj
 0001:0008d010       __unwindfunclet$?ReadUserName@DBClass@@QAEHPA_W@Z$2 0048e010 f   DBClass.obj
 0001:0008d018       __ehhandler$?ReadUserName@DBClass@@QAEHPA_W@Z 0048e018 f   DBClass.obj
 0001:0008d040       __unwindfunclet$?MainProc1@@YGHPAUHWND__@@IIJ@Z$0 0048e040 f   hd.obj
 0001:0008d04b       __unwindfunclet$?MainProc1@@YGHPAUHWND__@@IIJ@Z$1 0048e04b f   hd.obj
 0001:0008d056       __unwindfunclet$?MainProc1@@YGHPAUHWND__@@IIJ@Z$2 0048e056 f   hd.obj
 0001:0008d061       __unwindfunclet$?MainProc1@@YGHPAUHWND__@@IIJ@Z$3 0048e061 f   hd.obj
 0001:0008d06c       __unwindfunclet$?MainProc1@@YGHPAUHWND__@@IIJ@Z$4 0048e06c f   hd.obj
 0001:0008d077       __unwindfunclet$?MainProc1@@YGHPAUHWND__@@IIJ@Z$6 0048e077 f   hd.obj
 0001:0008d082       __unwindfunclet$?MainProc1@@YGHPAUHWND__@@IIJ@Z$7 0048e082 f   hd.obj
 0001:0008d08d       __ehhandler$?MainProc1@@YGHPAUHWND__@@IIJ@Z 0048e08d f   hd.obj
 0001:0008d0c0       __unwindfunclet$??1_Iterator_base@std@@QAE@XZ$0 0048e0c0 f   hd.obj
 0001:0008d0d2       __ehhandler$??1_Iterator_base@std@@QAE@XZ 0048e0d2 f   hd.obj
 0001:0008d0f0       __unwindfunclet$??4_Iterator_base@std@@QAEAAV01@ABV01@@Z$0 0048e0f0 f   hd.obj
 0001:0008d102       __ehhandler$??4_Iterator_base@std@@QAEAAV01@ABV01@@Z 0048e102 f   hd.obj
 0001:0008d120       __unwindfunclet$?_Adopt@_Iterator_base@std@@QAEXPBV_Container_base_secure@2@@Z$0 0048e120 f   hd.obj
 0001:0008d132       __ehhandler$?_Adopt@_Iterator_base@std@@QAEXPBV_Container_base_secure@2@@Z 0048e132 f   hd.obj
 0001:0008d150       __unwindfunclet$?AboutProc@@YGHPAUHWND__@@IIJ@Z$0 0048e150 f   hd.obj
 0001:0008d15b       __ehhandler$?AboutProc@@YGHPAUHWND__@@IIJ@Z 0048e15b f   hd.obj
 0001:0008d190       __unwindfunclet$?EnumWindowsProc@@YGHPAUHWND__@@J@Z$0 0048e190 f   hd.obj
 0001:0008d19b       __unwindfunclet$?EnumWindowsProc@@YGHPAUHWND__@@J@Z$1 0048e19b f   hd.obj
 0001:0008d1a6       __ehhandler$?EnumWindowsProc@@YGHPAUHWND__@@J@Z 0048e1a6 f   hd.obj
 0001:0008d1d0       __ehhandler$?GetFileFromServer@@YAHPAD@Z 0048e1d0 f   hd.obj
 0001:0008d200       __unwindfunclet$?SaveUserName@@YAHPA_W@Z$0 0048e200 f   hd.obj
 0001:0008d208       __ehhandler$?SaveUserName@@YAHPA_W@Z 0048e208 f   hd.obj
 0001:0008d230       __unwindfunclet$?IsHaveTrayIcon@@YAHPAUWndAndHandle@@PAUTRAYDATA@@@Z$0 0048e230 f   hd.obj
 0001:0008d238       __ehhandler$?IsHaveTrayIcon@@YAHPAUWndAndHandle@@PAUTRAYDATA@@@Z 0048e238 f   hd.obj
 0001:0008d260       __unwindfunclet$?UpdateSelList@@YAHXZ$0 0048e260 f   hd.obj
 0001:0008d26b       __ehhandler$?UpdateSelList@@YAHXZ 0048e26b f   hd.obj
 0001:0008d2a0       __unwindfunclet$?EnumAllVisibleTray@@YAHXZ$0 0048e2a0 f   hd.obj
 0001:0008d2ab       __ehhandler$?EnumAllVisibleTray@@YAHXZ 0048e2ab f   hd.obj
 0001:0008d2e0       __unwindfunclet$?ModifyAutoReserveMenu@@YAHPAUHMENU__@@H@Z$0 0048e2e0 f   hd.obj
 0001:0008d2eb       __ehhandler$?ModifyAutoReserveMenu@@YAHPAUHMENU__@@H@Z 0048e2eb f   hd.obj
 0001:0008d310       __unwindfunclet$??E?$_Iterator@$00@?$list@PAUsBKWHotkey@@V?$allocator@PAUsBKWHotkey@@@std@@@std@@QAE?AV012@H@Z$0 0048e310 f   hd.obj
 0001:0008d318       __unwindfunclet$??E?$_Iterator@$00@?$list@PAUsBKWHotkey@@V?$allocator@PAUsBKWHotkey@@@std@@@std@@QAE?AV012@H@Z$1 0048e318 f   hd.obj
 0001:0008d337       __ehhandler$??E?$_Iterator@$00@?$list@PAUsBKWHotkey@@V?$allocator@PAUsBKWHotkey@@@std@@@std@@QAE?AV012@H@Z 0048e337 f   hd.obj
 0001:0008d360       __unwindfunclet$??0?$_Const_iterator@$00@?$list@PAUsBKWHotkey@@V?$allocator@PAUsBKWHotkey@@@std@@@std@@QAE@PAU_Node@?$_List_nod@PAUsBKWHotkey@@V?$allocator@PAUsBKWHotkey@@@std@@@2@PBV12@@Z$0 0048e360 f   hd.obj
 0001:0008d368       __ehhandler$??0?$_Const_iterator@$00@?$list@PAUsBKWHotkey@@V?$allocator@PAUsBKWHotkey@@@std@@@std@@QAE@PAU_Node@?$_List_nod@PAUsBKWHotkey@@V?$allocator@PAUsBKWHotkey@@@std@@@2@PBV12@@Z 0048e368 f   hd.obj
 0001:0008d390       __unwindfunclet$??1CRegObject@ATL@@UAE@XZ$0 0048e390 f   hd.obj
 0001:0008d39b       __unwindfunclet$??1CRegObject@ATL@@UAE@XZ$1 0048e39b f   hd.obj
 0001:0008d3a6       __ehhandler$??1CRegObject@ATL@@UAE@XZ 0048e3a6 f   hd.obj
 0001:0008d3d0       __unwindfunclet$??1CExpansionVector@ATL@@QAE@XZ$0 0048e3d0 f   hd.obj
 0001:0008d3d8       __ehhandler$??1CExpansionVector@ATL@@QAE@XZ 0048e3d8 f   hd.obj
 0001:0008d400       __unwindfunclet$?AddReplacement@CRegObject@ATL@@UAGJPB_W0@Z$0 0048e400 f   hd.obj
 0001:0008d408       __ehhandler$?AddReplacement@CRegObject@ATL@@UAGJPB_W0@Z 0048e408 f   hd.obj
 0001:0008d430       __unwindfunclet$?Add@CExpansionVector@ATL@@QAEHPB_W0@Z$4 0048e430 f   hd.obj
 0001:0008d438       __unwindfunclet$?Add@CExpansionVector@ATL@@QAEHPB_W0@Z$5 0048e438 f   hd.obj
 0001:0008d440       __ehhandler$?Add@CExpansionVector@ATL@@QAEHPB_W0@Z 0048e440 f   hd.obj
 0001:0008d460       __unwindfunclet$?ResourceRegisterSz@CRegObject@ATL@@QAGJPB_W00@Z$0 0048e460 f   hd.obj
 0001:0008d468       __ehhandler$?ResourceRegisterSz@CRegObject@ATL@@QAGJPB_W00@Z 0048e468 f   hd.obj
 0001:0008d490       __unwindfunclet$?RegisterFromResource@CRegObject@ATL@@IAEJPB_W00H@Z$7 0048e490 f   hd.obj
 0001:0008d498       __unwindfunclet$?RegisterFromResource@CRegObject@ATL@@IAEJPB_W00H@Z$8 0048e498 f   hd.obj
 0001:0008d4a3       __ehhandler$?RegisterFromResource@CRegObject@ATL@@IAEJPB_W00H@Z 0048e4a3 f   hd.obj
 0001:0008d4d0       __unwindfunclet$?ResourceUnregisterSz@CRegObject@ATL@@QAGJPB_W00@Z$0 0048e4d0 f   hd.obj
 0001:0008d4d8       __ehhandler$?ResourceUnregisterSz@CRegObject@ATL@@QAGJPB_W00@Z 0048e4d8 f   hd.obj
 0001:0008d500       __unwindfunclet$?PreProcessBuffer@CRegParser@ATL@@QAEJPA_WPAPA_W@Z$0 0048e500 f   hd.obj
 0001:0008d508       __ehhandler$?PreProcessBuffer@CRegParser@ATL@@QAEJPA_WPAPA_W@Z 0048e508 f   hd.obj
 0001:0008d530       __unwindfunclet$?AddString@CParseBuffer@CRegParser@ATL@@QAEHPB_W@Z$0 0048e530 f   hd.obj
 0001:0008d538       __ehhandler$?AddString@CParseBuffer@CRegParser@ATL@@QAEHPB_W@Z 0048e538 f   hd.obj
 0001:0008d560       __unwindfunclet$?RegisterSubkeys@CRegParser@ATL@@IAEJPA_WPAUHKEY__@@HH@Z$2 0048e560 f   hd.obj
 0001:0008d568       __unwindfunclet$?RegisterSubkeys@CRegParser@ATL@@IAEJPA_WPAUHKEY__@@HH@Z$3 0048e568 f   hd.obj
 0001:0008d573       __unwindfunclet$?RegisterSubkeys@CRegParser@ATL@@IAEJPA_WPAUHKEY__@@HH@Z$4 0048e573 f   hd.obj
 0001:0008d57e       __ehhandler$?RegisterSubkeys@CRegParser@ATL@@IAEJPA_WPAUHKEY__@@HH@Z 0048e57e f   hd.obj
 0001:0008d5b0       __unwindfunclet$?AddValue@CRegParser@ATL@@IAEJAAVCRegKey@2@PB_WPA_W@Z$4 0048e5b0 f   hd.obj
 0001:0008d5bb       __unwindfunclet$?AddValue@CRegParser@ATL@@IAEJAAVCRegKey@2@PB_WPA_W@Z$5 0048e5bb f   hd.obj
 0001:0008d5c6       __unwindfunclet$?AddValue@CRegParser@ATL@@IAEJAAVCRegKey@2@PB_WPA_W@Z$6 0048e5c6 f   hd.obj
 0001:0008d5d1       __ehhandler$?AddValue@CRegParser@ATL@@IAEJAAVCRegKey@2@PB_WPA_W@Z 0048e5d1 f   hd.obj
 0001:0008d600       __unwindfunclet$??0CRegObject@ATL@@QAE@XZ$0 0048e600 f   hd.obj
 0001:0008d60b       __ehhandler$??0CRegObject@ATL@@QAE@XZ 0048e60b f   hd.obj
 0001:0008d630       __unwindfunclet$?ResourceRegister@CRegObject@ATL@@QAGJPB_WI0@Z$0 0048e630 f   hd.obj
 0001:0008d638       __ehhandler$?ResourceRegister@CRegObject@ATL@@QAGJPB_WI0@Z 0048e638 f   hd.obj
 0001:0008d660       __unwindfunclet$?ResourceUnregister@CRegObject@ATL@@QAGJPB_WI0@Z$0 0048e660 f   hd.obj
 0001:0008d668       __ehhandler$?ResourceUnregister@CRegObject@ATL@@QAGJPB_WI0@Z 0048e668 f   hd.obj
 0001:0008d690       __unwindfunclet$?InternalSetAtIndex@?$CSimpleMap@PA_WPA_WVCExpansionVectorEqualHelper@ATL@@@ATL@@QAEXHABQA_W0@Z$0 0048e690 f   hd.obj
 0001:0008d6ac       __unwindfunclet$?InternalSetAtIndex@?$CSimpleMap@PA_WPA_WVCExpansionVectorEqualHelper@ATL@@@ATL@@QAEXHABQA_W0@Z$1 0048e6ac f   hd.obj
 0001:0008d6c9       __ehhandler$?InternalSetAtIndex@?$CSimpleMap@PA_WPA_WVCExpansionVectorEqualHelper@ATL@@@ATL@@QAEXHABQA_W0@Z 0048e6c9 f   hd.obj
 0001:0008d6f0       __ehhandler$?AddARFL@@YAHPAUsFileItem@@@Z 0048e6f0 f   hd2.obj
 0001:0008d710       __ehhandler$?IsInARFL@@YAHPAUsFileItem@@@Z 0048e710 f   hd2.obj
 0001:0008d730       __ehhandler$?DelItem@@YAHPAUsFileItem@@@Z 0048e730 f   hd2.obj
 0001:0008d750       __ehhandler$?HMF_Modify@@YAHPAUsHMF_Item@@G@Z 0048e750 f   hd2.obj
 0001:0008d770       __unwindfunclet$?BkWndHotkeyProc@@YGHPAUHWND__@@IIJ@Z$0 0048e770 f   hd2.obj
 0001:0008d77b       __unwindfunclet$?BkWndHotkeyProc@@YGHPAUHWND__@@IIJ@Z$1 0048e77b f   hd2.obj
 0001:0008d786       __unwindfunclet$?BkWndHotkeyProc@@YGHPAUHWND__@@IIJ@Z$3 0048e786 f   hd2.obj
 0001:0008d791       __unwindfunclet$?BkWndHotkeyProc@@YGHPAUHWND__@@IIJ@Z$4 0048e791 f   hd2.obj
 0001:0008d79c       __unwindfunclet$?BkWndHotkeyProc@@YGHPAUHWND__@@IIJ@Z$6 0048e79c f   hd2.obj
 0001:0008d7a7       __unwindfunclet$?BkWndHotkeyProc@@YGHPAUHWND__@@IIJ@Z$11 0048e7a7 f   hd2.obj
 0001:0008d7b2       __ehhandler$?BkWndHotkeyProc@@YGHPAUHWND__@@IIJ@Z 0048e7b2 f   hd2.obj
 0001:0008d7d0       __unwindfunclet$?UnRegisterHK@@YAHHPAUWndAndHandle@@@Z$0 0048e7d0 f   hd2.obj
 0001:0008d7d8       __unwindfunclet$?UnRegisterHK@@YAHHPAUWndAndHandle@@@Z$1 0048e7d8 f   hd2.obj
 0001:0008d7e3       __unwindfunclet$?UnRegisterHK@@YAHHPAUWndAndHandle@@@Z$3 0048e7e3 f   hd2.obj
 0001:0008d7ee       __unwindfunclet$?UnRegisterHK@@YAHHPAUWndAndHandle@@@Z$6 0048e7ee f   hd2.obj
 0001:0008d7f9       __unwindfunclet$?UnRegisterHK@@YAHHPAUWndAndHandle@@@Z$9 0048e7f9 f   hd2.obj
 0001:0008d804       __ehhandler$?UnRegisterHK@@YAHHPAUWndAndHandle@@@Z 0048e804 f   hd2.obj
 0001:0008d830       __unwindfunclet$?ChangeWindowIcon@@YAHHPA_W@Z$0 0048e830 f   hd2.obj
 0001:0008d838       __unwindfunclet$?ChangeWindowIcon@@YAHHPA_W@Z$1 0048e838 f   hd2.obj
 0001:0008d840       __unwindfunclet$?ChangeWindowIcon@@YAHHPA_W@Z$2 0048e840 f   hd2.obj
 0001:0008d84e       __unwindfunclet$?ChangeWindowIcon@@YAHHPA_W@Z$3 0048e84e f   hd2.obj
 0001:0008d859       __unwindfunclet$?ChangeWindowIcon@@YAHHPA_W@Z$5 0048e859 f   hd2.obj
 0001:0008d864       __unwindfunclet$?ChangeWindowIcon@@YAHHPA_W@Z$6 0048e864 f   hd2.obj
 0001:0008d86f       __unwindfunclet$?ChangeWindowIcon@@YAHHPA_W@Z$8 0048e86f f   hd2.obj
 0001:0008d87a       __unwindfunclet$?ChangeWindowIcon@@YAHHPA_W@Z$9 0048e87a f   hd2.obj
 0001:0008d885       __unwindfunclet$?ChangeWindowIcon@@YAHHPA_W@Z$11 0048e885 f   hd2.obj
 0001:0008d890       __ehhandler$?ChangeWindowIcon@@YAHHPA_W@Z 0048e890 f   hd2.obj
 0001:0008d8c0       __unwindfunclet$?ChangeWndTitle@@YAHHPA_W@Z$0 0048e8c0 f   hd2.obj
 0001:0008d8ce       __ehhandler$?ChangeWndTitle@@YAHHPA_W@Z 0048e8ce f   hd2.obj
 0001:0008d900       __unwindfunclet$?ChangeTitle@@YAHPA_WPAUsIconTitle@@@Z$0 0048e900 f   hd2.obj
 0001:0008d908       __unwindfunclet$?ChangeTitle@@YAHPA_WPAUsIconTitle@@@Z$1 0048e908 f   hd2.obj
 0001:0008d910       __unwindfunclet$?ChangeTitle@@YAHPA_WPAUsIconTitle@@@Z$2 0048e910 f   hd2.obj
 0001:0008d918       __unwindfunclet$?ChangeTitle@@YAHPA_WPAUsIconTitle@@@Z$3 0048e918 f   hd2.obj
 0001:0008d923       __unwindfunclet$?ChangeTitle@@YAHPA_WPAUsIconTitle@@@Z$5 0048e923 f   hd2.obj
 0001:0008d92e       __unwindfunclet$?ChangeTitle@@YAHPA_WPAUsIconTitle@@@Z$6 0048e92e f   hd2.obj
 0001:0008d939       __unwindfunclet$?ChangeTitle@@YAHPA_WPAUsIconTitle@@@Z$8 0048e939 f   hd2.obj
 0001:0008d944       __unwindfunclet$?ChangeTitle@@YAHPA_WPAUsIconTitle@@@Z$9 0048e944 f   hd2.obj
 0001:0008d94f       __unwindfunclet$?ChangeTitle@@YAHPA_WPAUsIconTitle@@@Z$10 0048e94f f   hd2.obj
 0001:0008d95a       __unwindfunclet$?ChangeTitle@@YAHPA_WPAUsIconTitle@@@Z$11 0048e95a f   hd2.obj
 0001:0008d965       __unwindfunclet$?ChangeTitle@@YAHPA_WPAUsIconTitle@@@Z$13 0048e965 f   hd2.obj
 0001:0008d970       __unwindfunclet$?ChangeTitle@@YAHPA_WPAUsIconTitle@@@Z$14 0048e970 f   hd2.obj
 0001:0008d97b       __unwindfunclet$?ChangeTitle@@YAHPA_WPAUsIconTitle@@@Z$15 0048e97b f   hd2.obj
 0001:0008d986       __unwindfunclet$?ChangeTitle@@YAHPA_WPAUsIconTitle@@@Z$16 0048e986 f   hd2.obj
 0001:0008d991       __ehhandler$?ChangeTitle@@YAHPA_WPAUsIconTitle@@@Z 0048e991 f   hd2.obj
 0001:0008d9b0       __unwindfunclet$?ChangeWndTitleProc@@YGHPAUHWND__@@IIJ@Z$0 0048e9b0 f   hd2.obj
 0001:0008d9b8       __unwindfunclet$?ChangeWndTitleProc@@YGHPAUHWND__@@IIJ@Z$1 0048e9b8 f   hd2.obj
 0001:0008d9c0       __unwindfunclet$?ChangeWndTitleProc@@YGHPAUHWND__@@IIJ@Z$2 0048e9c0 f   hd2.obj
 0001:0008d9c8       __unwindfunclet$?ChangeWndTitleProc@@YGHPAUHWND__@@IIJ@Z$3 0048e9c8 f   hd2.obj
 0001:0008d9d3       __unwindfunclet$?ChangeWndTitleProc@@YGHPAUHWND__@@IIJ@Z$5 0048e9d3 f   hd2.obj
 0001:0008d9de       __unwindfunclet$?ChangeWndTitleProc@@YGHPAUHWND__@@IIJ@Z$6 0048e9de f   hd2.obj
 0001:0008d9e9       __unwindfunclet$?ChangeWndTitleProc@@YGHPAUHWND__@@IIJ@Z$8 0048e9e9 f   hd2.obj
 0001:0008d9f4       __unwindfunclet$?ChangeWndTitleProc@@YGHPAUHWND__@@IIJ@Z$9 0048e9f4 f   hd2.obj
 0001:0008d9ff       __unwindfunclet$?ChangeWndTitleProc@@YGHPAUHWND__@@IIJ@Z$10 0048e9ff f   hd2.obj
 0001:0008da0a       __unwindfunclet$?ChangeWndTitleProc@@YGHPAUHWND__@@IIJ@Z$11 0048ea0a f   hd2.obj
 0001:0008da15       __unwindfunclet$?ChangeWndTitleProc@@YGHPAUHWND__@@IIJ@Z$13 0048ea15 f   hd2.obj
 0001:0008da20       __unwindfunclet$?ChangeWndTitleProc@@YGHPAUHWND__@@IIJ@Z$14 0048ea20 f   hd2.obj
 0001:0008da2b       __unwindfunclet$?ChangeWndTitleProc@@YGHPAUHWND__@@IIJ@Z$15 0048ea2b f   hd2.obj
 0001:0008da36       __unwindfunclet$?ChangeWndTitleProc@@YGHPAUHWND__@@IIJ@Z$16 0048ea36 f   hd2.obj
 0001:0008da41       __unwindfunclet$?ChangeWndTitleProc@@YGHPAUHWND__@@IIJ@Z$19 0048ea41 f   hd2.obj
 0001:0008da4c       __unwindfunclet$?ChangeWndTitleProc@@YGHPAUHWND__@@IIJ@Z$20 0048ea4c f   hd2.obj
 0001:0008da57       __unwindfunclet$?ChangeWndTitleProc@@YGHPAUHWND__@@IIJ@Z$21 0048ea57 f   hd2.obj
 0001:0008da62       __ehhandler$?ChangeWndTitleProc@@YGHPAUHWND__@@IIJ@Z 0048ea62 f   hd2.obj
 0001:0008da80       __unwindfunclet$?CheckTitleIconTimer@@YGXPAUHWND__@@IIK@Z$0 0048ea80 f   hd2.obj
 0001:0008da88       __unwindfunclet$?CheckTitleIconTimer@@YGXPAUHWND__@@IIK@Z$1 0048ea88 f   hd2.obj
 0001:0008da90       __unwindfunclet$?CheckTitleIconTimer@@YGXPAUHWND__@@IIK@Z$2 0048ea90 f   hd2.obj
 0001:0008da9b       __unwindfunclet$?CheckTitleIconTimer@@YGXPAUHWND__@@IIK@Z$4 0048ea9b f   hd2.obj
 0001:0008daa6       __unwindfunclet$?CheckTitleIconTimer@@YGXPAUHWND__@@IIK@Z$5 0048eaa6 f   hd2.obj
 0001:0008dab1       __unwindfunclet$?CheckTitleIconTimer@@YGXPAUHWND__@@IIK@Z$7 0048eab1 f   hd2.obj
 0001:0008dabc       __unwindfunclet$?CheckTitleIconTimer@@YGXPAUHWND__@@IIK@Z$8 0048eabc f   hd2.obj
 0001:0008dac4       __unwindfunclet$?CheckTitleIconTimer@@YGXPAUHWND__@@IIK@Z$9 0048eac4 f   hd2.obj
 0001:0008dacc       __unwindfunclet$?CheckTitleIconTimer@@YGXPAUHWND__@@IIK@Z$10 0048eacc f   hd2.obj
 0001:0008dad7       __unwindfunclet$?CheckTitleIconTimer@@YGXPAUHWND__@@IIK@Z$12 0048ead7 f   hd2.obj
 0001:0008dae2       __unwindfunclet$?CheckTitleIconTimer@@YGXPAUHWND__@@IIK@Z$13 0048eae2 f   hd2.obj
 0001:0008daed       __unwindfunclet$?CheckTitleIconTimer@@YGXPAUHWND__@@IIK@Z$15 0048eaed f   hd2.obj
 0001:0008daf8       __ehhandler$?CheckTitleIconTimer@@YGXPAUHWND__@@IIK@Z 0048eaf8 f   hd2.obj
 0001:0008db20       __unwindfunclet$?RestoreTitle@@YAHHH@Z$0 0048eb20 f   hd2.obj
 0001:0008db28       __unwindfunclet$?RestoreTitle@@YAHHH@Z$1 0048eb28 f   hd2.obj
 0001:0008db30       __unwindfunclet$?RestoreTitle@@YAHHH@Z$2 0048eb30 f   hd2.obj
 0001:0008db3b       __unwindfunclet$?RestoreTitle@@YAHHH@Z$3 0048eb3b f   hd2.obj
 0001:0008db46       __unwindfunclet$?RestoreTitle@@YAHHH@Z$4 0048eb46 f   hd2.obj
 0001:0008db51       __unwindfunclet$?RestoreTitle@@YAHHH@Z$5 0048eb51 f   hd2.obj
 0001:0008db5c       __unwindfunclet$?RestoreTitle@@YAHHH@Z$6 0048eb5c f   hd2.obj
 0001:0008db67       __unwindfunclet$?RestoreTitle@@YAHHH@Z$9 0048eb67 f   hd2.obj
 0001:0008db72       __unwindfunclet$?RestoreTitle@@YAHHH@Z$12 0048eb72 f   hd2.obj
 0001:0008db7d       __unwindfunclet$?RestoreTitle@@YAHHH@Z$13 0048eb7d f   hd2.obj
 0001:0008db88       __unwindfunclet$?RestoreTitle@@YAHHH@Z$14 0048eb88 f   hd2.obj
 0001:0008db93       __unwindfunclet$?RestoreTitle@@YAHHH@Z$17 0048eb93 f   hd2.obj
 0001:0008db9e       __ehhandler$?RestoreTitle@@YAHHH@Z 0048eb9e f   hd2.obj
 0001:0008dbd0       __unwindfunclet$?RestoreIcon@@YAHHKH@Z$0 0048ebd0 f   hd2.obj
 0001:0008dbdb       __unwindfunclet$?RestoreIcon@@YAHHKH@Z$1 0048ebdb f   hd2.obj
 0001:0008dbe6       __unwindfunclet$?RestoreIcon@@YAHHKH@Z$2 0048ebe6 f   hd2.obj
 0001:0008dbf1       __unwindfunclet$?RestoreIcon@@YAHHKH@Z$4 0048ebf1 f   hd2.obj
 0001:0008dbfc       __unwindfunclet$?RestoreIcon@@YAHHKH@Z$5 0048ebfc f   hd2.obj
 0001:0008dc07       __unwindfunclet$?RestoreIcon@@YAHHKH@Z$6 0048ec07 f   hd2.obj
 0001:0008dc12       __unwindfunclet$?RestoreIcon@@YAHHKH@Z$7 0048ec12 f   hd2.obj
 0001:0008dc1d       __unwindfunclet$?RestoreIcon@@YAHHKH@Z$10 0048ec1d f   hd2.obj
 0001:0008dc28       __unwindfunclet$?RestoreIcon@@YAHHKH@Z$13 0048ec28 f   hd2.obj
 0001:0008dc33       __unwindfunclet$?RestoreIcon@@YAHHKH@Z$14 0048ec33 f   hd2.obj
 0001:0008dc3e       __unwindfunclet$?RestoreIcon@@YAHHKH@Z$15 0048ec3e f   hd2.obj
 0001:0008dc49       __unwindfunclet$?RestoreIcon@@YAHHKH@Z$18 0048ec49 f   hd2.obj
 0001:0008dc54       __ehhandler$?RestoreIcon@@YAHHKH@Z 0048ec54 f   hd2.obj
 0001:0008dc80       __unwindfunclet$?Save2AutoHideList@@YAHH@Z$0 0048ec80 f   hd2.obj
 0001:0008dc8b       __ehhandler$?Save2AutoHideList@@YAHH@Z 0048ec8b f   hd2.obj
 0001:0008dcc0       __unwindfunclet$?ShowPropertyDialog@@YAHH@Z$0 0048ecc0 f   hd2.obj
 0001:0008dcce       __unwindfunclet$?ShowPropertyDialog@@YAHH@Z$1 0048ecce f   hd2.obj
 0001:0008dcd9       __unwindfunclet$?ShowPropertyDialog@@YAHH@Z$2 0048ecd9 f   hd2.obj
 0001:0008dce4       __unwindfunclet$?ShowPropertyDialog@@YAHH@Z$3 0048ece4 f   hd2.obj
 0001:0008dcef       __unwindfunclet$?ShowPropertyDialog@@YAHH@Z$4 0048ecef f   hd2.obj
 0001:0008dcfa       __unwindfunclet$?ShowPropertyDialog@@YAHH@Z$6 0048ecfa f   hd2.obj
 0001:0008dd05       __unwindfunclet$?ShowPropertyDialog@@YAHH@Z$7 0048ed05 f   hd2.obj
 0001:0008dd10       __unwindfunclet$?ShowPropertyDialog@@YAHH@Z$8 0048ed10 f   hd2.obj
 0001:0008dd1b       __unwindfunclet$?ShowPropertyDialog@@YAHH@Z$10 0048ed1b f   hd2.obj
 0001:0008dd26       __unwindfunclet$?ShowPropertyDialog@@YAHH@Z$11 0048ed26 f   hd2.obj
 0001:0008dd31       __unwindfunclet$?ShowPropertyDialog@@YAHH@Z$12 0048ed31 f   hd2.obj
 0001:0008dd3c       __unwindfunclet$?ShowPropertyDialog@@YAHH@Z$14 0048ed3c f   hd2.obj
 0001:0008dd47       __unwindfunclet$?ShowPropertyDialog@@YAHH@Z$15 0048ed47 f   hd2.obj
 0001:0008dd52       __unwindfunclet$?ShowPropertyDialog@@YAHH@Z$16 0048ed52 f   hd2.obj
 0001:0008dd5d       __unwindfunclet$?ShowPropertyDialog@@YAHH@Z$18 0048ed5d f   hd2.obj
 0001:0008dd68       __unwindfunclet$?ShowPropertyDialog@@YAHH@Z$19 0048ed68 f   hd2.obj
 0001:0008dd73       __unwindfunclet$?ShowPropertyDialog@@YAHH@Z$21 0048ed73 f   hd2.obj
 0001:0008dd7e       __unwindfunclet$?ShowPropertyDialog@@YAHH@Z$22 0048ed7e f   hd2.obj
 0001:0008dd89       __unwindfunclet$?ShowPropertyDialog@@YAHH@Z$23 0048ed89 f   hd2.obj
 0001:0008dd94       __unwindfunclet$?ShowPropertyDialog@@YAHH@Z$25 0048ed94 f   hd2.obj
 0001:0008dd9f       __unwindfunclet$?ShowPropertyDialog@@YAHH@Z$26 0048ed9f f   hd2.obj
 0001:0008ddaa       __unwindfunclet$?ShowPropertyDialog@@YAHH@Z$27 0048edaa f   hd2.obj
 0001:0008ddb5       __unwindfunclet$?ShowPropertyDialog@@YAHH@Z$29 0048edb5 f   hd2.obj
 0001:0008ddc0       __unwindfunclet$?ShowPropertyDialog@@YAHH@Z$30 0048edc0 f   hd2.obj
 0001:0008ddcb       __unwindfunclet$?ShowPropertyDialog@@YAHH@Z$31 0048edcb f   hd2.obj
 0001:0008ddd6       __unwindfunclet$?ShowPropertyDialog@@YAHH@Z$32 0048edd6 f   hd2.obj
 0001:0008dde1       __unwindfunclet$?ShowPropertyDialog@@YAHH@Z$33 0048ede1 f   hd2.obj
 0001:0008ddec       __unwindfunclet$?ShowPropertyDialog@@YAHH@Z$34 0048edec f   hd2.obj
 0001:0008ddf7       __ehhandler$?ShowPropertyDialog@@YAHH@Z 0048edf7 f   hd2.obj
 0001:0008de20       __unwindfunclet$?DelBKHotKeyNode@@YAHXZ$0 0048ee20 f   hd2.obj
 0001:0008de28       __unwindfunclet$?DelBKHotKeyNode@@YAHXZ$1 0048ee28 f   hd2.obj
 0001:0008de33       __unwindfunclet$?DelBKHotKeyNode@@YAHXZ$2 0048ee33 f   hd2.obj
 0001:0008de3e       __unwindfunclet$?DelBKHotKeyNode@@YAHXZ$3 0048ee3e f   hd2.obj
 0001:0008de49       __ehhandler$?DelBKHotKeyNode@@YAHXZ 0048ee49 f   hd2.obj
 0001:0008de80       __unwindfunclet$?IsInRegBKHK@@YAHPAUWndAndHandle@@@Z$0 0048ee80 f   hd2.obj
 0001:0008de88       __unwindfunclet$?IsInRegBKHK@@YAHPAUWndAndHandle@@@Z$1 0048ee88 f   hd2.obj
 0001:0008de93       __unwindfunclet$?IsInRegBKHK@@YAHPAUWndAndHandle@@@Z$3 0048ee93 f   hd2.obj
 0001:0008de9e       __ehhandler$?IsInRegBKHK@@YAHPAUWndAndHandle@@@Z 0048ee9e f   hd2.obj
 0001:0008ded0       __unwindfunclet$?DelTitleNode@@YAHXZ$0 0048eed0 f   hd2.obj
 0001:0008ded8       __unwindfunclet$?DelTitleNode@@YAHXZ$1 0048eed8 f   hd2.obj
 0001:0008dee0       __unwindfunclet$?DelTitleNode@@YAHXZ$2 0048eee0 f   hd2.obj
 0001:0008deeb       __unwindfunclet$?DelTitleNode@@YAHXZ$4 0048eeeb f   hd2.obj
 0001:0008def6       __unwindfunclet$?DelTitleNode@@YAHXZ$5 0048eef6 f   hd2.obj
 0001:0008df01       __unwindfunclet$?DelTitleNode@@YAHXZ$7 0048ef01 f   hd2.obj
 0001:0008df0c       __unwindfunclet$?DelTitleNode@@YAHXZ$8 0048ef0c f   hd2.obj
 0001:0008df17       __unwindfunclet$?DelTitleNode@@YAHXZ$9 0048ef17 f   hd2.obj
 0001:0008df22       __unwindfunclet$?DelTitleNode@@YAHXZ$10 0048ef22 f   hd2.obj
 0001:0008df2d       __unwindfunclet$?DelTitleNode@@YAHXZ$13 0048ef2d f   hd2.obj
 0001:0008df38       __ehhandler$?DelTitleNode@@YAHXZ 0048ef38 f   hd2.obj
 0001:0008df60       __unwindfunclet$?DelIconNode@@YAHXZ$0 0048ef60 f   hd2.obj
 0001:0008df68       __unwindfunclet$?DelIconNode@@YAHXZ$1 0048ef68 f   hd2.obj
 0001:0008df73       __unwindfunclet$?DelIconNode@@YAHXZ$2 0048ef73 f   hd2.obj
 0001:0008df7e       __unwindfunclet$?DelIconNode@@YAHXZ$4 0048ef7e f   hd2.obj
 0001:0008df89       __unwindfunclet$?DelIconNode@@YAHXZ$5 0048ef89 f   hd2.obj
 0001:0008df94       __unwindfunclet$?DelIconNode@@YAHXZ$7 0048ef94 f   hd2.obj
 0001:0008df9f       __unwindfunclet$?DelIconNode@@YAHXZ$8 0048ef9f f   hd2.obj
 0001:0008dfaa       __unwindfunclet$?DelIconNode@@YAHXZ$9 0048efaa f   hd2.obj
 0001:0008dfb5       __unwindfunclet$?DelIconNode@@YAHXZ$10 0048efb5 f   hd2.obj
 0001:0008dfc0       __unwindfunclet$?DelIconNode@@YAHXZ$13 0048efc0 f   hd2.obj
 0001:0008dfcb       __ehhandler$?DelIconNode@@YAHXZ 0048efcb f   hd2.obj
 0001:0008e000       __unwindfunclet$?IsInITList@@YAHPA_W@Z$0 0048f000 f   hd2.obj
 0001:0008e008       __unwindfunclet$?IsInITList@@YAHPA_W@Z$1 0048f008 f   hd2.obj
 0001:0008e010       __unwindfunclet$?IsInITList@@YAHPA_W@Z$2 0048f010 f   hd2.obj
 0001:0008e01b       __unwindfunclet$?IsInITList@@YAHPA_W@Z$4 0048f01b f   hd2.obj
 0001:0008e026       __unwindfunclet$?IsInITList@@YAHPA_W@Z$5 0048f026 f   hd2.obj
 0001:0008e031       __unwindfunclet$?IsInITList@@YAHPA_W@Z$7 0048f031 f   hd2.obj
 0001:0008e03c       __ehhandler$?IsInITList@@YAHPA_W@Z 0048f03c f   hd2.obj
 0001:0008e060       __unwindfunclet$?GeneralPageProc@@YGHPAUHWND__@@IIJ@Z$0 0048f060 f   hd2.obj
 0001:0008e06b       __unwindfunclet$?GeneralPageProc@@YGHPAUHWND__@@IIJ@Z$1 0048f06b f   hd2.obj
 0001:0008e076       __unwindfunclet$?GeneralPageProc@@YGHPAUHWND__@@IIJ@Z$3 0048f076 f   hd2.obj
 0001:0008e081       __ehhandler$?GeneralPageProc@@YGHPAUHWND__@@IIJ@Z 0048f081 f   hd2.obj
 0001:0008e0b0       __unwindfunclet$?AddtionalPageProc@@YGHPAUHWND__@@IIJ@Z$0 0048f0b0 f   hd2.obj
 0001:0008e0b8       __unwindfunclet$?AddtionalPageProc@@YGHPAUHWND__@@IIJ@Z$1 0048f0b8 f   hd2.obj
 0001:0008e0c3       __unwindfunclet$?AddtionalPageProc@@YGHPAUHWND__@@IIJ@Z$3 0048f0c3 f   hd2.obj
 0001:0008e0ce       __ehhandler$?AddtionalPageProc@@YGHPAUHWND__@@IIJ@Z 0048f0ce f   hd2.obj
 0001:0008e0f0       __unwindfunclet$?SetIPListColumn@@YAHPAUHWND__@@@Z$0 0048f0f0 f   hd2.obj
 0001:0008e0f8       __ehhandler$?SetIPListColumn@@YAHPAUHWND__@@@Z 0048f0f8 f   hd2.obj
 0001:0008e120       __unwindfunclet$?ResetPriTree@@YAHXZ$0 0048f120 f   hd2.obj
 0001:0008e128       __ehhandler$?ResetPriTree@@YAHXZ 0048f128 f   hd2.obj
 0001:0008e150       __unwindfunclet$?RegisterBKHotkey@@YAHPAUWndAndHandle@@@Z$0 0048f150 f   hd2.obj
 0001:0008e158       __ehhandler$?RegisterBKHotkey@@YAHPAUWndAndHandle@@@Z 0048f158 f   hd2.obj
 0001:0008e180       __unwindfunclet$?ShowCleanPage@@YAHXZ$0 0048f180 f   hd2.obj
 0001:0008e188       __ehhandler$?ShowCleanPage@@YAHXZ 0048f188 f   hd2.obj
 0001:0008e1b0       __unwindfunclet$?ShowHideIPPage@@YAHXZ$0 0048f1b0 f   hd2.obj
 0001:0008e1b8       __ehhandler$?ShowHideIPPage@@YAHXZ 0048f1b8 f   hd2.obj
 0001:0008e1e0       __unwindfunclet$?FillAutoHideList@@YAHXZ$0 0048f1e0 f   hd2.obj
 0001:0008e1e8       __ehhandler$?FillAutoHideList@@YAHXZ 0048f1e8 f   hd2.obj
 0001:0008e210       __unwindfunclet$?AddTrayAutoHide@@YAHXZ$0 0048f210 f   hd2.obj
 0001:0008e21b       __ehhandler$?AddTrayAutoHide@@YAHXZ 0048f21b f   hd2.obj
 0001:0008e250       __unwindfunclet$?OpenFileThreadProc@@YGIPAX@Z$0 0048f250 f   hd2.obj
 0001:0008e25b       __ehhandler$?OpenFileThreadProc@@YGIPAX@Z 0048f25b f   hd2.obj
 0001:0008e280       __unwindfunclet$?DelAutoHideItem@@YAHXZ$0 0048f280 f   hd2.obj
 0001:0008e28b       __ehhandler$?DelAutoHideItem@@YAHXZ 0048f28b f   hd2.obj
 0001:0008e2b0       __unwindfunclet$?SavePosSize@@YAHXZ$0 0048f2b0 f   hd2.obj
 0001:0008e2b8       __ehhandler$?SavePosSize@@YAHXZ 0048f2b8 f   hd2.obj
 0001:0008e2e0       __unwindfunclet$?SetWindowSizePos@@YAHXZ$0 0048f2e0 f   hd2.obj
 0001:0008e2e8       __ehhandler$?SetWindowSizePos@@YAHXZ 0048f2e8 f   hd2.obj
 0001:0008e310       __unwindfunclet$?ResetPorcessList@@YAHAAV?$list@PAUNewProcessInfo@@V?$allocator@PAUNewProcessInfo@@@std@@@std@@@Z$0 0048f310 f   hd2.obj
 0001:0008e318       __unwindfunclet$?ResetPorcessList@@YAHAAV?$list@PAUNewProcessInfo@@V?$allocator@PAUNewProcessInfo@@@std@@@std@@@Z$1 0048f318 f   hd2.obj
 0001:0008e323       __unwindfunclet$?ResetPorcessList@@YAHAAV?$list@PAUNewProcessInfo@@V?$allocator@PAUNewProcessInfo@@@std@@@std@@@Z$3 0048f323 f   hd2.obj
 0001:0008e32e       __ehhandler$?ResetPorcessList@@YAHAAV?$list@PAUNewProcessInfo@@V?$allocator@PAUNewProcessInfo@@@std@@@std@@@Z 0048f32e f   hd2.obj
 0001:0008e350       __unwindfunclet$?FreeProcessList@@YAHAAV?$list@PAUNewProcessInfo@@V?$allocator@PAUNewProcessInfo@@@std@@@std@@@Z$0 0048f350 f   hd2.obj
 0001:0008e358       __unwindfunclet$?FreeProcessList@@YAHAAV?$list@PAUNewProcessInfo@@V?$allocator@PAUNewProcessInfo@@@std@@@std@@@Z$1 0048f358 f   hd2.obj
 0001:0008e363       __unwindfunclet$?FreeProcessList@@YAHAAV?$list@PAUNewProcessInfo@@V?$allocator@PAUNewProcessInfo@@@std@@@std@@@Z$2 0048f363 f   hd2.obj
 0001:0008e36e       __unwindfunclet$?FreeProcessList@@YAHAAV?$list@PAUNewProcessInfo@@V?$allocator@PAUNewProcessInfo@@@std@@@std@@@Z$3 0048f36e f   hd2.obj
 0001:0008e379       __ehhandler$?FreeProcessList@@YAHAAV?$list@PAUNewProcessInfo@@V?$allocator@PAUNewProcessInfo@@@std@@@std@@@Z 0048f379 f   hd2.obj
 0001:0008e3a0       __unwindfunclet$?GetNewProcessName@@YAHAAV?$list@PAUNewProcessInfo@@V?$allocator@PAUNewProcessInfo@@@std@@@std@@@Z$0 0048f3a0 f   hd2.obj
 0001:0008e3a8       __unwindfunclet$?GetNewProcessName@@YAHAAV?$list@PAUNewProcessInfo@@V?$allocator@PAUNewProcessInfo@@@std@@@std@@@Z$1 0048f3a8 f   hd2.obj
 0001:0008e3b3       __unwindfunclet$?GetNewProcessName@@YAHAAV?$list@PAUNewProcessInfo@@V?$allocator@PAUNewProcessInfo@@@std@@@std@@@Z$3 0048f3b3 f   hd2.obj
 0001:0008e3be       __unwindfunclet$?GetNewProcessName@@YAHAAV?$list@PAUNewProcessInfo@@V?$allocator@PAUNewProcessInfo@@@std@@@std@@@Z$4 0048f3be f   hd2.obj
 0001:0008e3c6       __unwindfunclet$?GetNewProcessName@@YAHAAV?$list@PAUNewProcessInfo@@V?$allocator@PAUNewProcessInfo@@@std@@@std@@@Z$5 0048f3c6 f   hd2.obj
 0001:0008e3d1       __unwindfunclet$?GetNewProcessName@@YAHAAV?$list@PAUNewProcessInfo@@V?$allocator@PAUNewProcessInfo@@@std@@@std@@@Z$7 0048f3d1 f   hd2.obj
 0001:0008e3dc       __ehhandler$?GetNewProcessName@@YAHAAV?$list@PAUNewProcessInfo@@V?$allocator@PAUNewProcessInfo@@@std@@@std@@@Z 0048f3dc f   hd2.obj
 0001:0008e400       __unwindfunclet$?Add2NewProcessList@@YAHPAUNewProcessInfo@@@Z$0 0048f400 f   hd2.obj
 0001:0008e408       __unwindfunclet$?Add2NewProcessList@@YAHPAUNewProcessInfo@@@Z$1 0048f408 f   hd2.obj
 0001:0008e413       __unwindfunclet$?Add2NewProcessList@@YAHPAUNewProcessInfo@@@Z$3 0048f413 f   hd2.obj
 0001:0008e41e       __ehhandler$?Add2NewProcessList@@YAHPAUNewProcessInfo@@@Z 0048f41e f   hd2.obj
 0001:0008e440       __unwindfunclet$?GetProcessList@@YAHAAV?$list@PAUNewProcessInfo@@V?$allocator@PAUNewProcessInfo@@@std@@@std@@@Z$0 0048f440 f   hd2.obj
 0001:0008e44b       __unwindfunclet$?GetProcessList@@YAHAAV?$list@PAUNewProcessInfo@@V?$allocator@PAUNewProcessInfo@@@std@@@std@@@Z$1 0048f44b f   hd2.obj
 0001:0008e456       __unwindfunclet$?GetProcessList@@YAHAAV?$list@PAUNewProcessInfo@@V?$allocator@PAUNewProcessInfo@@@std@@@std@@@Z$2 0048f456 f   hd2.obj
 0001:0008e478       __ehhandler$?GetProcessList@@YAHAAV?$list@PAUNewProcessInfo@@V?$allocator@PAUNewProcessInfo@@@std@@@std@@@Z 0048f478 f   hd2.obj
 0001:0008e4a0       __unwindfunclet$?ReadDBProcessList@@YAHXZ$0 0048f4a0 f   hd2.obj
 0001:0008e4a8       __ehhandler$?ReadDBProcessList@@YAHXZ 0048f4a8 f   hd2.obj
 0001:0008e4d0       __unwindfunclet$?DelDBProcessList@@YAHPAUAutoHideItem@@@Z$0 0048f4d0 f   hd2.obj
 0001:0008e4d8       __unwindfunclet$?DelDBProcessList@@YAHPAUAutoHideItem@@@Z$1 0048f4d8 f   hd2.obj
 0001:0008e4e3       __unwindfunclet$?DelDBProcessList@@YAHPAUAutoHideItem@@@Z$2 0048f4e3 f   hd2.obj
 0001:0008e4ee       __unwindfunclet$?DelDBProcessList@@YAHPAUAutoHideItem@@@Z$3 0048f4ee f   hd2.obj
 0001:0008e4f9       __ehhandler$?DelDBProcessList@@YAHPAUAutoHideItem@@@Z 0048f4f9 f   hd2.obj
 0001:0008e520       __unwindfunclet$?ReleaseDBProcessList@@YAHXZ$0 0048f520 f   hd2.obj
 0001:0008e528       __unwindfunclet$?ReleaseDBProcessList@@YAHXZ$1 0048f528 f   hd2.obj
 0001:0008e533       __unwindfunclet$?ReleaseDBProcessList@@YAHXZ$2 0048f533 f   hd2.obj
 0001:0008e53e       __unwindfunclet$?ReleaseDBProcessList@@YAHXZ$3 0048f53e f   hd2.obj
 0001:0008e549       __ehhandler$?ReleaseDBProcessList@@YAHXZ 0048f549 f   hd2.obj
 0001:0008e570       __unwindfunclet$?HideAutoHideItem@@YAHPAUAutoHideItem@@@Z$0 0048f570 f   hd2.obj
 0001:0008e578       __unwindfunclet$?HideAutoHideItem@@YAHPAUAutoHideItem@@@Z$1 0048f578 f   hd2.obj
 0001:0008e583       __unwindfunclet$?HideAutoHideItem@@YAHPAUAutoHideItem@@@Z$3 0048f583 f   hd2.obj
 0001:0008e58e       __ehhandler$?HideAutoHideItem@@YAHPAUAutoHideItem@@@Z 0048f58e f   hd2.obj
 0001:0008e5c0       __unwindfunclet$?SaveChangedIconInfo@@YAHPAUIconTitleItem@@@Z$0 0048f5c0 f   hd2.obj
 0001:0008e5c8       __ehhandler$?SaveChangedIconInfo@@YAHPAUIconTitleItem@@@Z 0048f5c8 f   hd2.obj
 0001:0008e5f0       __unwindfunclet$?SaveChangedTitleInfo@@YAHPAUIconTitleItem@@@Z$0 0048f5f0 f   hd2.obj
 0001:0008e5f8       __ehhandler$?SaveChangedTitleInfo@@YAHPAUIconTitleItem@@@Z 0048f5f8 f   hd2.obj
 0001:0008e620       __unwindfunclet$?IsInIconTitleDB@@YAHPAUIconTitleItem@@@Z$0 0048f620 f   hd2.obj
 0001:0008e628       __ehhandler$?IsInIconTitleDB@@YAHPAUIconTitleItem@@@Z 0048f628 f   hd2.obj
 0001:0008e650       __unwindfunclet$?IsInIconList@@YAHPAUIconTitleItem@@PA_W@Z$0 0048f650 f   hd2.obj
 0001:0008e658       __unwindfunclet$?IsInIconList@@YAHPAUIconTitleItem@@PA_W@Z$1 0048f658 f   hd2.obj
 0001:0008e660       __unwindfunclet$?IsInIconList@@YAHPAUIconTitleItem@@PA_W@Z$2 0048f660 f   hd2.obj
 0001:0008e66b       __unwindfunclet$?IsInIconList@@YAHPAUIconTitleItem@@PA_W@Z$4 0048f66b f   hd2.obj
 0001:0008e676       __unwindfunclet$?IsInIconList@@YAHPAUIconTitleItem@@PA_W@Z$5 0048f676 f   hd2.obj
 0001:0008e681       __unwindfunclet$?IsInIconList@@YAHPAUIconTitleItem@@PA_W@Z$7 0048f681 f   hd2.obj
 0001:0008e68c       __ehhandler$?IsInIconList@@YAHPAUIconTitleItem@@PA_W@Z 0048f68c f   hd2.obj
 0001:0008e6b0       __unwindfunclet$?IsInTitleList@@YAHPAUIconTitleItem@@PA_W@Z$0 0048f6b0 f   hd2.obj
 0001:0008e6b8       __unwindfunclet$?IsInTitleList@@YAHPAUIconTitleItem@@PA_W@Z$1 0048f6b8 f   hd2.obj
 0001:0008e6c0       __unwindfunclet$?IsInTitleList@@YAHPAUIconTitleItem@@PA_W@Z$2 0048f6c0 f   hd2.obj
 0001:0008e6cb       __unwindfunclet$?IsInTitleList@@YAHPAUIconTitleItem@@PA_W@Z$4 0048f6cb f   hd2.obj
 0001:0008e6d6       __unwindfunclet$?IsInTitleList@@YAHPAUIconTitleItem@@PA_W@Z$5 0048f6d6 f   hd2.obj
 0001:0008e6e1       __unwindfunclet$?IsInTitleList@@YAHPAUIconTitleItem@@PA_W@Z$7 0048f6e1 f   hd2.obj
 0001:0008e6ec       __ehhandler$?IsInTitleList@@YAHPAUIconTitleItem@@PA_W@Z 0048f6ec f   hd2.obj
 0001:0008e710       __unwindfunclet$?DeleteIconTitleFromDB@@YAHPA_WH@Z$0 0048f710 f   hd2.obj
 0001:0008e718       __ehhandler$?DeleteIconTitleFromDB@@YAHPA_WH@Z 0048f718 f   hd2.obj
 0001:0008e740       __unwindfunclet$?SetStatusTextLink@@YGXPAUHWND__@@IIK@Z$0 0048f740 f   hd2.obj
 0001:0008e74b       __ehhandler$?SetStatusTextLink@@YGXPAUHWND__@@IIK@Z 0048f74b f   hd2.obj
 0001:0008e780       __unwindfunclet$?SetWndTextLink@@YGXPAUHWND__@@IIK@Z$0 0048f780 f   hd2.obj
 0001:0008e78b       __ehhandler$?SetWndTextLink@@YGXPAUHWND__@@IIK@Z 0048f78b f   hd2.obj
 0001:0008e7c0       __unwindfunclet$?RestoreIP@@YAHXZ$0 0048f7c0 f   hd2.obj
 0001:0008e7c8       __ehhandler$?RestoreIP@@YAHXZ 0048f7c8 f   hd2.obj
 0001:0008e7f0       __unwindfunclet$??0?$list@PAUsTitleWnd@@V?$allocator@PAUsTitleWnd@@@std@@@std@@QAE@XZ$0 0048f7f0 f   hd2.obj
 0001:0008e7f8       __ehhandler$??0?$list@PAUsTitleWnd@@V?$allocator@PAUsTitleWnd@@@std@@@std@@QAE@XZ 0048f7f8 f   hd2.obj
 0001:0008e820       __unwindfunclet$??1?$list@PAUsTitleWnd@@V?$allocator@PAUsTitleWnd@@@std@@@std@@QAE@XZ$0 0048f820 f   hd2.obj
 0001:0008e828       __ehhandler$??1?$list@PAUsTitleWnd@@V?$allocator@PAUsTitleWnd@@@std@@@std@@QAE@XZ 0048f828 f   hd2.obj
 0001:0008e850       __unwindfunclet$?push_back@?$list@PAUsTitleWnd@@V?$allocator@PAUsTitleWnd@@@std@@@std@@QAEXABQAUsTitleWnd@@@Z$0 0048f850 f   hd2.obj
 0001:0008e85b       __ehhandler$?push_back@?$list@PAUsTitleWnd@@V?$allocator@PAUsTitleWnd@@@std@@@std@@QAEXABQAUsTitleWnd@@@Z 0048f85b f   hd2.obj
 0001:0008e880       __unwindfunclet$?erase@?$list@PAUsTitleWnd@@V?$allocator@PAUsTitleWnd@@@std@@@std@@QAE?AV?$_Iterator@$00@12@V?$_Const_iterator@$00@12@@Z$0 0048f880 f   hd2.obj
 0001:0008e888       __unwindfunclet$?erase@?$list@PAUsTitleWnd@@V?$allocator@PAUsTitleWnd@@@std@@@std@@QAE?AV?$_Iterator@$00@12@V?$_Const_iterator@$00@12@@Z$1 0048f888 f   hd2.obj
 0001:0008e893       __unwindfunclet$?erase@?$list@PAUsTitleWnd@@V?$allocator@PAUsTitleWnd@@@std@@@std@@QAE?AV?$_Iterator@$00@12@V?$_Const_iterator@$00@12@@Z$3 0048f893 f   hd2.obj
 0001:0008e8b2       __ehhandler$?erase@?$list@PAUsTitleWnd@@V?$allocator@PAUsTitleWnd@@@std@@@std@@QAE?AV?$_Iterator@$00@12@V?$_Const_iterator@$00@12@@Z 0048f8b2 f   hd2.obj
 0001:0008e8d0       __unwindfunclet$?push_back@?$list@PAUsBKWHotkey@@V?$allocator@PAUsBKWHotkey@@@std@@@std@@QAEXABQAUsBKWHotkey@@@Z$0 0048f8d0 f   hd2.obj
 0001:0008e8db       __ehhandler$?push_back@?$list@PAUsBKWHotkey@@V?$allocator@PAUsBKWHotkey@@@std@@@std@@QAEXABQAUsBKWHotkey@@@Z 0048f8db f   hd2.obj
 0001:0008e900       __unwindfunclet$?erase@?$list@PAUsBKWHotkey@@V?$allocator@PAUsBKWHotkey@@@std@@@std@@QAE?AV?$_Iterator@$00@12@V?$_Const_iterator@$00@12@@Z$0 0048f900 f   hd2.obj
 0001:0008e908       __unwindfunclet$?erase@?$list@PAUsBKWHotkey@@V?$allocator@PAUsBKWHotkey@@@std@@@std@@QAE?AV?$_Iterator@$00@12@V?$_Const_iterator@$00@12@@Z$1 0048f908 f   hd2.obj
 0001:0008e913       __unwindfunclet$?erase@?$list@PAUsBKWHotkey@@V?$allocator@PAUsBKWHotkey@@@std@@@std@@QAE?AV?$_Iterator@$00@12@V?$_Const_iterator@$00@12@@Z$3 0048f913 f   hd2.obj
 0001:0008e932       __ehhandler$?erase@?$list@PAUsBKWHotkey@@V?$allocator@PAUsBKWHotkey@@@std@@@std@@QAE?AV?$_Iterator@$00@12@V?$_Const_iterator@$00@12@@Z 0048f932 f   hd2.obj
 0001:0008e950       __unwindfunclet$?push_back@?$list@PAUsIconTitle@@V?$allocator@PAUsIconTitle@@@std@@@std@@QAEXABQAUsIconTitle@@@Z$0 0048f950 f   hd2.obj
 0001:0008e95b       __ehhandler$?push_back@?$list@PAUsIconTitle@@V?$allocator@PAUsIconTitle@@@std@@@std@@QAEXABQAUsIconTitle@@@Z 0048f95b f   hd2.obj
 0001:0008e980       __unwindfunclet$?erase@?$list@PAUsIconTitle@@V?$allocator@PAUsIconTitle@@@std@@@std@@QAE?AV?$_Iterator@$00@12@V?$_Const_iterator@$00@12@@Z$0 0048f980 f   hd2.obj
 0001:0008e988       __unwindfunclet$?erase@?$list@PAUsIconTitle@@V?$allocator@PAUsIconTitle@@@std@@@std@@QAE?AV?$_Iterator@$00@12@V?$_Const_iterator@$00@12@@Z$1 0048f988 f   hd2.obj
 0001:0008e993       __unwindfunclet$?erase@?$list@PAUsIconTitle@@V?$allocator@PAUsIconTitle@@@std@@@std@@QAE?AV?$_Iterator@$00@12@V?$_Const_iterator@$00@12@@Z$3 0048f993 f   hd2.obj
 0001:0008e9b2       __ehhandler$?erase@?$list@PAUsIconTitle@@V?$allocator@PAUsIconTitle@@@std@@@std@@QAE?AV?$_Iterator@$00@12@V?$_Const_iterator@$00@12@@Z 0048f9b2 f   hd2.obj
 0001:0008e9d0       __unwindfunclet$??E?$_Iterator@$00@?$list@PAUsIconTitle@@V?$allocator@PAUsIconTitle@@@std@@@std@@QAE?AV012@H@Z$0 0048f9d0 f   hd2.obj
 0001:0008e9d8       __unwindfunclet$??E?$_Iterator@$00@?$list@PAUsIconTitle@@V?$allocator@PAUsIconTitle@@@std@@@std@@QAE?AV012@H@Z$1 0048f9d8 f   hd2.obj
 0001:0008e9f7       __ehhandler$??E?$_Iterator@$00@?$list@PAUsIconTitle@@V?$allocator@PAUsIconTitle@@@std@@@std@@QAE?AV012@H@Z 0048f9f7 f   hd2.obj
 0001:0008ea20       __unwindfunclet$??E?$_Iterator@$00@?$list@PAUsTitleWnd@@V?$allocator@PAUsTitleWnd@@@std@@@std@@QAE?AV012@H@Z$0 0048fa20 f   hd2.obj
 0001:0008ea28       __unwindfunclet$??E?$_Iterator@$00@?$list@PAUsTitleWnd@@V?$allocator@PAUsTitleWnd@@@std@@@std@@QAE?AV012@H@Z$1 0048fa28 f   hd2.obj
 0001:0008ea47       __ehhandler$??E?$_Iterator@$00@?$list@PAUsTitleWnd@@V?$allocator@PAUsTitleWnd@@@std@@@std@@QAE?AV012@H@Z 0048fa47 f   hd2.obj
 0001:0008ea70       __unwindfunclet$?push_back@?$list@PAUNewProcessInfo@@V?$allocator@PAUNewProcessInfo@@@std@@@std@@QAEXABQAUNewProcessInfo@@@Z$0 0048fa70 f   hd2.obj
 0001:0008ea7b       __ehhandler$?push_back@?$list@PAUNewProcessInfo@@V?$allocator@PAUNewProcessInfo@@@std@@@std@@QAEXABQAUNewProcessInfo@@@Z 0048fa7b f   hd2.obj
 0001:0008eaa0       __unwindfunclet$?erase@?$list@PAUNewProcessInfo@@V?$allocator@PAUNewProcessInfo@@@std@@@std@@QAE?AV?$_Iterator@$00@12@V?$_Const_iterator@$00@12@@Z$0 0048faa0 f   hd2.obj
 0001:0008eaa8       __unwindfunclet$?erase@?$list@PAUNewProcessInfo@@V?$allocator@PAUNewProcessInfo@@@std@@@std@@QAE?AV?$_Iterator@$00@12@V?$_Const_iterator@$00@12@@Z$1 0048faa8 f   hd2.obj
 0001:0008eab3       __unwindfunclet$?erase@?$list@PAUNewProcessInfo@@V?$allocator@PAUNewProcessInfo@@@std@@@std@@QAE?AV?$_Iterator@$00@12@V?$_Const_iterator@$00@12@@Z$3 0048fab3 f   hd2.obj
 0001:0008ead2       __ehhandler$?erase@?$list@PAUNewProcessInfo@@V?$allocator@PAUNewProcessInfo@@@std@@@std@@QAE?AV?$_Iterator@$00@12@V?$_Const_iterator@$00@12@@Z 0048fad2 f   hd2.obj
 0001:0008eaf0       __unwindfunclet$?push_back@?$list@PAUAutoHideItem@@V?$allocator@PAUAutoHideItem@@@std@@@std@@QAEXABQAUAutoHideItem@@@Z$0 0048faf0 f   hd2.obj
 0001:0008eafb       __ehhandler$?push_back@?$list@PAUAutoHideItem@@V?$allocator@PAUAutoHideItem@@@std@@@std@@QAEXABQAUAutoHideItem@@@Z 0048fafb f   hd2.obj
 0001:0008eb20       __unwindfunclet$?erase@?$list@PAUAutoHideItem@@V?$allocator@PAUAutoHideItem@@@std@@@std@@QAE?AV?$_Iterator@$00@12@V?$_Const_iterator@$00@12@@Z$0 0048fb20 f   hd2.obj
 0001:0008eb28       __unwindfunclet$?erase@?$list@PAUAutoHideItem@@V?$allocator@PAUAutoHideItem@@@std@@@std@@QAE?AV?$_Iterator@$00@12@V?$_Const_iterator@$00@12@@Z$1 0048fb28 f   hd2.obj
 0001:0008eb33       __unwindfunclet$?erase@?$list@PAUAutoHideItem@@V?$allocator@PAUAutoHideItem@@@std@@@std@@QAE?AV?$_Iterator@$00@12@V?$_Const_iterator@$00@12@@Z$3 0048fb33 f   hd2.obj
 0001:0008eb52       __ehhandler$?erase@?$list@PAUAutoHideItem@@V?$allocator@PAUAutoHideItem@@@std@@@std@@QAE?AV?$_Iterator@$00@12@V?$_Const_iterator@$00@12@@Z 0048fb52 f   hd2.obj
 0001:0008eb70       __unwindfunclet$??E?$_Iterator@$00@?$list@PAUNewProcessInfo@@V?$allocator@PAUNewProcessInfo@@@std@@@std@@QAE?AV012@H@Z$0 0048fb70 f   hd2.obj
 0001:0008eb78       __unwindfunclet$??E?$_Iterator@$00@?$list@PAUNewProcessInfo@@V?$allocator@PAUNewProcessInfo@@@std@@@std@@QAE?AV012@H@Z$1 0048fb78 f   hd2.obj
 0001:0008eb97       __ehhandler$??E?$_Iterator@$00@?$list@PAUNewProcessInfo@@V?$allocator@PAUNewProcessInfo@@@std@@@std@@QAE?AV012@H@Z 0048fb97 f   hd2.obj
 0001:0008ebc0       __unwindfunclet$??E?$_Iterator@$00@?$list@PAUAutoHideItem@@V?$allocator@PAUAutoHideItem@@@std@@@std@@QAE?AV012@H@Z$0 0048fbc0 f   hd2.obj
 0001:0008ebc8       __unwindfunclet$??E?$_Iterator@$00@?$list@PAUAutoHideItem@@V?$allocator@PAUAutoHideItem@@@std@@@std@@QAE?AV012@H@Z$1 0048fbc8 f   hd2.obj
 0001:0008ebe7       __ehhandler$??E?$_Iterator@$00@?$list@PAUAutoHideItem@@V?$allocator@PAUAutoHideItem@@@std@@@std@@QAE?AV012@H@Z 0048fbe7 f   hd2.obj
 0001:0008ec10       __unwindfunclet$?_Make_iter@?$list@PAUsTitleWnd@@V?$allocator@PAUsTitleWnd@@@std@@@std@@QBE?AV?$_Iterator@$00@12@V?$_Const_iterator@$00@12@@Z$0 0048fc10 f   hd2.obj
 0001:0008ec18       __unwindfunclet$?_Make_iter@?$list@PAUsTitleWnd@@V?$allocator@PAUsTitleWnd@@@std@@@std@@QBE?AV?$_Iterator@$00@12@V?$_Const_iterator@$00@12@@Z$1 0048fc18 f   hd2.obj
 0001:0008ec37       __ehhandler$?_Make_iter@?$list@PAUsTitleWnd@@V?$allocator@PAUsTitleWnd@@@std@@@std@@QBE?AV?$_Iterator@$00@12@V?$_Const_iterator@$00@12@@Z 0048fc37 f   hd2.obj
 0001:0008ec60       __unwindfunclet$?_Insert@?$list@PAUsTitleWnd@@V?$allocator@PAUsTitleWnd@@@std@@@std@@QAEXV?$_Const_iterator@$00@12@ABQAUsTitleWnd@@@Z$0 0048fc60 f   hd2.obj
 0001:0008ec68       __ehhandler$?_Insert@?$list@PAUsTitleWnd@@V?$allocator@PAUsTitleWnd@@@std@@@std@@QAEXV?$_Const_iterator@$00@12@ABQAUsTitleWnd@@@Z 0048fc68 f   hd2.obj
 0001:0008ec90       __ehhandler$?_Buynode@?$list@PAUsTitleWnd@@V?$allocator@PAUsTitleWnd@@@std@@@std@@IAEPAU_Node@?$_List_nod@PAUsTitleWnd@@V?$allocator@PAUsTitleWnd@@@std@@@2@XZ 0048fc90 f   hd2.obj
 0001:0008ecb0       __unwindfunclet$?_Make_iter@?$list@PAUsBKWHotkey@@V?$allocator@PAUsBKWHotkey@@@std@@@std@@QBE?AV?$_Iterator@$00@12@V?$_Const_iterator@$00@12@@Z$0 0048fcb0 f   hd2.obj
 0001:0008ecb8       __unwindfunclet$?_Make_iter@?$list@PAUsBKWHotkey@@V?$allocator@PAUsBKWHotkey@@@std@@@std@@QBE?AV?$_Iterator@$00@12@V?$_Const_iterator@$00@12@@Z$1 0048fcb8 f   hd2.obj
 0001:0008ecd7       __ehhandler$?_Make_iter@?$list@PAUsBKWHotkey@@V?$allocator@PAUsBKWHotkey@@@std@@@std@@QBE?AV?$_Iterator@$00@12@V?$_Const_iterator@$00@12@@Z 0048fcd7 f   hd2.obj
 0001:0008ed00       __unwindfunclet$?_Insert@?$list@PAUsBKWHotkey@@V?$allocator@PAUsBKWHotkey@@@std@@@std@@QAEXV?$_Const_iterator@$00@12@ABQAUsBKWHotkey@@@Z$0 0048fd00 f   hd2.obj
 0001:0008ed08       __ehhandler$?_Insert@?$list@PAUsBKWHotkey@@V?$allocator@PAUsBKWHotkey@@@std@@@std@@QAEXV?$_Const_iterator@$00@12@ABQAUsBKWHotkey@@@Z 0048fd08 f   hd2.obj
 0001:0008ed30       __unwindfunclet$?_Make_iter@?$list@PAUsIconTitle@@V?$allocator@PAUsIconTitle@@@std@@@std@@QBE?AV?$_Iterator@$00@12@V?$_Const_iterator@$00@12@@Z$0 0048fd30 f   hd2.obj
 0001:0008ed38       __unwindfunclet$?_Make_iter@?$list@PAUsIconTitle@@V?$allocator@PAUsIconTitle@@@std@@@std@@QBE?AV?$_Iterator@$00@12@V?$_Const_iterator@$00@12@@Z$1 0048fd38 f   hd2.obj
 0001:0008ed57       __ehhandler$?_Make_iter@?$list@PAUsIconTitle@@V?$allocator@PAUsIconTitle@@@std@@@std@@QBE?AV?$_Iterator@$00@12@V?$_Const_iterator@$00@12@@Z 0048fd57 f   hd2.obj
 0001:0008ed80       __unwindfunclet$?_Insert@?$list@PAUsIconTitle@@V?$allocator@PAUsIconTitle@@@std@@@std@@QAEXV?$_Const_iterator@$00@12@ABQAUsIconTitle@@@Z$0 0048fd80 f   hd2.obj
 0001:0008ed88       __ehhandler$?_Insert@?$list@PAUsIconTitle@@V?$allocator@PAUsIconTitle@@@std@@@std@@QAEXV?$_Const_iterator@$00@12@ABQAUsIconTitle@@@Z 0048fd88 f   hd2.obj
 0001:0008edb0       __unwindfunclet$??E?$_Const_iterator@$00@?$list@PAUsBKWHotkey@@V?$allocator@PAUsBKWHotkey@@@std@@@std@@QAE?AV012@H@Z$0 0048fdb0 f   hd2.obj
 0001:0008edb8       __unwindfunclet$??E?$_Const_iterator@$00@?$list@PAUsBKWHotkey@@V?$allocator@PAUsBKWHotkey@@@std@@@std@@QAE?AV012@H@Z$1 0048fdb8 f   hd2.obj
 0001:0008edd7       __ehhandler$??E?$_Const_iterator@$00@?$list@PAUsBKWHotkey@@V?$allocator@PAUsBKWHotkey@@@std@@@std@@QAE?AV012@H@Z 0048fdd7 f   hd2.obj
 0001:0008ee00       __unwindfunclet$??E?$_Const_iterator@$00@?$list@PAUsIconTitle@@V?$allocator@PAUsIconTitle@@@std@@@std@@QAE?AV012@H@Z$0 0048fe00 f   hd2.obj
 0001:0008ee08       __unwindfunclet$??E?$_Const_iterator@$00@?$list@PAUsIconTitle@@V?$allocator@PAUsIconTitle@@@std@@@std@@QAE?AV012@H@Z$1 0048fe08 f   hd2.obj
 0001:0008ee27       __ehhandler$??E?$_Const_iterator@$00@?$list@PAUsIconTitle@@V?$allocator@PAUsIconTitle@@@std@@@std@@QAE?AV012@H@Z 0048fe27 f   hd2.obj
 0001:0008ee50       __unwindfunclet$??E?$_Const_iterator@$00@?$list@PAUsTitleWnd@@V?$allocator@PAUsTitleWnd@@@std@@@std@@QAE?AV012@H@Z$0 0048fe50 f   hd2.obj
 0001:0008ee58       __unwindfunclet$??E?$_Const_iterator@$00@?$list@PAUsTitleWnd@@V?$allocator@PAUsTitleWnd@@@std@@@std@@QAE?AV012@H@Z$1 0048fe58 f   hd2.obj
 0001:0008ee77       __ehhandler$??E?$_Const_iterator@$00@?$list@PAUsTitleWnd@@V?$allocator@PAUsTitleWnd@@@std@@@std@@QAE?AV012@H@Z 0048fe77 f   hd2.obj
 0001:0008eea0       __unwindfunclet$?_Make_iter@?$list@PAUNewProcessInfo@@V?$allocator@PAUNewProcessInfo@@@std@@@std@@QBE?AV?$_Iterator@$00@12@V?$_Const_iterator@$00@12@@Z$0 0048fea0 f   hd2.obj
 0001:0008eea8       __unwindfunclet$?_Make_iter@?$list@PAUNewProcessInfo@@V?$allocator@PAUNewProcessInfo@@@std@@@std@@QBE?AV?$_Iterator@$00@12@V?$_Const_iterator@$00@12@@Z$1 0048fea8 f   hd2.obj
 0001:0008eec7       __ehhandler$?_Make_iter@?$list@PAUNewProcessInfo@@V?$allocator@PAUNewProcessInfo@@@std@@@std@@QBE?AV?$_Iterator@$00@12@V?$_Const_iterator@$00@12@@Z 0048fec7 f   hd2.obj
 0001:0008eef0       __unwindfunclet$?_Insert@?$list@PAUNewProcessInfo@@V?$allocator@PAUNewProcessInfo@@@std@@@std@@QAEXV?$_Const_iterator@$00@12@ABQAUNewProcessInfo@@@Z$0 0048fef0 f   hd2.obj
 0001:0008eef8       __ehhandler$?_Insert@?$list@PAUNewProcessInfo@@V?$allocator@PAUNewProcessInfo@@@std@@@std@@QAEXV?$_Const_iterator@$00@12@ABQAUNewProcessInfo@@@Z 0048fef8 f   hd2.obj
 0001:0008ef20       __unwindfunclet$?_Make_iter@?$list@PAUAutoHideItem@@V?$allocator@PAUAutoHideItem@@@std@@@std@@QBE?AV?$_Iterator@$00@12@V?$_Const_iterator@$00@12@@Z$0 0048ff20 f   hd2.obj
 0001:0008ef28       __unwindfunclet$?_Make_iter@?$list@PAUAutoHideItem@@V?$allocator@PAUAutoHideItem@@@std@@@std@@QBE?AV?$_Iterator@$00@12@V?$_Const_iterator@$00@12@@Z$1 0048ff28 f   hd2.obj
 0001:0008ef47       __ehhandler$?_Make_iter@?$list@PAUAutoHideItem@@V?$allocator@PAUAutoHideItem@@@std@@@std@@QBE?AV?$_Iterator@$00@12@V?$_Const_iterator@$00@12@@Z 0048ff47 f   hd2.obj
 0001:0008ef70       __unwindfunclet$?_Insert@?$list@PAUAutoHideItem@@V?$allocator@PAUAutoHideItem@@@std@@@std@@QAEXV?$_Const_iterator@$00@12@ABQAUAutoHideItem@@@Z$0 0048ff70 f   hd2.obj
 0001:0008ef78       __ehhandler$?_Insert@?$list@PAUAutoHideItem@@V?$allocator@PAUAutoHideItem@@@std@@@std@@QAEXV?$_Const_iterator@$00@12@ABQAUAutoHideItem@@@Z 0048ff78 f   hd2.obj
 0001:0008efa0       __unwindfunclet$??E?$_Const_iterator@$00@?$list@PAUNewProcessInfo@@V?$allocator@PAUNewProcessInfo@@@std@@@std@@QAE?AV012@H@Z$0 0048ffa0 f   hd2.obj
 0001:0008efa8       __unwindfunclet$??E?$_Const_iterator@$00@?$list@PAUNewProcessInfo@@V?$allocator@PAUNewProcessInfo@@@std@@@std@@QAE?AV012@H@Z$1 0048ffa8 f   hd2.obj
 0001:0008efc7       __ehhandler$??E?$_Const_iterator@$00@?$list@PAUNewProcessInfo@@V?$allocator@PAUNewProcessInfo@@@std@@@std@@QAE?AV012@H@Z 0048ffc7 f   hd2.obj
 0001:0008eff0       __unwindfunclet$??E?$_Const_iterator@$00@?$list@PAUAutoHideItem@@V?$allocator@PAUAutoHideItem@@@std@@@std@@QAE?AV012@H@Z$0 0048fff0 f   hd2.obj
 0001:0008eff8       __unwindfunclet$??E?$_Const_iterator@$00@?$list@PAUAutoHideItem@@V?$allocator@PAUAutoHideItem@@@std@@@std@@QAE?AV012@H@Z$1 0048fff8 f   hd2.obj
 0001:0008f017       __ehhandler$??E?$_Const_iterator@$00@?$list@PAUAutoHideItem@@V?$allocator@PAUAutoHideItem@@@std@@@std@@QAE?AV012@H@Z 00490017 f   hd2.obj
 0001:0008f040       __ehhandler$?_Buynode@?$list@PAUsTitleWnd@@V?$allocator@PAUsTitleWnd@@@std@@@std@@IAEPAU_Node@?$_List_nod@PAUsTitleWnd@@V?$allocator@PAUsTitleWnd@@@std@@@2@PAU342@0ABQAUsTitleWnd@@@Z 00490040 f   hd2.obj
 0001:0008f060       __unwindfunclet$?_Incsize@?$list@PAUsTitleWnd@@V?$allocator@PAUsTitleWnd@@@std@@@std@@IAEXI@Z$0 00490060 f   hd2.obj
 0001:0008f075       __ehhandler$?_Incsize@?$list@PAUsTitleWnd@@V?$allocator@PAUsTitleWnd@@@std@@@std@@IAEXI@Z 00490075 f   hd2.obj
 0001:0008f0a0       __unwindfunclet$??0logic_error@std@@QAE@ABV?$basic_string@DU?$char_traits@D@std@@V?$allocator@D@2@@1@@Z$0 004900a0 f   hd2.obj
 0001:0008f0b2       __ehhandler$??0logic_error@std@@QAE@ABV?$basic_string@DU?$char_traits@D@std@@V?$allocator@D@2@@1@@Z 004900b2 f   hd2.obj
 0001:0008f0d0       __ehhandler$?_Buynode@?$list@PAUsBKWHotkey@@V?$allocator@PAUsBKWHotkey@@@std@@@std@@IAEPAU_Node@?$_List_nod@PAUsBKWHotkey@@V?$allocator@PAUsBKWHotkey@@@std@@@2@PAU342@0ABQAUsBKWHotkey@@@Z 004900d0 f   hd2.obj
 0001:0008f0f0       __unwindfunclet$?_Incsize@?$list@PAUsBKWHotkey@@V?$allocator@PAUsBKWHotkey@@@std@@@std@@IAEXI@Z$0 004900f0 f   hd2.obj
 0001:0008f105       __ehhandler$?_Incsize@?$list@PAUsBKWHotkey@@V?$allocator@PAUsBKWHotkey@@@std@@@std@@IAEXI@Z 00490105 f   hd2.obj
 0001:0008f130       __ehhandler$?_Buynode@?$list@PAUsIconTitle@@V?$allocator@PAUsIconTitle@@@std@@@std@@IAEPAU_Node@?$_List_nod@PAUsIconTitle@@V?$allocator@PAUsIconTitle@@@std@@@2@PAU342@0ABQAUsIconTitle@@@Z 00490130 f   hd2.obj
 0001:0008f150       __unwindfunclet$?_Incsize@?$list@PAUsIconTitle@@V?$allocator@PAUsIconTitle@@@std@@@std@@IAEXI@Z$0 00490150 f   hd2.obj
 0001:0008f165       __ehhandler$?_Incsize@?$list@PAUsIconTitle@@V?$allocator@PAUsIconTitle@@@std@@@std@@IAEXI@Z 00490165 f   hd2.obj
 0001:0008f190       __unwindfunclet$??0?$_Const_iterator@$00@?$list@PAUsIconTitle@@V?$allocator@PAUsIconTitle@@@std@@@std@@QAE@PAU_Node@?$_List_nod@PAUsIconTitle@@V?$allocator@PAUsIconTitle@@@std@@@2@PBV12@@Z$0 00490190 f   hd2.obj
 0001:0008f198       __ehhandler$??0?$_Const_iterator@$00@?$list@PAUsIconTitle@@V?$allocator@PAUsIconTitle@@@std@@@std@@QAE@PAU_Node@?$_List_nod@PAUsIconTitle@@V?$allocator@PAUsIconTitle@@@std@@@2@PBV12@@Z 00490198 f   hd2.obj
 0001:0008f1c0       __unwindfunclet$??0?$_Const_iterator@$00@?$list@PAUsTitleWnd@@V?$allocator@PAUsTitleWnd@@@std@@@std@@QAE@PAU_Node@?$_List_nod@PAUsTitleWnd@@V?$allocator@PAUsTitleWnd@@@std@@@2@PBV12@@Z$0 004901c0 f   hd2.obj
 0001:0008f1c8       __ehhandler$??0?$_Const_iterator@$00@?$list@PAUsTitleWnd@@V?$allocator@PAUsTitleWnd@@@std@@@std@@QAE@PAU_Node@?$_List_nod@PAUsTitleWnd@@V?$allocator@PAUsTitleWnd@@@std@@@2@PBV12@@Z 004901c8 f   hd2.obj
 0001:0008f1f0       __ehhandler$?_Buynode@?$list@PAUNewProcessInfo@@V?$allocator@PAUNewProcessInfo@@@std@@@std@@IAEPAU_Node@?$_List_nod@PAUNewProcessInfo@@V?$allocator@PAUNewProcessInfo@@@std@@@2@PAU342@0ABQAUNewProcessInfo@@@Z 004901f0 f   hd2.obj
 0001:0008f210       __unwindfunclet$?_Incsize@?$list@PAUNewProcessInfo@@V?$allocator@PAUNewProcessInfo@@@std@@@std@@IAEXI@Z$0 00490210 f   hd2.obj
 0001:0008f225       __ehhandler$?_Incsize@?$list@PAUNewProcessInfo@@V?$allocator@PAUNewProcessInfo@@@std@@@std@@IAEXI@Z 00490225 f   hd2.obj
 0001:0008f250       __ehhandler$?_Buynode@?$list@PAUAutoHideItem@@V?$allocator@PAUAutoHideItem@@@std@@@std@@IAEPAU_Node@?$_List_nod@PAUAutoHideItem@@V?$allocator@PAUAutoHideItem@@@std@@@2@PAU342@0ABQAUAutoHideItem@@@Z 00490250 f   hd2.obj
 0001:0008f270       __unwindfunclet$?_Incsize@?$list@PAUAutoHideItem@@V?$allocator@PAUAutoHideItem@@@std@@@std@@IAEXI@Z$0 00490270 f   hd2.obj
 0001:0008f285       __ehhandler$?_Incsize@?$list@PAUAutoHideItem@@V?$allocator@PAUAutoHideItem@@@std@@@std@@IAEXI@Z 00490285 f   hd2.obj
 0001:0008f2b0       __unwindfunclet$??0?$_Const_iterator@$00@?$list@PAUNewProcessInfo@@V?$allocator@PAUNewProcessInfo@@@std@@@std@@QAE@PAU_Node@?$_List_nod@PAUNewProcessInfo@@V?$allocator@PAUNewProcessInfo@@@std@@@2@PBV12@@Z$0 004902b0 f   hd2.obj
 0001:0008f2b8       __ehhandler$??0?$_Const_iterator@$00@?$list@PAUNewProcessInfo@@V?$allocator@PAUNewProcessInfo@@@std@@@std@@QAE@PAU_Node@?$_List_nod@PAUNewProcessInfo@@V?$allocator@PAUNewProcessInfo@@@std@@@2@PBV12@@Z 004902b8 f   hd2.obj
 0001:0008f2e0       __unwindfunclet$??0?$_Const_iterator@$00@?$list@PAUAutoHideItem@@V?$allocator@PAUAutoHideItem@@@std@@@std@@QAE@PAU_Node@?$_List_nod@PAUAutoHideItem@@V?$allocator@PAUAutoHideItem@@@std@@@2@PBV12@@Z$0 004902e0 f   hd2.obj
 0001:0008f2e8       __ehhandler$??0?$_Const_iterator@$00@?$list@PAUAutoHideItem@@V?$allocator@PAUAutoHideItem@@@std@@@std@@QAE@PAU_Node@?$_List_nod@PAUAutoHideItem@@V?$allocator@PAUAutoHideItem@@@std@@@2@PBV12@@Z 004902e8 f   hd2.obj
 0001:0008f310       __unwindfunclet$??0logic_error@std@@QAE@ABV01@@Z$0 00490310 f   hd2.obj
 0001:0008f322       __ehhandler$??0logic_error@std@@QAE@ABV01@@Z 00490322 f   hd2.obj
 0001:0008f340       __unwindfunclet$??0?$list@PAUsBKWHotkey@@V?$allocator@PAUsBKWHotkey@@@std@@@std@@QAE@XZ$0 00490340 f   hd2.obj
 0001:0008f348       __ehhandler$??0?$list@PAUsBKWHotkey@@V?$allocator@PAUsBKWHotkey@@@std@@@std@@QAE@XZ 00490348 f   hd2.obj
 0001:0008f370       __ehhandler$?_Buynode@?$list@PAUsBKWHotkey@@V?$allocator@PAUsBKWHotkey@@@std@@@std@@IAEPAU_Node@?$_List_nod@PAUsBKWHotkey@@V?$allocator@PAUsBKWHotkey@@@std@@@2@XZ 00490370 f   hd2.obj
 0001:0008f390       __unwindfunclet$??0?$list@PAUsIconTitle@@V?$allocator@PAUsIconTitle@@@std@@@std@@QAE@XZ$0 00490390 f   hd2.obj
 0001:0008f398       __ehhandler$??0?$list@PAUsIconTitle@@V?$allocator@PAUsIconTitle@@@std@@@std@@QAE@XZ 00490398 f   hd2.obj
 0001:0008f3c0       __ehhandler$?_Buynode@?$list@PAUsIconTitle@@V?$allocator@PAUsIconTitle@@@std@@@std@@IAEPAU_Node@?$_List_nod@PAUsIconTitle@@V?$allocator@PAUsIconTitle@@@std@@@2@XZ 004903c0 f   hd2.obj
 0001:0008f3e0       __unwindfunclet$??0?$list@PAUNewProcessInfo@@V?$allocator@PAUNewProcessInfo@@@std@@@std@@QAE@XZ$0 004903e0 f   hd2.obj
 0001:0008f3e8       __ehhandler$??0?$list@PAUNewProcessInfo@@V?$allocator@PAUNewProcessInfo@@@std@@@std@@QAE@XZ 004903e8 f   hd2.obj
 0001:0008f410       __ehhandler$?_Buynode@?$list@PAUNewProcessInfo@@V?$allocator@PAUNewProcessInfo@@@std@@@std@@IAEPAU_Node@?$_List_nod@PAUNewProcessInfo@@V?$allocator@PAUNewProcessInfo@@@std@@@2@XZ 00490410 f   hd2.obj
 0001:0008f430       __unwindfunclet$??0?$list@PAUAutoHideItem@@V?$allocator@PAUAutoHideItem@@@std@@@std@@QAE@XZ$0 00490430 f   hd2.obj
 0001:0008f438       __ehhandler$??0?$list@PAUAutoHideItem@@V?$allocator@PAUAutoHideItem@@@std@@@std@@QAE@XZ 00490438 f   hd2.obj
 0001:0008f460       __ehhandler$?_Buynode@?$list@PAUAutoHideItem@@V?$allocator@PAUAutoHideItem@@@std@@@std@@IAEPAU_Node@?$_List_nod@PAUAutoHideItem@@V?$allocator@PAUAutoHideItem@@@std@@@2@XZ 00490460 f   hd2.obj
 0001:0008f480       __unwindfunclet$??1?$list@PAUsBKWHotkey@@V?$allocator@PAUsBKWHotkey@@@std@@@std@@QAE@XZ$0 00490480 f   hd2.obj
 0001:0008f488       __ehhandler$??1?$list@PAUsBKWHotkey@@V?$allocator@PAUsBKWHotkey@@@std@@@std@@QAE@XZ 00490488 f   hd2.obj
 0001:0008f4b0       __unwindfunclet$??1?$list@PAUsIconTitle@@V?$allocator@PAUsIconTitle@@@std@@@std@@QAE@XZ$0 004904b0 f   hd2.obj
 0001:0008f4b8       __ehhandler$??1?$list@PAUsIconTitle@@V?$allocator@PAUsIconTitle@@@std@@@std@@QAE@XZ 004904b8 f   hd2.obj
 0001:0008f4e0       __unwindfunclet$??1?$list@PAUNewProcessInfo@@V?$allocator@PAUNewProcessInfo@@@std@@@std@@QAE@XZ$0 004904e0 f   hd2.obj
 0001:0008f4e8       __ehhandler$??1?$list@PAUNewProcessInfo@@V?$allocator@PAUNewProcessInfo@@@std@@@std@@QAE@XZ 004904e8 f   hd2.obj
 0001:0008f510       __unwindfunclet$??1?$list@PAUAutoHideItem@@V?$allocator@PAUAutoHideItem@@@std@@@std@@QAE@XZ$0 00490510 f   hd2.obj
 0001:0008f518       __ehhandler$??1?$list@PAUAutoHideItem@@V?$allocator@PAUAutoHideItem@@@std@@@std@@QAE@XZ 00490518 f   hd2.obj
 0001:0008f540       __unwindfunclet$?EnumAllVisibleTray_au@@YAHXZ$0 00490540 f   hd3.obj
 0001:0008f54b       __ehhandler$?EnumAllVisibleTray_au@@YAHXZ 0049054b f   hd3.obj
 0001:0008f580       __unwindfunclet$?ReleaseTrayHidedList@@YAHXZ$0 00490580 f   hd3.obj
 0001:0008f588       __unwindfunclet$?ReleaseTrayHidedList@@YAHXZ$1 00490588 f   hd3.obj
 0001:0008f593       __unwindfunclet$?ReleaseTrayHidedList@@YAHXZ$2 00490593 f   hd3.obj
 0001:0008f59e       __unwindfunclet$?ReleaseTrayHidedList@@YAHXZ$3 0049059e f   hd3.obj
 0001:0008f5a9       __ehhandler$?ReleaseTrayHidedList@@YAHXZ 004905a9 f   hd3.obj
 0001:0008f5d0       __unwindfunclet$?IsInHidedList@@YAHPAUWndAndHandle@@@Z$0 004905d0 f   hd3.obj
 0001:0008f5d8       __unwindfunclet$?IsInHidedList@@YAHPAUWndAndHandle@@@Z$1 004905d8 f   hd3.obj
 0001:0008f5e3       __unwindfunclet$?IsInHidedList@@YAHPAUWndAndHandle@@@Z$2 004905e3 f   hd3.obj
 0001:0008f5ee       __ehhandler$?IsInHidedList@@YAHPAUWndAndHandle@@@Z 004905ee f   hd3.obj
 0001:0008f610       __unwindfunclet$?IsInHidedWndList@@YAHPAUWndAndHandle@@@Z$0 00490610 f   hd3.obj
 0001:0008f618       __unwindfunclet$?IsInHidedWndList@@YAHPAUWndAndHandle@@@Z$1 00490618 f   hd3.obj
 0001:0008f623       __unwindfunclet$?IsInHidedWndList@@YAHPAUWndAndHandle@@@Z$2 00490623 f   hd3.obj
 0001:0008f62e       __ehhandler$?IsInHidedWndList@@YAHPAUWndAndHandle@@@Z 0049062e f   hd3.obj
 0001:0008f650       __unwindfunclet$?ReleaseHidedWndList@@YAHXZ$0 00490650 f   hd3.obj
 0001:0008f658       __unwindfunclet$?ReleaseHidedWndList@@YAHXZ$1 00490658 f   hd3.obj
 0001:0008f663       __unwindfunclet$?ReleaseHidedWndList@@YAHXZ$2 00490663 f   hd3.obj
 0001:0008f66e       __unwindfunclet$?ReleaseHidedWndList@@YAHXZ$3 0049066e f   hd3.obj
 0001:0008f679       __ehhandler$?ReleaseHidedWndList@@YAHXZ 00490679 f   hd3.obj
 0001:0008f6a0       __unwindfunclet$?IsInAutoHideList@@YAHPA_WH@Z$0 004906a0 f   hd3.obj
 0001:0008f6a8       __unwindfunclet$?IsInAutoHideList@@YAHPA_WH@Z$1 004906a8 f   hd3.obj
 0001:0008f6b3       __unwindfunclet$?IsInAutoHideList@@YAHPA_WH@Z$2 004906b3 f   hd3.obj
 0001:0008f6be       __ehhandler$?IsInAutoHideList@@YAHPA_WH@Z 004906be f   hd3.obj
 0001:0008f6e0       __unwindfunclet$?ReleaseUrlArray@@YAHAAV?$vector@PAUsGifUrl@@V?$allocator@PAUsGifUrl@@@std@@@std@@@Z$0 004906e0 f   hd3.obj
 0001:0008f6eb       __unwindfunclet$?ReleaseUrlArray@@YAHAAV?$vector@PAUsGifUrl@@V?$allocator@PAUsGifUrl@@@std@@@std@@@Z$1 004906eb f   hd3.obj
 0001:0008f6f6       __unwindfunclet$?ReleaseUrlArray@@YAHAAV?$vector@PAUsGifUrl@@V?$allocator@PAUsGifUrl@@@std@@@std@@@Z$2 004906f6 f   hd3.obj
 0001:0008f701       __unwindfunclet$?ReleaseUrlArray@@YAHAAV?$vector@PAUsGifUrl@@V?$allocator@PAUsGifUrl@@@std@@@std@@@Z$3 00490701 f   hd3.obj
 0001:0008f70c       __ehhandler$?ReleaseUrlArray@@YAHAAV?$vector@PAUsGifUrl@@V?$allocator@PAUsGifUrl@@@std@@@std@@@Z 0049070c f   hd3.obj
 0001:0008f730       __unwindfunclet$?ReadGifLinkToList@@YAHAAV?$vector@PAUsGifUrl@@V?$allocator@PAUsGifUrl@@@std@@@std@@@Z$0 00490730 f   hd3.obj
 0001:0008f73b       __ehhandler$?ReadGifLinkToList@@YAHAAV?$vector@PAUsGifUrl@@V?$allocator@PAUsGifUrl@@@std@@@std@@@Z 0049073b f   hd3.obj
 0001:0008f770       __unwindfunclet$?push_back@?$vector@PAUsGifUrl@@V?$allocator@PAUsGifUrl@@@std@@@std@@QAEXABQAUsGifUrl@@@Z$0 00490770 f   hd3.obj
 0001:0008f77b       __ehhandler$?push_back@?$vector@PAUsGifUrl@@V?$allocator@PAUsGifUrl@@@std@@@std@@QAEXABQAUsGifUrl@@@Z 0049077b f   hd3.obj
 0001:0008f7a0       __unwindfunclet$?erase@?$vector@PAUsGifUrl@@V?$allocator@PAUsGifUrl@@@std@@@std@@QAE?AV?$_Vector_iterator@PAUsGifUrl@@V?$allocator@PAUsGifUrl@@@std@@@2@V?$_Vector_const_iterator@PAUsGifUrl@@V?$allocator@PAUsGifUrl@@@std@@@2@@Z$0 004907a0 f   hd3.obj
 0001:0008f7a8       __unwindfunclet$?erase@?$vector@PAUsGifUrl@@V?$allocator@PAUsGifUrl@@@std@@@std@@QAE?AV?$_Vector_iterator@PAUsGifUrl@@V?$allocator@PAUsGifUrl@@@std@@@2@V?$_Vector_const_iterator@PAUsGifUrl@@V?$allocator@PAUsGifUrl@@@std@@@2@@Z$1 004907a8 f   hd3.obj
 0001:0008f7c7       __ehhandler$?erase@?$vector@PAUsGifUrl@@V?$allocator@PAUsGifUrl@@@std@@@std@@QAE?AV?$_Vector_iterator@PAUsGifUrl@@V?$allocator@PAUsGifUrl@@@std@@@2@V?$_Vector_const_iterator@PAUsGifUrl@@V?$allocator@PAUsGifUrl@@@std@@@2@@Z 004907c7 f   hd3.obj
 0001:0008f7f0       __unwindfunclet$?push_back@?$list@PAUWndAndHandle@@V?$allocator@PAUWndAndHandle@@@std@@@std@@QAEXABQAUWndAndHandle@@@Z$0 004907f0 f   hd3.obj
 0001:0008f7fb       __ehhandler$?push_back@?$list@PAUWndAndHandle@@V?$allocator@PAUWndAndHandle@@@std@@@std@@QAEXABQAUWndAndHandle@@@Z 004907fb f   hd3.obj
 0001:0008f820       __unwindfunclet$?erase@?$list@PAUWndAndHandle@@V?$allocator@PAUWndAndHandle@@@std@@@std@@QAE?AV?$_Iterator@$00@12@V?$_Const_iterator@$00@12@@Z$0 00490820 f   hd3.obj
 0001:0008f828       __unwindfunclet$?erase@?$list@PAUWndAndHandle@@V?$allocator@PAUWndAndHandle@@@std@@@std@@QAE?AV?$_Iterator@$00@12@V?$_Const_iterator@$00@12@@Z$1 00490828 f   hd3.obj
 0001:0008f833       __unwindfunclet$?erase@?$list@PAUWndAndHandle@@V?$allocator@PAUWndAndHandle@@@std@@@std@@QAE?AV?$_Iterator@$00@12@V?$_Const_iterator@$00@12@@Z$3 00490833 f   hd3.obj
 0001:0008f852       __ehhandler$?erase@?$list@PAUWndAndHandle@@V?$allocator@PAUWndAndHandle@@@std@@@std@@QAE?AV?$_Iterator@$00@12@V?$_Const_iterator@$00@12@@Z 00490852 f   hd3.obj
 0001:0008f870       __unwindfunclet$??E?$_Iterator@$00@?$list@PAUWndAndHandle@@V?$allocator@PAUWndAndHandle@@@std@@@std@@QAE?AV012@H@Z$0 00490870 f   hd3.obj
 0001:0008f878       __unwindfunclet$??E?$_Iterator@$00@?$list@PAUWndAndHandle@@V?$allocator@PAUWndAndHandle@@@std@@@std@@QAE?AV012@H@Z$1 00490878 f   hd3.obj
 0001:0008f897       __ehhandler$??E?$_Iterator@$00@?$list@PAUWndAndHandle@@V?$allocator@PAUWndAndHandle@@@std@@@std@@QAE?AV012@H@Z 00490897 f   hd3.obj
 0001:0008f8c0       __unwindfunclet$??H?$_Vector_iterator@PAUsGifUrl@@V?$allocator@PAUsGifUrl@@@std@@@std@@QBE?AV01@H@Z$0 004908c0 f   hd3.obj
 0001:0008f8c8       __unwindfunclet$??H?$_Vector_iterator@PAUsGifUrl@@V?$allocator@PAUsGifUrl@@@std@@@std@@QBE?AV01@H@Z$1 004908c8 f   hd3.obj
 0001:0008f8e7       __ehhandler$??H?$_Vector_iterator@PAUsGifUrl@@V?$allocator@PAUsGifUrl@@@std@@@std@@QBE?AV01@H@Z 004908e7 f   hd3.obj
 0001:0008f910       __unwindfunclet$?insert@?$vector@PAUsGifUrl@@V?$allocator@PAUsGifUrl@@@std@@@std@@QAE?AV?$_Vector_iterator@PAUsGifUrl@@V?$allocator@PAUsGifUrl@@@std@@@2@V?$_Vector_const_iterator@PAUsGifUrl@@V?$allocator@PAUsGifUrl@@@std@@@2@ABQAUsGifUrl@@@Z$0 00490910 f   hd3.obj
 0001:0008f918       __unwindfunclet$?insert@?$vector@PAUsGifUrl@@V?$allocator@PAUsGifUrl@@@std@@@std@@QAE?AV?$_Vector_iterator@PAUsGifUrl@@V?$allocator@PAUsGifUrl@@@std@@@2@V?$_Vector_const_iterator@PAUsGifUrl@@V?$allocator@PAUsGifUrl@@@std@@@2@ABQAUsGifUrl@@@Z$1 00490918 f   hd3.obj
 0001:0008f93a       __unwindfunclet$?insert@?$vector@PAUsGifUrl@@V?$allocator@PAUsGifUrl@@@std@@@std@@QAE?AV?$_Vector_iterator@PAUsGifUrl@@V?$allocator@PAUsGifUrl@@@std@@@2@V?$_Vector_const_iterator@PAUsGifUrl@@V?$allocator@PAUsGifUrl@@@std@@@2@ABQAUsGifUrl@@@Z$3 0049093a f   hd3.obj
 0001:0008f945       __unwindfunclet$?insert@?$vector@PAUsGifUrl@@V?$allocator@PAUsGifUrl@@@std@@@std@@QAE?AV?$_Vector_iterator@PAUsGifUrl@@V?$allocator@PAUsGifUrl@@@std@@@2@V?$_Vector_const_iterator@PAUsGifUrl@@V?$allocator@PAUsGifUrl@@@std@@@2@ABQAUsGifUrl@@@Z$4 00490945 f   hd3.obj
 0001:0008f964       __ehhandler$?insert@?$vector@PAUsGifUrl@@V?$allocator@PAUsGifUrl@@@std@@@std@@QAE?AV?$_Vector_iterator@PAUsGifUrl@@V?$allocator@PAUsGifUrl@@@std@@@2@V?$_Vector_const_iterator@PAUsGifUrl@@V?$allocator@PAUsGifUrl@@@std@@@2@ABQAUsGifUrl@@@Z 00490964 f   hd3.obj
 0001:0008f990       __unwindfunclet$?_Make_iter@?$list@PAUWndAndHandle@@V?$allocator@PAUWndAndHandle@@@std@@@std@@QBE?AV?$_Iterator@$00@12@V?$_Const_iterator@$00@12@@Z$0 00490990 f   hd3.obj
 0001:0008f998       __unwindfunclet$?_Make_iter@?$list@PAUWndAndHandle@@V?$allocator@PAUWndAndHandle@@@std@@@std@@QBE?AV?$_Iterator@$00@12@V?$_Const_iterator@$00@12@@Z$1 00490998 f   hd3.obj
 0001:0008f9b7       __ehhandler$?_Make_iter@?$list@PAUWndAndHandle@@V?$allocator@PAUWndAndHandle@@@std@@@std@@QBE?AV?$_Iterator@$00@12@V?$_Const_iterator@$00@12@@Z 004909b7 f   hd3.obj
 0001:0008f9e0       __unwindfunclet$?_Insert@?$list@PAUWndAndHandle@@V?$allocator@PAUWndAndHandle@@@std@@@std@@QAEXV?$_Const_iterator@$00@12@ABQAUWndAndHandle@@@Z$0 004909e0 f   hd3.obj
 0001:0008f9e8       __ehhandler$?_Insert@?$list@PAUWndAndHandle@@V?$allocator@PAUWndAndHandle@@@std@@@std@@QAEXV?$_Const_iterator@$00@12@ABQAUWndAndHandle@@@Z 004909e8 f   hd3.obj
 0001:0008fa10       __unwindfunclet$??E?$_Const_iterator@$00@?$list@PAUWndAndHandle@@V?$allocator@PAUWndAndHandle@@@std@@@std@@QAE?AV012@H@Z$0 00490a10 f   hd3.obj
 0001:0008fa18       __unwindfunclet$??E?$_Const_iterator@$00@?$list@PAUWndAndHandle@@V?$allocator@PAUWndAndHandle@@@std@@@std@@QAE?AV012@H@Z$1 00490a18 f   hd3.obj
 0001:0008fa37       __ehhandler$??E?$_Const_iterator@$00@?$list@PAUWndAndHandle@@V?$allocator@PAUWndAndHandle@@@std@@@std@@QAE?AV012@H@Z 00490a37 f   hd3.obj
 0001:0008fa60       __unwindfunclet$?_Insert_n@?$vector@PAUsGifUrl@@V?$allocator@PAUsGifUrl@@@std@@@std@@IAEXV?$_Vector_const_iterator@PAUsGifUrl@@V?$allocator@PAUsGifUrl@@@std@@@2@IABQAUsGifUrl@@@Z$4 00490a60 f   hd3.obj
 0001:0008fa68       __ehhandler$?_Insert_n@?$vector@PAUsGifUrl@@V?$allocator@PAUsGifUrl@@@std@@@std@@IAEXV?$_Vector_const_iterator@PAUsGifUrl@@V?$allocator@PAUsGifUrl@@@std@@@2@IABQAUsGifUrl@@@Z 00490a68 f   hd3.obj
 0001:0008fa90       __unwindfunclet$?_Xlen@?$vector@PAUsGifUrl@@V?$allocator@PAUsGifUrl@@@std@@@std@@KAXXZ$0 00490a90 f   hd3.obj
 0001:0008faa5       __ehhandler$?_Xlen@?$vector@PAUsGifUrl@@V?$allocator@PAUsGifUrl@@@std@@@std@@KAXXZ 00490aa5 f   hd3.obj
 0001:0008fad0       __ehhandler$?_Buynode@?$list@PAUWndAndHandle@@V?$allocator@PAUWndAndHandle@@@std@@@std@@IAEPAU_Node@?$_List_nod@PAUWndAndHandle@@V?$allocator@PAUWndAndHandle@@@std@@@2@PAU342@0ABQAUWndAndHandle@@@Z 00490ad0 f   hd3.obj
 0001:0008faf0       __unwindfunclet$?_Incsize@?$list@PAUWndAndHandle@@V?$allocator@PAUWndAndHandle@@@std@@@std@@IAEXI@Z$0 00490af0 f   hd3.obj
 0001:0008fb05       __ehhandler$?_Incsize@?$list@PAUWndAndHandle@@V?$allocator@PAUWndAndHandle@@@std@@@std@@IAEXI@Z 00490b05 f   hd3.obj
 0001:0008fb30       __unwindfunclet$??0?$_Const_iterator@$00@?$list@PAUWndAndHandle@@V?$allocator@PAUWndAndHandle@@@std@@@std@@QAE@PAU_Node@?$_List_nod@PAUWndAndHandle@@V?$allocator@PAUWndAndHandle@@@std@@@2@PBV12@@Z$0 00490b30 f   hd3.obj
 0001:0008fb38       __ehhandler$??0?$_Const_iterator@$00@?$list@PAUWndAndHandle@@V?$allocator@PAUWndAndHandle@@@std@@@std@@QAE@PAU_Node@?$_List_nod@PAUWndAndHandle@@V?$allocator@PAUWndAndHandle@@@std@@@2@PBV12@@Z 00490b38 f   hd3.obj
 0001:0008fb60       __unwindfunclet$??0?$_Vector_const_iterator@PAUsGifUrl@@V?$allocator@PAUsGifUrl@@@std@@@std@@QAE@PAPAUsGifUrl@@PBV_Container_base_secure@1@@Z$0 00490b60 f   hd3.obj
 0001:0008fb68       __ehhandler$??0?$_Vector_const_iterator@PAUsGifUrl@@V?$allocator@PAUsGifUrl@@@std@@@std@@QAE@PAPAUsGifUrl@@PBV_Container_base_secure@1@@Z 00490b68 f   hd3.obj
 0001:0008fb90       __unwindfunclet$??0?$vector@PAUsGifUrl@@V?$allocator@PAUsGifUrl@@@std@@@std@@QAE@XZ$0 00490b90 f   hd3.obj
 0001:0008fb98       __ehhandler$??0?$vector@PAUsGifUrl@@V?$allocator@PAUsGifUrl@@@std@@@std@@QAE@XZ 00490b98 f   hd3.obj
 0001:0008fbc0       __unwindfunclet$??0?$list@PAUWndAndHandle@@V?$allocator@PAUWndAndHandle@@@std@@@std@@QAE@XZ$0 00490bc0 f   hd3.obj
 0001:0008fbc8       __ehhandler$??0?$list@PAUWndAndHandle@@V?$allocator@PAUWndAndHandle@@@std@@@std@@QAE@XZ 00490bc8 f   hd3.obj
 0001:0008fbf0       __ehhandler$?_Buynode@?$list@PAUWndAndHandle@@V?$allocator@PAUWndAndHandle@@@std@@@std@@IAEPAU_Node@?$_List_nod@PAUWndAndHandle@@V?$allocator@PAUWndAndHandle@@@std@@@2@XZ 00490bf0 f   hd3.obj
 0001:0008fc10       __unwindfunclet$??1?$vector@PAUsGifUrl@@V?$allocator@PAUsGifUrl@@@std@@@std@@QAE@XZ$0 00490c10 f   hd3.obj
 0001:0008fc18       __ehhandler$??1?$vector@PAUsGifUrl@@V?$allocator@PAUsGifUrl@@@std@@@std@@QAE@XZ 00490c18 f   hd3.obj
 0001:0008fc40       __unwindfunclet$??1?$list@PAUWndAndHandle@@V?$allocator@PAUWndAndHandle@@@std@@@std@@QAE@XZ$0 00490c40 f   hd3.obj
 0001:0008fc48       __ehhandler$??1?$list@PAUWndAndHandle@@V?$allocator@PAUWndAndHandle@@@std@@@std@@QAE@XZ 00490c48 f   hd3.obj
 0001:0008fc70       __unwindfunclet$??0CPictureEx@@QAE@XZ$0 00490c70 f   PictureEx.obj
 0001:0008fc7e       __ehhandler$??0CPictureEx@@QAE@XZ 00490c7e f   PictureEx.obj
 0001:0008fca0       __unwindfunclet$??1CPictureEx@@UAE@XZ$0 00490ca0 f   PictureEx.obj
 0001:0008fcae       __ehhandler$??1CPictureEx@@UAE@XZ 00490cae f   PictureEx.obj
 0001:0008fcd0       __unwindfunclet$?UnLoad@CPictureEx@@QAEXXZ$0 00490cd0 f   PictureEx.obj
 0001:0008fcd8       __unwindfunclet$?UnLoad@CPictureEx@@QAEXXZ$1 00490cd8 f   PictureEx.obj
 0001:0008fce3       __unwindfunclet$?UnLoad@CPictureEx@@QAEXXZ$3 00490ce3 f   PictureEx.obj
 0001:0008fcee       __ehhandler$?UnLoad@CPictureEx@@QAEXXZ 00490cee f   PictureEx.obj
 0001:0008fd10       __unwindfunclet$??0?$vector@UTFrame@CPictureEx@@V?$allocator@UTFrame@CPictureEx@@@std@@@std@@QAE@XZ$0 00490d10 f   PictureEx.obj
 0001:0008fd18       __ehhandler$??0?$vector@UTFrame@CPictureEx@@V?$allocator@UTFrame@CPictureEx@@@std@@@std@@QAE@XZ 00490d18 f   PictureEx.obj
 0001:0008fd40       __unwindfunclet$??1?$vector@UTFrame@CPictureEx@@V?$allocator@UTFrame@CPictureEx@@@std@@@std@@QAE@XZ$0 00490d40 f   PictureEx.obj
 0001:0008fd48       __ehhandler$??1?$vector@UTFrame@CPictureEx@@V?$allocator@UTFrame@CPictureEx@@@std@@@std@@QAE@XZ 00490d48 f   PictureEx.obj
 0001:0008fd70       __unwindfunclet$?push_back@?$vector@UTFrame@CPictureEx@@V?$allocator@UTFrame@CPictureEx@@@std@@@std@@QAEXABUTFrame@CPictureEx@@@Z$0 00490d70 f   PictureEx.obj
 0001:0008fd7b       __ehhandler$?push_back@?$vector@UTFrame@CPictureEx@@V?$allocator@UTFrame@CPictureEx@@@std@@@std@@QAEXABUTFrame@CPictureEx@@@Z 00490d7b f   PictureEx.obj
 0001:0008fda0       __unwindfunclet$?clear@?$vector@UTFrame@CPictureEx@@V?$allocator@UTFrame@CPictureEx@@@std@@@std@@QAEXXZ$0 00490da0 f   PictureEx.obj
 0001:0008fdab       __unwindfunclet$?clear@?$vector@UTFrame@CPictureEx@@V?$allocator@UTFrame@CPictureEx@@@std@@@std@@QAEXXZ$1 00490dab f   PictureEx.obj
 0001:0008fdb6       __unwindfunclet$?clear@?$vector@UTFrame@CPictureEx@@V?$allocator@UTFrame@CPictureEx@@@std@@@std@@QAEXXZ$2 00490db6 f   PictureEx.obj
 0001:0008fdc1       __ehhandler$?clear@?$vector@UTFrame@CPictureEx@@V?$allocator@UTFrame@CPictureEx@@@std@@@std@@QAEXXZ 00490dc1 f   PictureEx.obj
 0001:0008fde0       __unwindfunclet$??E?$_Vector_iterator@UTFrame@CPictureEx@@V?$allocator@UTFrame@CPictureEx@@@std@@@std@@QAE?AV01@H@Z$0 00490de0 f   PictureEx.obj
 0001:0008fde8       __unwindfunclet$??E?$_Vector_iterator@UTFrame@CPictureEx@@V?$allocator@UTFrame@CPictureEx@@@std@@@std@@QAE?AV01@H@Z$1 00490de8 f   PictureEx.obj
 0001:0008fe07       __ehhandler$??E?$_Vector_iterator@UTFrame@CPictureEx@@V?$allocator@UTFrame@CPictureEx@@@std@@@std@@QAE?AV01@H@Z 00490e07 f   PictureEx.obj
 0001:0008fe30       __unwindfunclet$?insert@?$vector@UTFrame@CPictureEx@@V?$allocator@UTFrame@CPictureEx@@@std@@@std@@QAE?AV?$_Vector_iterator@UTFrame@CPictureEx@@V?$allocator@UTFrame@CPictureEx@@@std@@@2@V?$_Vector_const_iterator@UTFrame@CPictureEx@@V?$allocator@UTFrame@CPictureEx@@@std@@@2@ABUTFrame@CPictureEx@@@Z$0 00490e30 f   PictureEx.obj
 0001:0008fe38       __unwindfunclet$?insert@?$vector@UTFrame@CPictureEx@@V?$allocator@UTFrame@CPictureEx@@@std@@@std@@QAE?AV?$_Vector_iterator@UTFrame@CPictureEx@@V?$allocator@UTFrame@CPictureEx@@@std@@@2@V?$_Vector_const_iterator@UTFrame@CPictureEx@@V?$allocator@UTFrame@CPictureEx@@@std@@@2@ABUTFrame@CPictureEx@@@Z$1 00490e38 f   PictureEx.obj
 0001:0008fe5a       __unwindfunclet$?insert@?$vector@UTFrame@CPictureEx@@V?$allocator@UTFrame@CPictureEx@@@std@@@std@@QAE?AV?$_Vector_iterator@UTFrame@CPictureEx@@V?$allocator@UTFrame@CPictureEx@@@std@@@2@V?$_Vector_const_iterator@UTFrame@CPictureEx@@V?$allocator@UTFrame@CPictureEx@@@std@@@2@ABUTFrame@CPictureEx@@@Z$3 00490e5a f   PictureEx.obj
 0001:0008fe65       __unwindfunclet$?insert@?$vector@UTFrame@CPictureEx@@V?$allocator@UTFrame@CPictureEx@@@std@@@std@@QAE?AV?$_Vector_iterator@UTFrame@CPictureEx@@V?$allocator@UTFrame@CPictureEx@@@std@@@2@V?$_Vector_const_iterator@UTFrame@CPictureEx@@V?$allocator@UTFrame@CPictureEx@@@std@@@2@ABUTFrame@CPictureEx@@@Z$4 00490e65 f   PictureEx.obj
 0001:0008fe84       __ehhandler$?insert@?$vector@UTFrame@CPictureEx@@V?$allocator@UTFrame@CPictureEx@@@std@@@std@@QAE?AV?$_Vector_iterator@UTFrame@CPictureEx@@V?$allocator@UTFrame@CPictureEx@@@std@@@2@V?$_Vector_const_iterator@UTFrame@CPictureEx@@V?$allocator@UTFrame@CPictureEx@@@std@@@2@ABUTFrame@CPictureEx@@@Z 00490e84 f   PictureEx.obj
 0001:0008feb0       __unwindfunclet$?erase@?$vector@UTFrame@CPictureEx@@V?$allocator@UTFrame@CPictureEx@@@std@@@std@@QAE?AV?$_Vector_iterator@UTFrame@CPictureEx@@V?$allocator@UTFrame@CPictureEx@@@std@@@2@V?$_Vector_const_iterator@UTFrame@CPictureEx@@V?$allocator@UTFrame@CPictureEx@@@std@@@2@0@Z$0 00490eb0 f   PictureEx.obj
 0001:0008feb8       __unwindfunclet$?erase@?$vector@UTFrame@CPictureEx@@V?$allocator@UTFrame@CPictureEx@@@std@@@std@@QAE?AV?$_Vector_iterator@UTFrame@CPictureEx@@V?$allocator@UTFrame@CPictureEx@@@std@@@2@V?$_Vector_const_iterator@UTFrame@CPictureEx@@V?$allocator@UTFrame@CPictureEx@@@std@@@2@0@Z$1 00490eb8 f   PictureEx.obj
 0001:0008fec0       __unwindfunclet$?erase@?$vector@UTFrame@CPictureEx@@V?$allocator@UTFrame@CPictureEx@@@std@@@std@@QAE?AV?$_Vector_iterator@UTFrame@CPictureEx@@V?$allocator@UTFrame@CPictureEx@@@std@@@2@V?$_Vector_const_iterator@UTFrame@CPictureEx@@V?$allocator@UTFrame@CPictureEx@@@std@@@2@0@Z$3 00490ec0 f   PictureEx.obj
 0001:0008fec8       __unwindfunclet$?erase@?$vector@UTFrame@CPictureEx@@V?$allocator@UTFrame@CPictureEx@@@std@@@std@@QAE?AV?$_Vector_iterator@UTFrame@CPictureEx@@V?$allocator@UTFrame@CPictureEx@@@std@@@2@V?$_Vector_const_iterator@UTFrame@CPictureEx@@V?$allocator@UTFrame@CPictureEx@@@std@@@2@0@Z$5 00490ec8 f   PictureEx.obj
 0001:0008fed0       __unwindfunclet$?erase@?$vector@UTFrame@CPictureEx@@V?$allocator@UTFrame@CPictureEx@@@std@@@std@@QAE?AV?$_Vector_iterator@UTFrame@CPictureEx@@V?$allocator@UTFrame@CPictureEx@@@std@@@2@V?$_Vector_const_iterator@UTFrame@CPictureEx@@V?$allocator@UTFrame@CPictureEx@@@std@@@2@0@Z$6 00490ed0 f   PictureEx.obj
 0001:0008feef       __ehhandler$?erase@?$vector@UTFrame@CPictureEx@@V?$allocator@UTFrame@CPictureEx@@@std@@@std@@QAE?AV?$_Vector_iterator@UTFrame@CPictureEx@@V?$allocator@UTFrame@CPictureEx@@@std@@@2@V?$_Vector_const_iterator@UTFrame@CPictureEx@@V?$allocator@UTFrame@CPictureEx@@@std@@@2@0@Z 00490eef f   PictureEx.obj
 0001:0008ff10       __unwindfunclet$?_Make_iter@?$vector@UTFrame@CPictureEx@@V?$allocator@UTFrame@CPictureEx@@@std@@@std@@QBE?AV?$_Vector_iterator@UTFrame@CPictureEx@@V?$allocator@UTFrame@CPictureEx@@@std@@@2@V?$_Vector_const_iterator@UTFrame@CPictureEx@@V?$allocator@UTFrame@CPictureEx@@@std@@@2@@Z$0 00490f10 f   PictureEx.obj
 0001:0008ff18       __unwindfunclet$?_Make_iter@?$vector@UTFrame@CPictureEx@@V?$allocator@UTFrame@CPictureEx@@@std@@@std@@QBE?AV?$_Vector_iterator@UTFrame@CPictureEx@@V?$allocator@UTFrame@CPictureEx@@@std@@@2@V?$_Vector_const_iterator@UTFrame@CPictureEx@@V?$allocator@UTFrame@CPictureEx@@@std@@@2@@Z$1 00490f18 f   PictureEx.obj
 0001:0008ff37       __ehhandler$?_Make_iter@?$vector@UTFrame@CPictureEx@@V?$allocator@UTFrame@CPictureEx@@@std@@@std@@QBE?AV?$_Vector_iterator@UTFrame@CPictureEx@@V?$allocator@UTFrame@CPictureEx@@@std@@@2@V?$_Vector_const_iterator@UTFrame@CPictureEx@@V?$allocator@UTFrame@CPictureEx@@@std@@@2@@Z 00490f37 f   PictureEx.obj
 0001:0008ff60       __unwindfunclet$?_Insert_n@?$vector@UTFrame@CPictureEx@@V?$allocator@UTFrame@CPictureEx@@@std@@@std@@IAEXV?$_Vector_const_iterator@UTFrame@CPictureEx@@V?$allocator@UTFrame@CPictureEx@@@std@@@2@IABUTFrame@CPictureEx@@@Z$4 00490f60 f   PictureEx.obj
 0001:0008ff68       __ehhandler$?_Insert_n@?$vector@UTFrame@CPictureEx@@V?$allocator@UTFrame@CPictureEx@@@std@@@std@@IAEXV?$_Vector_const_iterator@UTFrame@CPictureEx@@V?$allocator@UTFrame@CPictureEx@@@std@@@2@IABUTFrame@CPictureEx@@@Z 00490f68 f   PictureEx.obj
 0001:0008ff90       __unwindfunclet$?_Xlen@?$vector@UTFrame@CPictureEx@@V?$allocator@UTFrame@CPictureEx@@@std@@@std@@KAXXZ$0 00490f90 f   PictureEx.obj
 0001:0008ffa5       __ehhandler$?_Xlen@?$vector@UTFrame@CPictureEx@@V?$allocator@UTFrame@CPictureEx@@@std@@@std@@KAXXZ 00490fa5 f   PictureEx.obj
 0001:0008ffd0       __unwindfunclet$??H?$_Vector_iterator@UTFrame@CPictureEx@@V?$allocator@UTFrame@CPictureEx@@@std@@@std@@QBE?AV01@H@Z$0 00490fd0 f   PictureEx.obj
 0001:0008ffd8       __unwindfunclet$??H?$_Vector_iterator@UTFrame@CPictureEx@@V?$allocator@UTFrame@CPictureEx@@@std@@@std@@QBE?AV01@H@Z$1 00490fd8 f   PictureEx.obj
 0001:0008fff7       __ehhandler$??H?$_Vector_iterator@UTFrame@CPictureEx@@V?$allocator@UTFrame@CPictureEx@@@std@@@std@@QBE?AV01@H@Z 00490ff7 f   PictureEx.obj
 0001:00090020       __unwindfunclet$??0?$_Vector_const_iterator@UTFrame@CPictureEx@@V?$allocator@UTFrame@CPictureEx@@@std@@@std@@QAE@PAUTFrame@CPictureEx@@PBV_Container_base_secure@1@@Z$0 00491020 f   PictureEx.obj
 0001:00090028       __ehhandler$??0?$_Vector_const_iterator@UTFrame@CPictureEx@@V?$allocator@UTFrame@CPictureEx@@@std@@@std@@QAE@PAUTFrame@CPictureEx@@PBV_Container_base_secure@1@@Z 00491028 f   PictureEx.obj
 0001:00090050       __ehhandler$??$_Uninit_fill_n@PAUTFrame@CPictureEx@@IU12@V?$allocator@UTFrame@CPictureEx@@@std@@@std@@YAXPAUTFrame@CPictureEx@@IABU12@AAV?$allocator@UTFrame@CPictureEx@@@0@U_Nonscalar_ptr_iterator_tag@0@U_Range_checked_iterator_tag@0@@Z 00491050 f   PictureEx.obj
 0001:00090070       __ehhandler$??$_Uninit_copy@PAUTFrame@CPictureEx@@PAU12@V?$allocator@UTFrame@CPictureEx@@@std@@@std@@YAPAUTFrame@CPictureEx@@PAU12@00AAV?$allocator@UTFrame@CPictureEx@@@0@U_Nonscalar_ptr_iterator_tag@0@U_Range_checked_iterator_tag@0@@Z 00491070 f   PictureEx.obj
 0001:00090090       __ehhandler$?TestHttpProxy@UseProxyDlg@@SGKPAX@Z 00491090 f   UseProxyDlg.obj
 0001:000900c0       __ehhandler$?TestSockProxy@UseProxyDlg@@SGKPAX@Z 004910c0 f   UseProxyDlg.obj
 0001:000900f0       __ehhandler$?DownLoadFile@UseProxyDlg@@SGKPAX@Z 004910f0 f   UseProxyDlg.obj
 0001:00090120       __ehhandler$?Init@CWebDB@@QAEHXZ 00491120 f   WebDB.obj
 0001:00090140       __unwindfunclet$??1CWebDB@@UAE@XZ$0 00491140 f   WebDB.obj
 0001:0009014b       __ehhandler$??1CWebDB@@UAE@XZ 0049114b f   WebDB.obj
 0001:00090170       __unwindfunclet$?ReadIconTitleItem@CWebDB@@QAEHPAUStatusTxtLinkItem@@@Z$2 00491170 f   WebDB.obj
 0001:00090178       __ehhandler$?ReadIconTitleItem@CWebDB@@QAEHPAUStatusTxtLinkItem@@@Z 00491178 f   WebDB.obj
 0001:000901a0       __unwindfunclet$?ReadWndAdsItem@CWebDB@@QAEHPAUStatusTxtLinkItem@@@Z$2 004911a0 f   WebDB.obj
 0001:000901a8       __ehhandler$?ReadWndAdsItem@CWebDB@@QAEHPAUStatusTxtLinkItem@@@Z 004911a8 f   WebDB.obj
 0001:000901d0       __unwindfunclet$?GetCount@CWebDB@@QAEHXZ$2 004911d0 f   WebDB.obj
 0001:000901d8       __ehhandler$?GetCount@CWebDB@@QAEHXZ 004911d8 f   WebDB.obj
 0001:00090200       ??__Em_lnk_cleanpri@@YAXXZ 00491200 f   ClearDlg.obj
 0001:00090250       ??__Egif_clean@@YAXXZ      00491250 f   ClearDlg.obj
 0001:000902a0       ??__Eclash@Inconsistent_definition_of_symbol__ATL_MIXED@@YAXXZ 004912a0 f   hd.obj
 0001:000902d0       ??__Eclash@Define_the_symbol__ATL_MIXED@@YAXXZ 004912d0 f   hd.obj
 0001:00090310       ??__E_Module@@YAXXZ        00491310 f   hd.obj
 0001:00090360       ??__Eg_BKHList@@YAXXZ      00491360 f   hd2.obj
 0001:000903b0       ??__Eg_ITList@@YAXXZ       004913b0 f   hd2.obj
 0001:00090400       ??__Eg_ICList@@YAXXZ       00491400 f   hd2.obj
 0001:00090450       ??__Em_lnk_wndlist@@YAXXZ  00491450 f   hd2.obj
 0001:000904a0       ??__Em_flash@@YAXXZ        004914a0 f   hd2.obj
 0001:000904f0       ??__Egif_web@@YAXXZ        004914f0 f   hd2.obj
 0001:00090540       ??__Em_lnk_tray@@YAXXZ     00491540 f   hd2.obj
 0001:00090590       ??__Egif_tray@@YAXXZ       00491590 f   hd2.obj
 0001:000905e0       ??__Em_lnk_process@@YAXXZ  004915e0 f   hd2.obj
 0001:00090630       ??__Em_lnk_autohide@@YAXXZ 00491630 f   hd2.obj
 0001:00090680       ??__Egif_ah@@YAXXZ         00491680 f   hd2.obj
 0001:000906d0       ??__Em_lnk_bk@@YAXXZ       004916d0 f   hd2.obj
 0001:00090720       ??__Egif_bk@@YAXXZ         00491720 f   hd2.obj
 0001:00090770       ??__Em_lnk1@@YAXXZ         00491770 f   hd2.obj
 0001:000907c0       ??__Eg_ProcessList1@@YAXXZ 004917c0 f   hd2.obj
 0001:00090810       ??__Eg_ProcessList2@@YAXXZ 00491810 f   hd2.obj
 0001:00090860       ??__Eg_NewProcessList@@YAXXZ 00491860 f   hd2.obj
 0001:000908b0       ??__Eg_DBProcessList@@YAXXZ 004918b0 f   hd2.obj
 0001:00090900       ??__EurlArray@@YAXXZ       00491900 f   hd3.obj
 0001:00090950       ??__Eg_HidedWndList@@YAXXZ 00491950 f   hd3.obj
 0001:000909a0       ??__Eg_HidedTrayList@@YAXXZ 004919a0 f   hd3.obj
 0001:000909f0       ??__Em_lnk_adv@@YAXXZ      004919f0 f   UseProxyDlg.obj
 0001:00090a40       ??__Egif_adv@@YAXXZ        00491a40 f   UseProxyDlg.obj
 0001:00090a90       ??__Em_lnk_hideip@@YAXXZ   00491a90 f   UseProxyDlg.obj
 0001:00090ae0       ??__Egif_gen@@YAXXZ        00491ae0 f   UseProxyDlg.obj
 0001:00090b30       ??__E_AtlBaseModule@ATL@@YAXXZ 00491b30 f   atlsd:atlbase.obj
 0001:00090b50       ??__EatlTraceGeneral@ATL@@YAXXZ 00491b50 f   atlsd:atltrace.obj
 0001:00090b70       ??__EatlTraceCOM@ATL@@YAXXZ 00491b70 f   atlsd:atltrace.obj
 0001:00090b90       ??__EatlTraceQI@ATL@@YAXXZ 00491b90 f   atlsd:atltrace.obj
 0001:00090bb0       ??__EatlTraceRegistrar@ATL@@YAXXZ 00491bb0 f   atlsd:atltrace.obj
 0001:00090bd0       ??__EatlTraceRefcount@ATL@@YAXXZ 00491bd0 f   atlsd:atltrace.obj
 0001:00090bf0       ??__EatlTraceWindowing@ATL@@YAXXZ 00491bf0 f   atlsd:atltrace.obj
 0001:00090c10       ??__EatlTraceControls@ATL@@YAXXZ 00491c10 f   atlsd:atltrace.obj
 0001:00090c30       ??__EatlTraceHosting@ATL@@YAXXZ 00491c30 f   atlsd:atltrace.obj
 0001:00090c50       ??__EatlTraceDBClient@ATL@@YAXXZ 00491c50 f   atlsd:atltrace.obj
 0001:00090c70       ??__EatlTraceDBProvider@ATL@@YAXXZ 00491c70 f   atlsd:atltrace.obj
 0001:00090c90       ??__EatlTraceSnapin@ATL@@YAXXZ 00491c90 f   atlsd:atltrace.obj
 0001:00090cb0       ??__EatlTraceNotImpl@ATL@@YAXXZ 00491cb0 f   atlsd:atltrace.obj
 0001:00090cd0       ??__EatlTraceAllocation@ATL@@YAXXZ 00491cd0 f   atlsd:atltrace.obj
 0001:00090cf0       ??__EatlTraceException@ATL@@YAXXZ 00491cf0 f   atlsd:atltrace.obj
 0001:00090d10       ??__EatlTraceTime@ATL@@YAXXZ 00491d10 f   atlsd:atltrace.obj
 0001:00090d30       ??__EatlTraceCache@ATL@@YAXXZ 00491d30 f   atlsd:atltrace.obj
 0001:00090d50       ??__EatlTraceStencil@ATL@@YAXXZ 00491d50 f   atlsd:atltrace.obj
 0001:00090d70       ??__EatlTraceString@ATL@@YAXXZ 00491d70 f   atlsd:atltrace.obj
 0001:00090d90       ??__EatlTraceMap@ATL@@YAXXZ 00491d90 f   atlsd:atltrace.obj
 0001:00090db0       ??__EatlTraceUtil@ATL@@YAXXZ 00491db0 f   atlsd:atltrace.obj
 0001:00090dd0       ??__EatlTraceSecurity@ATL@@YAXXZ 00491dd0 f   atlsd:atltrace.obj
 0001:00090df0       ??__EatlTraceSync@ATL@@YAXXZ 00491df0 f   atlsd:atltrace.obj
 0001:00090e10       ??__EatlTraceISAPI@ATL@@YAXXZ 00491e10 f   atlsd:atltrace.obj
 0001:00090e30       ??__EatlTraceUser@ATL@@YAXXZ 00491e30 f   atlsd:atltrace.obj
 0001:00090e50       ??__EatlTraceUser2@ATL@@YAXXZ 00491e50 f   atlsd:atltrace.obj
 0001:00090e70       ??__EatlTraceUser3@ATL@@YAXXZ 00491e70 f   atlsd:atltrace.obj
 0001:00090e90       ??__EatlTraceUser4@ATL@@YAXXZ 00491e90 f   atlsd:atltrace.obj
 0001:00090eb0       ??__Eg_Allocator@@YAXXZ    00491eb0 f   atlsd:Externs.obj
 0001:00090ed0       ??__Eg_bInitialized@@YAXXZ 00491ed0 f   atlsd:Externs.obj
 0001:00090ef0       ??__E?s_trace@CTrace@ATL@@2V12@A@@YAXXZ 00491ef0 f   atlsd:Externs.obj
 0001:00090f20       ??__Fm_lnk_cleanpri@@YAXXZ 00491f20 f   ClearDlg.obj
 0001:00090f60       ??__Fgif_clean@@YAXXZ      00491f60 f   ClearDlg.obj
 0001:00090fa0       ??__F_Module@@YAXXZ        00491fa0 f   hd.obj
 0001:00090fe0       ??__Fg_BKHList@@YAXXZ      00491fe0 f   hd2.obj
 0001:00091020       ??__Fg_ITList@@YAXXZ       00492020 f   hd2.obj
 0001:00091060       ??__Fg_ICList@@YAXXZ       00492060 f   hd2.obj
 0001:000910a0       ??__Fm_lnk_wndlist@@YAXXZ  004920a0 f   hd2.obj
 0001:000910e0       ??__Fm_flash@@YAXXZ        004920e0 f   hd2.obj
 0001:00091120       ??__Fgif_web@@YAXXZ        00492120 f   hd2.obj
 0001:00091160       ??__Fm_lnk_tray@@YAXXZ     00492160 f   hd2.obj
 0001:000911a0       ??__Fgif_tray@@YAXXZ       004921a0 f   hd2.obj
 0001:000911e0       ??__Fm_lnk_process@@YAXXZ  004921e0 f   hd2.obj
 0001:00091220       ??__Fm_lnk_autohide@@YAXXZ 00492220 f   hd2.obj
 0001:00091260       ??__Fgif_ah@@YAXXZ         00492260 f   hd2.obj
 0001:000912a0       ??__Fm_lnk_bk@@YAXXZ       004922a0 f   hd2.obj
 0001:000912e0       ??__Fgif_bk@@YAXXZ         004922e0 f   hd2.obj
 0001:00091320       ??__Fm_lnk1@@YAXXZ         00492320 f   hd2.obj
 0001:00091360       ??__Fg_NewProcessList@@YAXXZ 00492360 f   hd2.obj
 0001:000913a0       ??__Fg_ProcessList2@@YAXXZ 004923a0 f   hd2.obj
 0001:000913e0       ??__Fg_ProcessList1@@YAXXZ 004923e0 f   hd2.obj
 0001:00091420       ??__Fg_DBProcessList@@YAXXZ 00492420 f   hd2.obj
 0001:00091460       ??__FurlArray@@YAXXZ       00492460 f   hd3.obj
 0001:000914a0       ??__Fg_HidedWndList@@YAXXZ 004924a0 f   hd3.obj
 0001:000914e0       ??__Fg_HidedTrayList@@YAXXZ 004924e0 f   hd3.obj
 0001:00091520       ??__Fm_lnk_adv@@YAXXZ      00492520 f   UseProxyDlg.obj
 0001:00091560       ??__Fgif_adv@@YAXXZ        00492560 f   UseProxyDlg.obj
 0001:000915a0       ??__Fm_lnk_hideip@@YAXXZ   004925a0 f   UseProxyDlg.obj
 0001:000915e0       ??__Fgif_gen@@YAXXZ        004925e0 f   UseProxyDlg.obj
 0001:00091620       ??__F_AtlBaseModule@ATL@@YAXXZ 00492620 f   atlsd:atlbase.obj
 0001:00091640       ??__Fg_Allocator@@YAXXZ    00492640 f   atlsd:Externs.obj
 0001:00091660       ??__F?s_trace@CTrace@ATL@@2V12@A@@YAXXZ 00492660 f   atlsd:Externs.obj
