 HideDragon

 Timestamp is 48e44232 (Thu Oct 02 11:38:26 2008)

 Preferred load address is 00400000

 Start         Length     Name                   Class
 0001:00000000 0006f435H .text                   CODE
 0001:0006f440 0000190bH .text$x                 CODE
 0001:00070d4b 00036d05H .textbss                CODE
 0002:00000000 0000f28dH .rdata                  DATA
 0002:0000f290 00000151H .rdata$r                DATA
 0002:0000f3e8 00001e77H .xdata$x                DATA
 0002:0001125f 00000000H .edata                  DATA
 0003:00000000 00000104H .CRT$XCA                DATA
 0003:00000104 00000143H .CRT$XCU                DATA
 0003:00000248 00000104H .CRT$XCZ                DATA
 0003:0000034c 00000104H .CRT$XIA                DATA
 0003:00000450 00000104H .CRT$XIZ                DATA
 0003:00000560 0000052eH .data                   DATA
 0003:00000a90 0001026cH .bss                    DATA
 0004:00000000 00000154H .idata$2                DATA
 0004:00000154 00000014H .idata$3                DATA
 0004:00000168 00000ac0H .idata$4                DATA
 0004:00000c28 00000ac0H .idata$5                DATA
 0004:000016e8 00001ea3H .idata$6                DATA
 0005:00000000 00000109H ForOnlyOne              DATA
 0006:00000000 00001879H .rsrc$01                DATA
 0006:00001880 00060b6cH .rsrc$02                DATA

  Address         Publics by Value              Rva+Base     Lib:Object

 0001:00001d90       ??0CClearDlg@@QAE@XZ       00402d90 f   ClearDlg.obj
 0001:00001dc0       ??1CClearDlg@@QAE@XZ       00402dc0 f   ClearDlg.obj
 0001:00001df0       ?ThreadDlgProc@CClearDlg@@SGJPAUHWND__@@IIJ@Z 00402df0 f   ClearDlg.obj
 0001:00001f60       ?_Freenode@?$list@PAUWndAndHandle@@V?$allocator@PAUWndAndHandle@@@std@@@std@@IAEXPAU_Node@12@@Z 00402f60 f i hd3.obj
 0001:00001fa0       ?_Destroy@std@@YAXPAPAUWndAndHandle@@@Z 00402fa0 f i hd3.obj
 0001:00001fc0       ?MainDlgProc@CClearDlg@@SGJPAUHWND__@@IIJ@Z 00402fc0 f   ClearDlg.obj
 0001:00002e80       ?insert@?$list@PAUWndAndHandle@@V?$allocator@PAUWndAndHandle@@@std@@@std@@QAE?AViterator@12@V312@ABQAUWndAndHandle@@@Z 00403e80 f i hd3.obj
 0001:00002f50       ?_Buynode@?$list@PAUWndAndHandle@@V?$allocator@PAUWndAndHandle@@@std@@@std@@IAEPAU_Node@12@PAU312@0@Z 00403f50 f i hd3.obj
 0001:00002fe0       ??8iterator@?$list@PAUWndAndHandle@@V?$allocator@PAUWndAndHandle@@@std@@@std@@QBE_NABV012@@Z 00403fe0 f i hd3.obj
 0001:00003020       ?erase@?$list@PAUWndAndHandle@@V?$allocator@PAUWndAndHandle@@@std@@@std@@QAE?AViterator@12@V312@@Z 00404020 f i hd3.obj
 0001:00003100       ?_Construct@std@@YAXPAPAUWndAndHandle@@ABQAU2@@Z 00404100 f i hd3.obj
 0001:00003230       ?InitMainDlg@CClearDlg@@SAXPAUHWND__@@@Z 00404230 f   ClearDlg.obj
 0001:00004110       ?IsInCheckedArray@@YAHH@Z  00405110 f   ClearDlg.obj
 0001:00004190       ?NotSearchIP@CClearDlg@@SAHXZ 00405190 f   ClearDlg.obj
 0001:00004270       ?DoWork@CClearDlg@@SGKPAX@Z 00405270 f   ClearDlg.obj
 0001:00008320       ?EmptyDirectory@CClearDlg@@SAXPBG@Z 00409320 f   ClearDlg.obj
 0001:00008710       ?IsWindows2k@CClearDlg@@SAHXZ 00409710 f   ClearDlg.obj
 0001:00008800       ?IsWindowsNT@CClearDlg@@SAHXZ 00409800 f   ClearDlg.obj
 0001:000088f0       ?ClearForm@CClearDlg@@SAXXZ 004098f0 f   ClearDlg.obj
 0001:00008ce0       ?CreateNewSD@CClearDlg@@SAHPAXPAU_SECURITY_DESCRIPTOR@@PAPAU_ACL@@@Z 00409ce0 f   ClearDlg.obj
 0001:00009100       ?GetOldSD@CClearDlg@@SAHPAUHKEY__@@PBGPAPAE@Z 0040a100 f   ClearDlg.obj
 0001:00009280       ?GetUserSid@CClearDlg@@SAHPAPAX@Z 0040a280 f   ClearDlg.obj
 0001:000094e0       ?GetSidString@CClearDlg@@SAXPAXPAG@Z 0040a4e0 f   ClearDlg.obj
 0001:00009650       ?RegSetPrivilege@CClearDlg@@SAHPAUHKEY__@@PBGPAU_SECURITY_DESCRIPTOR@@H@Z 0040a650 f   ClearDlg.obj
 0001:000098d0       ?EmptyRegKey@CClearDlg@@SAXPAUHKEY__@@PBG1@Z 0040a8d0 f   ClearDlg.obj
 0001:00009a10       ?DeleteRegValue@CClearDlg@@SAXPAUHKEY__@@PBG1@Z 0040aa10 f   ClearDlg.obj
 0001:00009ab0       ?GetTreeItemText@CClearDlg@@SAXPAUHWND__@@PAGHPAU_TREEITEM@@@Z 0040aab0 f   ClearDlg.obj
 0001:00009b70       ?DeleteSpecifyedLnkInOneDir@CClearDlg@@SAXPBG0@Z 0040ab70 f   ClearDlg.obj
 0001:00009f40       ?Create@CClearDlg@@QAEXPAUHWND__@@PAUHINSTANCE__@@@Z 0040af40 f   ClearDlg.obj
 0001:00009ff0       ??0CppSQLite3Exception@@QAE@HPAD_N@Z 0040aff0 f   CppSQLite3.obj
 0001:0000a0c0       ??_ECppSQLite3Exception@@UAEPAXI@Z 0040b0c0 f i CppSQLite3.obj
 0001:0000a0c0       ??_GCppSQLite3Exception@@UAEPAXI@Z 0040b0c0 f i CppSQLite3.obj
 0001:0000a130       ??0CppSQLite3Exception@@QAE@ABV0@@Z 0040b130 f   CppSQLite3.obj
 0001:0000a1d0       ?errorCodeAsString@CppSQLite3Exception@@SAPBDH@Z 0040b1d0 f   CppSQLite3.obj
 0001:0000a400       ??1CppSQLite3Exception@@UAE@XZ 0040b400 f   CppSQLite3.obj
 0001:0000a470       ??0CppSQLite3Buffer@@QAE@XZ 0040b470 f   CppSQLite3.obj
 0001:0000a4b0       ??1CppSQLite3Buffer@@QAE@XZ 0040b4b0 f   CppSQLite3.obj
 0001:0000a500       ?clear@CppSQLite3Buffer@@QAEXXZ 0040b500 f   CppSQLite3.obj
 0001:0000a560       ?format@CppSQLite3Buffer@@QAAPBDPBDZZ 0040b560 f   CppSQLite3.obj
 0001:0000a5d0       ??0CppSQLite3Binary@@QAE@XZ 0040b5d0 f   CppSQLite3.obj
 0001:0000a640       ??1CppSQLite3Binary@@QAE@XZ 0040b640 f   CppSQLite3.obj
 0001:0000a690       ?setBinary@CppSQLite3Binary@@QAEXPBEH@Z 0040b690 f   CppSQLite3.obj
 0001:0000a700       ?setEncoded@CppSQLite3Binary@@QAEXPBE@Z 0040b700 f   CppSQLite3.obj
 0001:0000a800       ?getEncoded@CppSQLite3Binary@@QAEPBEXZ 0040b800 f   CppSQLite3.obj
 0001:0000a8e0       ?getBinary@CppSQLite3Binary@@QAEPBEXZ 0040b8e0 f   CppSQLite3.obj
 0001:0000a990       ?getBinaryLength@CppSQLite3Binary@@QAEHXZ 0040b990 f   CppSQLite3.obj
 0001:0000a9e0       ?allocBuffer@CppSQLite3Binary@@QAEPAEH@Z 0040b9e0 f   CppSQLite3.obj
 0001:0000aac0       ?clear@CppSQLite3Binary@@QAEXXZ 0040bac0 f   CppSQLite3.obj
 0001:0000ab50       ??0CppSQLite3Query@@QAE@XZ 0040bb50 f   CppSQLite3.obj
 0001:0000abc0       ??_GCppSQLite3Query@@UAEPAXI@Z 0040bbc0 f i CppSQLite3.obj
 0001:0000abc0       ??_ECppSQLite3Query@@UAEPAXI@Z 0040bbc0 f i CppSQLite3.obj
 0001:0000ac30       ??0CppSQLite3Query@@QAE@ABV0@@Z 0040bc30 f   CppSQLite3.obj
 0001:0000acc0       ??0CppSQLite3Query@@QAE@PAUsqlite3@@PAUsqlite3_stmt@@_N2@Z 0040bcc0 f   CppSQLite3.obj
 0001:0000ad60       ??1CppSQLite3Query@@UAE@XZ 0040bd60 f   CppSQLite3.obj
 0001:0000ae00       ??4CppSQLite3Query@@QAEAAV0@ABV0@@Z 0040be00 f   CppSQLite3.obj
 0001:0000aee0       ?numFields@CppSQLite3Query@@QAEHXZ 0040bee0 f   CppSQLite3.obj
 0001:0000af30       ?fieldValue@CppSQLite3Query@@QAEPBDH@Z 0040bf30 f   CppSQLite3.obj
 0001:0000afe0       ?fieldValue@CppSQLite3Query@@QAEPBDPBD@Z 0040bfe0 f   CppSQLite3.obj
 0001:0000b050       ?getIntField@CppSQLite3Query@@QAEHHH@Z 0040c050 f   CppSQLite3.obj
 0001:0000b0c0       ?getIntField@CppSQLite3Query@@QAEHPBDH@Z 0040c0c0 f   CppSQLite3.obj
 0001:0000b130       ?getFloatField@CppSQLite3Query@@QAENHN@Z 0040c130 f   CppSQLite3.obj
 0001:0000b1a0       ?getFloatField@CppSQLite3Query@@QAENPBDN@Z 0040c1a0 f   CppSQLite3.obj
 0001:0000b210       ?getStringField@CppSQLite3Query@@QAEPBDHPBD@Z 0040c210 f   CppSQLite3.obj
 0001:0000b280       ?getStringField@CppSQLite3Query@@QAEPBDPBD0@Z 0040c280 f   CppSQLite3.obj
 0001:0000b2f0       ?getBlobField@CppSQLite3Query@@QAEPBEHAAH@Z 0040c2f0 f   CppSQLite3.obj
 0001:0000b3b0       ?getBlobField@CppSQLite3Query@@QAEPBEPBDAAH@Z 0040c3b0 f   CppSQLite3.obj
 0001:0000b420       ?fieldIsNull@CppSQLite3Query@@QAE_NH@Z 0040c420 f   CppSQLite3.obj
 0001:0000b480       ?fieldIsNull@CppSQLite3Query@@QAE_NPBD@Z 0040c480 f   CppSQLite3.obj
 0001:0000b4f0       ?fieldIndex@CppSQLite3Query@@QAEHPBD@Z 0040c4f0 f   CppSQLite3.obj
 0001:0000b5d0       ?fieldName@CppSQLite3Query@@QAEPBDH@Z 0040c5d0 f   CppSQLite3.obj
 0001:0000b680       ?fieldDeclType@CppSQLite3Query@@QAEPBDH@Z 0040c680 f   CppSQLite3.obj
 0001:0000b730       ?fieldDataType@CppSQLite3Query@@QAEHH@Z 0040c730 f   CppSQLite3.obj
 0001:0000b7e0       ?eof@CppSQLite3Query@@QAE_NXZ 0040c7e0 f   CppSQLite3.obj
 0001:0000b830       ?nextRow@CppSQLite3Query@@QAEXXZ 0040c830 f   CppSQLite3.obj
 0001:0000b910       ?finalize@CppSQLite3Query@@QAEXXZ 0040c910 f   CppSQLite3.obj
 0001:0000b9d0       ?checkVM@CppSQLite3Query@@AAEXXZ 0040c9d0 f   CppSQLite3.obj
 0001:0000ba40       ??0CppSQLite3Table@@QAE@XZ 0040ca40 f   CppSQLite3.obj
 0001:0000bab0       ??_GCppSQLite3Table@@UAEPAXI@Z 0040cab0 f i CppSQLite3.obj
 0001:0000bab0       ??_ECppSQLite3Table@@UAEPAXI@Z 0040cab0 f i CppSQLite3.obj
 0001:0000bb20       ??0CppSQLite3Table@@QAE@ABV0@@Z 0040cb20 f   CppSQLite3.obj
 0001:0000bbb0       ??0CppSQLite3Table@@QAE@PAPADHH@Z 0040cbb0 f   CppSQLite3.obj
 0001:0000bc20       ??1CppSQLite3Table@@UAE@XZ 0040cc20 f   CppSQLite3.obj
 0001:0000bcc0       ??4CppSQLite3Table@@QAEAAV0@ABV0@@Z 0040ccc0 f   CppSQLite3.obj
 0001:0000bda0       ?finalize@CppSQLite3Table@@QAEXXZ 0040cda0 f   CppSQLite3.obj
 0001:0000be10       ?numFields@CppSQLite3Table@@QAEHXZ 0040ce10 f   CppSQLite3.obj
 0001:0000be60       ?numRows@CppSQLite3Table@@QAEHXZ 0040ce60 f   CppSQLite3.obj
 0001:0000beb0       ?fieldValue@CppSQLite3Table@@QAEPBDH@Z 0040ceb0 f   CppSQLite3.obj
 0001:0000bf70       ?fieldValue@CppSQLite3Table@@QAEPBDPBD@Z 0040cf70 f   CppSQLite3.obj
 0001:0000c070       ?getIntField@CppSQLite3Table@@QAEHHH@Z 0040d070 f   CppSQLite3.obj
 0001:0000c100       ?getIntField@CppSQLite3Table@@QAEHPBDH@Z 0040d100 f   CppSQLite3.obj
 0001:0000c190       ?getFloatField@CppSQLite3Table@@QAENHN@Z 0040d190 f   CppSQLite3.obj
 0001:0000c220       ?getFloatField@CppSQLite3Table@@QAENPBDN@Z 0040d220 f   CppSQLite3.obj
 0001:0000c2b0       ?getStringField@CppSQLite3Table@@QAEPBDHPBD@Z 0040d2b0 f   CppSQLite3.obj
 0001:0000c320       ?getStringField@CppSQLite3Table@@QAEPBDPBD0@Z 0040d320 f   CppSQLite3.obj
 0001:0000c390       ?fieldIsNull@CppSQLite3Table@@QAE_NH@Z 0040d390 f   CppSQLite3.obj
 0001:0000c3f0       ?fieldIsNull@CppSQLite3Table@@QAE_NPBD@Z 0040d3f0 f   CppSQLite3.obj
 0001:0000c450       ?fieldName@CppSQLite3Table@@QAEPBDH@Z 0040d450 f   CppSQLite3.obj
 0001:0000c4f0       ?setRow@CppSQLite3Table@@QAEXH@Z 0040d4f0 f   CppSQLite3.obj
 0001:0000c590       ?checkResults@CppSQLite3Table@@AAEXXZ 0040d590 f   CppSQLite3.obj
 0001:0000c600       ??0CppSQLite3Statement@@QAE@XZ 0040d600 f   CppSQLite3.obj
 0001:0000c660       ??_ECppSQLite3Statement@@UAEPAXI@Z 0040d660 f i CppSQLite3.obj
 0001:0000c660       ??_GCppSQLite3Statement@@UAEPAXI@Z 0040d660 f i CppSQLite3.obj
 0001:0000c6d0       ??0CppSQLite3Statement@@QAE@ABV0@@Z 0040d6d0 f   CppSQLite3.obj
 0001:0000c740       ??0CppSQLite3Statement@@QAE@PAUsqlite3@@PAUsqlite3_stmt@@@Z 0040d740 f   CppSQLite3.obj
 0001:0000c7a0       ??1CppSQLite3Statement@@UAE@XZ 0040d7a0 f   CppSQLite3.obj
 0001:0000c840       ??4CppSQLite3Statement@@QAEAAV0@ABV0@@Z 0040d840 f   CppSQLite3.obj
 0001:0000c8a0       ?execDML@CppSQLite3Statement@@QAEHXZ 0040d8a0 f   CppSQLite3.obj
 0001:0000c9f0       ?execQuery@CppSQLite3Statement@@QAE?AVCppSQLite3Query@@XZ 0040d9f0 f   CppSQLite3.obj
 0001:0000cb30       ?bind@CppSQLite3Statement@@QAEXHPBD@Z 0040db30 f   CppSQLite3.obj
 0001:0000cbd0       ?bind@CppSQLite3Statement@@QAEXHH@Z 0040dbd0 f   CppSQLite3.obj
 0001:0000cc70       ?bind@CppSQLite3Statement@@QAEXHN@Z 0040dc70 f   CppSQLite3.obj
 0001:0000cd10       ?bind@CppSQLite3Statement@@QAEXHPBEH@Z 0040dd10 f   CppSQLite3.obj
 0001:0000cdb0       ?bindNull@CppSQLite3Statement@@QAEXH@Z 0040ddb0 f   CppSQLite3.obj
 0001:0000ce50       ?reset@CppSQLite3Statement@@QAEXXZ 0040de50 f   CppSQLite3.obj
 0001:0000cf00       ?finalize@CppSQLite3Statement@@QAEXXZ 0040df00 f   CppSQLite3.obj
 0001:0000cfb0       ?checkDB@CppSQLite3Statement@@AAEXXZ 0040dfb0 f   CppSQLite3.obj
 0001:0000d020       ?checkVM@CppSQLite3Statement@@AAEXXZ 0040e020 f   CppSQLite3.obj
 0001:0000d090       ??0CppSQLite3DB@@QAE@XZ    0040e090 f   CppSQLite3.obj
 0001:0000d0f0       ??_ECppSQLite3DB@@UAEPAXI@Z 0040e0f0 f i CppSQLite3.obj
 0001:0000d0f0       ??_GCppSQLite3DB@@UAEPAXI@Z 0040e0f0 f i CppSQLite3.obj
 0001:0000d160       ??0CppSQLite3DB@@AAE@ABV0@@Z 0040e160 f   CppSQLite3.obj
 0001:0000d1c0       ??1CppSQLite3DB@@UAE@XZ    0040e1c0 f   CppSQLite3.obj
 0001:0000d210       ??4CppSQLite3DB@@AAEAAV0@ABV0@@Z 0040e210 f   CppSQLite3.obj
 0001:0000d260       ?open@CppSQLite3DB@@QAEXPBD@Z 0040e260 f   CppSQLite3.obj
 0001:0000d310       ?close@CppSQLite3DB@@QAEXXZ 0040e310 f   CppSQLite3.obj
 0001:0000d380       ?compileStatement@CppSQLite3DB@@QAE?AVCppSQLite3Statement@@PBD@Z 0040e380 f   CppSQLite3.obj
 0001:0000d410       ?tableExists@CppSQLite3DB@@QAE_NPBD@Z 0040e410 f   CppSQLite3.obj
 0001:0000d4b0       ?execDML@CppSQLite3DB@@QAEHPBD@Z 0040e4b0 f   CppSQLite3.obj
 0001:0000d570       ?execQuery@CppSQLite3DB@@QAE?AVCppSQLite3Query@@PBD@Z 0040e570 f   CppSQLite3.obj
 0001:0000d6a0       ?execScalar@CppSQLite3DB@@QAEHPBD@Z 0040e6a0 f   CppSQLite3.obj
 0001:0000d7b0       ?getTable@CppSQLite3DB@@QAE?AVCppSQLite3Table@@PBD@Z 0040e7b0 f   CppSQLite3.obj
 0001:0000d8b0       ?lastRowId@CppSQLite3DB@@QAE_JXZ 0040e8b0 f   CppSQLite3.obj
 0001:0000d900       ?setBusyTimeout@CppSQLite3DB@@QAEXH@Z 0040e900 f   CppSQLite3.obj
 0001:0000d970       ?checkDB@CppSQLite3DB@@AAEXXZ 0040e970 f   CppSQLite3.obj
 0001:0000d9e0       ?compile@CppSQLite3DB@@AAEPAUsqlite3_stmt@@PBD@Z 0040e9e0 f   CppSQLite3.obj
 0001:0000daa0       ?sqlite3_encode_binary@@YAHPBEHPAE@Z 0040eaa0 f   CppSQLite3.obj
 0001:0000dd50       ?sqlite3_decode_binary@@YAHPBEPAE@Z 0040ed50 f   CppSQLite3.obj
 0001:0000de50       _Storage_QueryInterface@12 0040ee50 f   CWebPage.obj
 0001:0000dee0       _Storage_AddRef@4          0040eee0 f   CWebPage.obj
 0001:0000df10       _Storage_Release@4         0040ef10 f   CWebPage.obj
 0001:0000df40       _Storage_CreateStream@24   0040ef40 f   CWebPage.obj
 0001:0000dfd0       _Storage_OpenStream@24     0040efd0 f   CWebPage.obj
 0001:0000e060       _Storage_CreateStorage@24  0040f060 f   CWebPage.obj
 0001:0000e0f0       _Storage_OpenStorage@28    0040f0f0 f   CWebPage.obj
 0001:0000e180       _Storage_CopyTo@20         0040f180 f   CWebPage.obj
 0001:0000e210       _Storage_MoveElementTo@20  0040f210 f   CWebPage.obj
 0001:0000e2a0       _Storage_Commit@8          0040f2a0 f   CWebPage.obj
 0001:0000e330       _Storage_Revert@4          0040f330 f   CWebPage.obj
 0001:0000e3c0       _Storage_EnumElements@20   0040f3c0 f   CWebPage.obj
 0001:0000e450       _Storage_DestroyElement@8  0040f450 f   CWebPage.obj
 0001:0000e4e0       _Storage_RenameElement@12  0040f4e0 f   CWebPage.obj
 0001:0000e570       _Storage_SetElementTimes@20 0040f570 f   CWebPage.obj
 0001:0000e600       _Storage_SetClass@8        0040f600 f   CWebPage.obj
 0001:0000e630       _Storage_SetStateBits@12   0040f630 f   CWebPage.obj
 0001:0000e6c0       _Storage_Stat@12           0040f6c0 f   CWebPage.obj
 0001:0000e750       _Site_QueryInterface@12    0040f750 f   CWebPage.obj
 0001:0000e810       _Site_AddRef@4             0040f810 f   CWebPage.obj
 0001:0000e840       _Site_Release@4            0040f840 f   CWebPage.obj
 0001:0000e870       _Site_SaveObject@4         0040f870 f   CWebPage.obj
 0001:0000e900       _Site_GetMoniker@16        0040f900 f   CWebPage.obj
 0001:0000e990       _Site_GetContainer@8       0040f990 f   CWebPage.obj
 0001:0000e9d0       _Site_ShowObject@4         0040f9d0 f   CWebPage.obj
 0001:0000ea00       _Site_OnShowWindow@8       0040fa00 f   CWebPage.obj
 0001:0000ea90       _Site_RequestNewObjectLayout@4 0040fa90 f   CWebPage.obj
 0001:0000eb20       _Site_GetWindow@8          0040fb20 f   CWebPage.obj
 0001:0000eb60       _Site_ContextSensitiveHelp@8 0040fb60 f   CWebPage.obj
 0001:0000ebf0       _Site_CanInPlaceActivate@4 0040fbf0 f   CWebPage.obj
 0001:0000ec20       _Site_OnInPlaceActivate@4  0040fc20 f   CWebPage.obj
 0001:0000ec50       _Site_OnUIActivate@4       0040fc50 f   CWebPage.obj
 0001:0000ec80       _Site_GetWindowContext@24  0040fc80 f   CWebPage.obj
 0001:0000ed50       _Site_Scroll@12            0040fd50 f   CWebPage.obj
 0001:0000ede0       _Site_OnUIDeactivate@8     0040fde0 f   CWebPage.obj
 0001:0000ee10       _Site_OnInPlaceDeactivate@4 0040fe10 f   CWebPage.obj
 0001:0000ee40       _Site_DiscardUndoState@4   0040fe40 f   CWebPage.obj
 0001:0000eed0       _Site_DeactivateAndUndo@4  0040fed0 f   CWebPage.obj
 0001:0000ef60       _Site_OnPosRectChange@8    0040ff60 f   CWebPage.obj
 0001:0000ef90       _Frame_QueryInterface@12   0040ff90 f   CWebPage.obj
 0001:0000f020       _Frame_AddRef@4            00410020 f   CWebPage.obj
 0001:0000f050       _Frame_Release@4           00410050 f   CWebPage.obj
 0001:0000f080       _Frame_GetWindow@8         00410080 f   CWebPage.obj
 0001:0000f0c0       _Frame_ContextSensitiveHelp@8 004100c0 f   CWebPage.obj
 0001:0000f150       _Frame_GetBorder@8         00410150 f   CWebPage.obj
 0001:0000f1e0       _Frame_RequestBorderSpace@8 004101e0 f   CWebPage.obj
 0001:0000f270       _Frame_SetBorderSpace@8    00410270 f   CWebPage.obj
 0001:0000f300       _Frame_SetActiveObject@12  00410300 f   CWebPage.obj
 0001:0000f330       _Frame_InsertMenus@12      00410330 f   CWebPage.obj
 0001:0000f3c0       _Frame_SetMenu@16          004103c0 f   CWebPage.obj
 0001:0000f3f0       _Frame_RemoveMenus@8       004103f0 f   CWebPage.obj
 0001:0000f480       _Frame_SetStatusText@8     00410480 f   CWebPage.obj
 0001:0000f4b0       _Frame_EnableModeless@8    004104b0 f   CWebPage.obj
 0001:0000f4e0       _Frame_TranslateAccelerator@12 004104e0 f   CWebPage.obj
 0001:0000f570       _UnEmbedBrowserObject      00410570 f   CWebPage.obj
 0001:0000f670       _DisplayHTMLStr            00410670 f   CWebPage.obj
 0001:0000f8f0       _DisplayHTMLPage           004108f0 f   CWebPage.obj
 0001:0000fa50       _EmbedBrowserObject        00410a50 f   CWebPage.obj
 0001:0000fd00       _SetBrowserRect            00410d00 f   CWebPage.obj
 0001:0000fec0       ??0DBClass@@QAE@XZ         00410ec0 f   DBClass.obj
 0001:00010070       ?errorMessage@CppSQLite3Exception@@QAEPBDXZ 00411070 f i DBClass.obj
 0001:000100b0       ??_GDBClass@@UAEPAXI@Z     004110b0 f i DBClass.obj
 0001:000100b0       ??_EDBClass@@UAEPAXI@Z     004110b0 f i DBClass.obj
 0001:00010120       ??1DBClass@@UAE@XZ         00411120 f   DBClass.obj
 0001:000101c0       ?CreateARTable@DBClass@@QAEHXZ 004111c0 f   DBClass.obj
 0001:000102b0       ?CreateHMTable@DBClass@@QAEHXZ 004112b0 f   DBClass.obj
 0001:000103a0       ?CreateBKHKTable@DBClass@@QAEHXZ 004113a0 f   DBClass.obj
 0001:00010490       ?CreateSizePosTable@DBClass@@QAEHXZ 00411490 f   DBClass.obj
 0001:000105c0       ?CreateIconTitleTable@DBClass@@QAEHXZ 004115c0 f   DBClass.obj
 0001:000106b0       ?CreateAutoHideTable@DBClass@@QAEHXZ 004116b0 f   DBClass.obj
 0001:000107a0       ?AddAutoHideItem@DBClass@@QAEHPAUAutoHideItem@@@Z 004117a0 f   DBClass.obj
 0001:00010800       ?InsertAutoHideItem@DBClass@@QAEHPAUAutoHideItem@@@Z 00411800 f   DBClass.obj
 0001:00010b20       ?DelAutoHideItem@DBClass@@QAEHPAUAutoHideItem@@@Z 00411b20 f   DBClass.obj
 0001:00010c70       ?InsertARItem@DBClass@@QAEHPAUsFileItem@@@Z 00411c70 f   DBClass.obj
 0001:00010e60       ?InsertSizePosItem@DBClass@@QAEHPAUSizePosItem@@@Z 00411e60 f   DBClass.obj
 0001:00011030       ?InsertIconTitleItem@DBClass@@QAEHPAUIconTitleItem@@H@Z 00412030 f   DBClass.obj
 0001:000114e0       ?UpdateSizePosItem@DBClass@@QAEHPAUSizePosItem@@@Z 004124e0 f   DBClass.obj
 0001:000116b0       ?SaveSizePos@DBClass@@QAEHPAUSizePosItem@@@Z 004126b0 f   DBClass.obj
 0001:00011710       ?SaveChangedIconTitle@DBClass@@QAEHPAUIconTitleItem@@H@Z 00412710 f   DBClass.obj
 0001:00011770       ?InsertHMItem@DBClass@@QAEHPAUsHMF_Item@@@Z 00412770 f   DBClass.obj
 0001:00011970       ?InsertBKHKItem@DBClass@@QAEHPAUsBKWHotkey@@@Z 00412970 f   DBClass.obj
 0001:00011f70       ?IsInARFL@DBClass@@QAEHPAUsFileItem@@@Z 00412f70 f   DBClass.obj
 0001:000121a0       ?IsInHM@DBClass@@QAEHPAUsHMF_Item@@@Z 004131a0 f   DBClass.obj
 0001:000123d0       ?IsInBKHK@DBClass@@QAEHPAUsBKWHotkey@@@Z 004133d0 f   DBClass.obj
 0001:00012600       ?DelARItem@DBClass@@QAEHPAUsFileItem@@@Z 00413600 f   DBClass.obj
 0001:000127e0       ?DeleteIconTitleItem@DBClass@@QAEHPAUIconTitleItem@@H@Z 004137e0 f   DBClass.obj
 0001:00012c70       ?DelHMItem@DBClass@@QAEHPAUsHMF_Item@@@Z 00413c70 f   DBClass.obj
 0001:00012e50       ?DelBKHKItem@DBClass@@QAEHPAUsBKWHotkey@@@Z 00413e50 f   DBClass.obj
 0001:00013030       ?AddHMTime@DBClass@@QAEHPAUsHMF_Item@@@Z 00414030 f   DBClass.obj
 0001:000133a0       ?ReadHK@DBClass@@QAEHPAUsBKWHotkey@@@Z 004143a0 f   DBClass.obj
 0001:000137b0       ?ReadSizePos@DBClass@@QAEHPAUSizePosItem@@@Z 004147b0 f   DBClass.obj
 0001:00013a10       ?ReadIconTitleItem@DBClass@@QAEHPAUIconTitleItem@@PAH@Z 00414a10 f   DBClass.obj
 0001:00013dc0       ?ReadAHItem@DBClass@@QAEHPAUAutoHideItem@@PAHP6AH0@Z@Z 00414dc0 f   DBClass.obj
 0001:00014060       ??_Estringdispid@CComTypeInfoHolder@ATL@@QAEPAXI@Z 00415060 f i hd.obj
 0001:00014120       ??1stringdispid@CComTypeInfoHolder@ATL@@QAE@XZ 00415120 f i hd.obj
 0001:00014170       ??1CComBSTR@ATL@@QAE@XZ    00415170 f i hd.obj
 0001:000141d0       ?ReadVersionInfoFile@@YAHPAUVersionInfo@@@Z 004151d0 f   hd.obj
 0001:00014500       _WinMain@16                00415500 f   hd.obj
 0001:000155a0       ?wcschr@@YAPAGPAGG@Z       004165a0 f i hd.obj
 0001:00015600       ?MainProc1@@YGHPAUHWND__@@IIJ@Z 00416600 f   hd.obj
 0001:0001d800       ?AboutProc@@YGHPAUHWND__@@IIJ@Z 0041e800 f   hd.obj
 0001:0001e730       ?FillList@@YAHXZ           0041f730 f   hd.obj
 0001:0001eed0       ?EnumWindowsProc@@YGHPAUHWND__@@J@Z 0041fed0 f   hd.obj
 0001:00021980       ?GetHideProcessName@@YAHKPAG@Z 00422980 f   hd.obj
 0001:000219e0       ?IsInListView@@YAHKPAG@Z   004229e0 f   hd.obj
 0001:00021c70       ?IsEuqalExe@@YAHPAUHWND__@@PAGH@Z 00422c70 f   hd.obj
 0001:00021d30       ?DeleteAll@@YAHXZ          00422d30 f   hd.obj
 0001:00021dd0       ?HotKeyProc@@YGHPAUHWND__@@IIJ@Z 00422dd0 f   hd.obj
 0001:000231c0       ?TimerProc@@YGXPAUHWND__@@IIK@Z 004241c0 f   hd.obj
 0001:00023380       ?SetTipTextProc@@YGXPAUHWND__@@IIK@Z 00424380 f   hd.obj
 0001:00023420       ?CreateOptionProps@@YAHXZ  00424420 f   hd.obj
 0001:00023f80       ?OtherProc@@YGHPAUHWND__@@IIJ@Z 00424f80 f   hd.obj
 0001:00025350       ?BKProc@@YGHPAUHWND__@@IIJ@Z 00426350 f   hd.obj
 0001:000255b0       ?CreateAboutProps@@YAHXZ   004265b0 f   hd.obj
 0001:00025bc0       ?ReadMeProc@@YGHPAUHWND__@@IIJ@Z 00426bc0 f   hd.obj
 0001:00025f50       ?HistoryProc@@YGHPAUHWND__@@IIJ@Z 00426f50 f   hd.obj
 0001:00026230       ?EditStreamCallback@@YGKKPAEJPAJ@Z 00427230 f   hd.obj
 0001:000262a0       ?GetMsgProc@@YGJHIJ@Z      004272a0 f   hd.obj
 0001:00026410       ?WriteOptionFile@@YAHUOptionFile@@@Z 00427410 f   hd.obj
 0001:00026b00       ?ReadOptionFile@@YAHPAUOptionFile@@@Z 00427b00 f   hd.obj
 0001:000272b0       ?WriteRegThread@@YGKPAX@Z  004282b0 f   hd.obj
 0001:00027910       ?NetworkThread@@YGKPAX@Z   00428910 f   hd.obj
 0001:00027a20       ?GetFileFromServer@@YAHPAD@Z 00428a20 f   hd.obj
 0001:00028b90       ?wcsrchr@@YAPAGPAGG@Z      00429b90 f i hd.obj
 0001:00028bf0       ?HD_Connect@@YAHIPADH@Z    00429bf0 f   hd.obj
 0001:00028ce0       ?HD_FormatRequestHeader@@YAHPAD0PAJ0@Z 00429ce0 f   hd.obj
 0001:00028e70       ?HD_SendRequest@@YAHIPAD@Z 00429e70 f   hd.obj
 0001:00028f10       ?HD_RecvResponseHeader@@YAHIPADPAJ@Z 00429f10 f   hd.obj
 0001:000290a0       ?HD_GetHeaderField@@YAHPAD00@Z 0042a0a0 f   hd.obj
 0001:000291a0       ?HD_GetState@@YAHPAD@Z     0042a1a0 f   hd.obj
 0001:00029240       ?RegisterProc@@YGHPAUHWND__@@IIJ@Z 0042a240 f   hd.obj
 0001:0002aad0       ?ScanWebProc@@YGXPAUHWND__@@IIK@Z 0042bad0 f   hd.obj
 0001:0002ab90       ?GarbageRecycle@@YAHXZ     0042bb90 f   hd.obj
 0001:0002afd0       ?HD_GarbageRecycle@@YAHXZ  0042bfd0 f   hd.obj
 0001:0002b1c0       ?PasswordProc@@YGHPAUHWND__@@IIJ@Z 0042c1c0 f   hd.obj
 0001:0002bb00       ?FindTrayToolbarWindow@@YAPAUHWND__@@XZ 0042cb00 f   hd.obj
 0001:0002bc00       ?IsHaveTrayIcon@@YAHPAUWndAndHandle@@PAUTRAYDATA@@@Z 0042cc00 f   hd.obj
 0001:0002c1f0       ?OpenBKWizard@@YAHXZ       0042d1f0 f   hd.obj
 0001:0002c5f0       ?SelWndIconProc@@YGHPAUHWND__@@IIJ@Z 0042d5f0 f   hd.obj
 0001:0002d0b0       ?FinishProc@@YGHPAUHWND__@@IIJ@Z 0042e0b0 f   hd.obj
 0001:0002d8c0       ?BeginBKProc@@YGHPAUHWND__@@IIJ@Z 0042e8c0 f   hd.obj
 0001:0002dd00       ?AddSelListHeader@@YAHXZ   0042ed00 f   hd.obj
 0001:0002dfd0       ?UpdateSelList@@YAHXZ      0042efd0 f   hd.obj
 0001:0002f370       ?AllocResourceForTrayList@@YAHXZ 00430370 f   hd.obj
 0001:0002f4e0       ?ReleaseResourceForTrayList@@YAHXZ 004304e0 f   hd.obj
 0001:0002f600       ?EnumAllVisibleTray@@YAHXZ 00430600 f   hd.obj
 0001:0002fe70       ?HideAllTray@@YAHXZ        00430e70 f   hd.obj
 0001:00030020       ?ShowAllTray@@YAHXZ        00431020 f   hd.obj
 0001:000302d0       ?EnumWindowsForBKProc@@YGHPAUHWND__@@J@Z 004312d0 f   hd.obj
 0001:00030bc0       ?AddConfirmListHeader@@YAHXZ 00431bc0 f   hd.obj
 0001:00030e90       ?UpdateConfirmList@@YAHXZ  00431e90 f   hd.obj
 0001:00031130       ?IsProcessItem@@YAHPAUWndAndHandle@@@Z 00432130 f   hd.obj
 0001:00031190       ?HideSelected@@YAHPAPAUWndAndHandle@@H@Z 00432190 f   hd.obj
 0001:00032060       ?ShowSelected@@YAHPAUWndAndHandle@@H@Z 00433060 f   hd.obj
 0001:000325a0       ?AddBKListHeader@@YAHXZ    004335a0 f   hd.obj
 0001:000329e0       ?RestoreAllBK@@YAHH@Z      004339e0 f   hd.obj
 0001:00032be0       ?QuickHideProc@@YGHPAUHWND__@@IIJ@Z 00433be0 f   hd.obj
 0001:00033fd0       ?MouseMotionProc@@YGHPAUHWND__@@IIJ@Z 00434fd0 f   hd.obj
 0001:00034020       ?AutoUpdateProc@@YGHPAUHWND__@@IIJ@Z 00435020 f   hd.obj
 0001:00034340       ?MultiLanguageProc@@YGHPAUHWND__@@IIJ@Z 00435340 f   hd.obj
 0001:00034390       ?RefreshThread@@YGIPAX@Z   00435390 f   hd.obj
 0001:00034440       ?ShowWindowNormal@@YAHPAUHWND__@@@Z 00435440 f   hd.obj
 0001:00034520       ?ExtendWindow@@YAHXZ       00435520 f   hd.obj
 0001:00034610       ?ModifyAutoReserveMenu@@YAHPAUHMENU__@@H@Z 00435610 f   hd.obj
 0001:00034c90       ?IsRegister@@YAHXZ         00435c90 f   hd.obj
 0001:00035060       ?WriteRegCode@@YAHXZ       00436060 f   hd.obj
 0001:00035150       ?FillNotExistWnd@@YAHH@Z   00436150 f   hd.obj
 0001:00035420       ?begin@?$list@PAUsBKWHotkey@@V?$allocator@PAUsBKWHotkey@@@std@@@std@@QAE?AViterator@12@XZ 00436420 f i hd.obj
 0001:00035480       ?end@?$list@PAUsBKWHotkey@@V?$allocator@PAUsBKWHotkey@@@std@@@std@@QAE?AViterator@12@XZ 00436480 f i hd.obj
 0001:000354e0       ??0iterator@?$list@PAUsBKWHotkey@@V?$allocator@PAUsBKWHotkey@@@std@@@std@@QAE@XZ 004364e0 f i hd.obj
 0001:00035530       ??Diterator@?$list@PAUsBKWHotkey@@V?$allocator@PAUsBKWHotkey@@@std@@@std@@QBEAAPAUsBKWHotkey@@XZ 00436530 f i hd.obj
 0001:00035580       ??Eiterator@?$list@PAUsBKWHotkey@@V?$allocator@PAUsBKWHotkey@@@std@@@std@@QAE?AV012@H@Z 00436580 f i hd.obj
 0001:000355e0       ??9iterator@?$list@PAUsBKWHotkey@@V?$allocator@PAUsBKWHotkey@@@std@@@std@@QBE_NABV012@@Z 004365e0 f i hd.obj
 0001:00035640       ??0?$CProcessData@U_TBBUTTON@@@@QAE@KKKK@Z 00436640 f i hd.obj
 0001:00035710       ??1?$CProcessData@U_TBBUTTON@@@@QAE@XZ 00436710 f i hd.obj
 0001:000357c0       ?ReadData@?$CProcessData@U_TBBUTTON@@@@QAEHPAU_TBBUTTON@@@Z 004367c0 f i hd.obj
 0001:00035860       ?ReadData@?$CProcessData@U_TBBUTTON@@@@QAEHPAUTRAYDATA@@PAX@Z 00436860 f i hd.obj
 0001:000358f0       ?ReadData_Tip@?$CProcessData@U_TBBUTTON@@@@QAEHPAGPAX@Z 004368f0 f i hd.obj
 0001:00035980       ?GetData@?$CProcessData@U_TBBUTTON@@@@QAEPBU_TBBUTTON@@XZ 00436980 f i hd.obj
 0001:000359e0       ?_Next@_Acc@?$list@PAUsBKWHotkey@@V?$allocator@PAUsBKWHotkey@@@std@@@std@@SAAAPAU_Node@23@PAU423@@Z 004369e0 f i hd.obj
 0001:00035a10       ?_Value@_Acc@?$list@PAUsBKWHotkey@@V?$allocator@PAUsBKWHotkey@@@std@@@std@@SAAAPAUsBKWHotkey@@PAU_Node@23@@Z 00436a10 f i hd.obj
 0001:00035a40       ??0const_iterator@?$list@PAUsBKWHotkey@@V?$allocator@PAUsBKWHotkey@@@std@@@std@@QAE@XZ 00436a40 f i hd.obj
 0001:00035a70       ??0iterator@?$list@PAUsBKWHotkey@@V?$allocator@PAUsBKWHotkey@@@std@@@std@@QAE@PAU_Node@12@@Z 00436a70 f i hd.obj
 0001:00035ac0       ??Eiterator@?$list@PAUsBKWHotkey@@V?$allocator@PAUsBKWHotkey@@@std@@@std@@QAEAAV012@XZ 00436ac0 f i hd.obj
 0001:00035b20       ??8iterator@?$list@PAUsBKWHotkey@@V?$allocator@PAUsBKWHotkey@@@std@@@std@@QBE_NABV012@@Z 00436b20 f i hd.obj
 0001:00035b70       ??0const_iterator@?$list@PAUsBKWHotkey@@V?$allocator@PAUsBKWHotkey@@@std@@@std@@QAE@PAU_Node@12@@Z 00436b70 f i hd.obj
 0001:00035f10       ?ShowBackTipDialog@@YAHXZ  00436f10 f   hd2.obj
 0001:00035f80       ?CloseBKTipDialog@@YAHXZ   00436f80 f   hd2.obj
 0001:00036010       ?BackTipDialog@@YGHPAUHWND__@@IIJ@Z 00437010 f   hd2.obj
 0001:00036290       ?DrawTitleBar@@YAHPAUHDC__@@@Z 00437290 f   hd2.obj
 0001:00036a80       ?DrawExpandBtn@@YAHPAUtagDRAWITEMSTRUCT@@@Z 00437a80 f   hd2.obj
 0001:00036cf0       ?OnNCMouseMove@@YAHPAUHDC__@@J@Z 00437cf0 f   hd2.obj
 0001:000370a0       ?OnNCLBDown@@YAHPAUHDC__@@J@Z 004380a0 f   hd2.obj
 0001:000373c0       ?OnNCLBUp@@YAHPAUHDC__@@J@Z 004383c0 f   hd2.obj
 0001:000373f0       ?CreateAutoReserveFile@@YAHXZ 004383f0 f   hd2.obj
 0001:000375b0       ?AddARFL@@YAHPAUsFileItem@@@Z 004385b0 f   hd2.obj
 0001:00037960       ?IsInARFL@@YAHPAUsFileItem@@@Z 00438960 f   hd2.obj
 0001:00037e40       ?DelItem@@YAHPAUsFileItem@@@Z 00438e40 f   hd2.obj
 0001:00038480       ?HMF_Create@@YAHXZ         00439480 f   hd2.obj
 0001:00038640       ?HMF_Modify@@YAHPAUsHMF_Item@@G@Z 00439640 f   hd2.obj
 0001:000391c0       ?IsUseSkin@@YAHXZ          0043a1c0 f   hd2.obj
 0001:00039210       ?ChangeWindowStyle@@YAHPAUHWND__@@H@Z 0043a210 f   hd2.obj
 0001:000392c0       ?GetSysLangLoadLang@@YAHXZ 0043a2c0 f   hd2.obj
 0001:00039330       ?SetCurrentLanguage@@YAHXZ 0043a330 f   hd2.obj
 0001:00039740       ?LoadLanguage@@YAHPAG0@Z   0043a740 f   hd2.obj
 0001:00039c80       ?SetDialogTextW@@YAHPAPAUHWND__@@I@Z 0043ac80 f   hd2.obj
 0001:00039f40       ?EnumDlgChildProcW@@YGHPAUHWND__@@J@Z 0043af40 f   hd2.obj
 0001:0003a2e0       ?LoadItemStringW@@YAPAGPAG00@Z 0043b2e0 f   hd2.obj
 0001:0003a460       ?SetMenuString@@YAHXZ      0043b460 f   hd2.obj
 0001:0003bbb0       ?SetDlgItemStringW@@YAHPAUHWND__@@II@Z 0043cbb0 f   hd2.obj
 0001:0003be20       ?MakeLanguageMenu@@YAHXZ   0043ce20 f   hd2.obj
 0001:0003c480       ?HDMessageBoxW@@YAHPAG0PAUHWND__@@I@Z 0043d480 f   hd2.obj
 0001:0003c5c0       ?LoadLanguageBaseID@@YAHG@Z 0043d5c0 f   hd2.obj
 0001:0003cc00       ?UpdateLanguagePack@@YAHXZ 0043dc00 f   hd2.obj
 0001:0003ccb0       ?UpdateLangPack@@YGIPAX@Z  0043dcb0 f   hd2.obj
 0001:0003d9e0       ?AutoUpdateThreadProc@@YGIPAX@Z 0043e9e0 f   hd2.obj
 0001:0003e0d0       ?rarCallback@@YGHIJJJ@Z    0043f0d0 f   hd2.obj
 0001:0003e120       ?IsHaveUpdatedFile@@YAHXZ  0043f120 f   hd2.obj
 0001:0003e360       ?IsHaveTempDirectory@@YAHXZ 0043f360 f   hd2.obj
 0001:0003e960       ?SetWindowTransparent@@YAHPAUHWND__@@H@Z 0043f960 f   hd2.obj
 0001:0003ebd0       ?SetTipText@@YAHPAG0@Z     0043fbd0 f   hd2.obj
 0001:0003ec80       ?ClearTipTextArray@@YAHXZ  0043fc80 f   hd2.obj
 0001:0003ed90       ?AppendTipText@@YAHPAG0@Z  0043fd90 f   hd2.obj
 0001:0003ef30       ?GetFunctionPointer@@YAHXZ 0043ff30 f   hd2.obj
 0001:0003efe0       ?BKCurrentWindow@@YAHH@Z   0043ffe0 f   hd2.obj
 0001:0003f180       ?Switch2BKTab@@YAHXZ       00440180 f   hd2.obj
 0001:0003f1f0       ?ConstructBKSW@@YAHPAG0PAUHWND__@@@Z 004401f0 f   hd2.obj
 0001:0003fc30       ?SetBkWndHotkey@@YAHH@Z    00440c30 f   hd2.obj
 0001:00040130       ?BkWndHotkeyProc@@YGHPAUHWND__@@IIJ@Z 00441130 f   hd2.obj
 0001:00040dd0       ?UnRegisterHK@@YAHHPAUWndAndHandle@@@Z 00441dd0 f   hd2.obj
 0001:000414d0       ?BKRegistered@@YAHPAUsBKWHotkey@@@Z 004424d0 f   hd2.obj
 0001:000418a0       ?ChangeWindowIcon@@YAHHPAG@Z 004428a0 f   hd2.obj
 0001:000438f0       ??0sIconTitle@@QAE@XZ      004448f0 f i hd2.obj
 0001:00043940       ??_GsIconTitle@@QAEPAXI@Z  00444940 f i hd2.obj
 0001:000439b0       ??1sIconTitle@@QAE@XZ      004449b0 f i hd2.obj
 0001:00043a00       ?ChangeWndTitle@@YAHHPAG@Z 00444a00 f   hd2.obj
 0001:00044230       ?ChangeTitle@@YAHPAGPAUsIconTitle@@@Z 00445230 f   hd2.obj
 0001:00044840       ?ChangeWndTitleProc@@YGHPAUHWND__@@IIJ@Z 00445840 f   hd2.obj
 0001:00045820       ?CheckTitleIconTimer@@YGXPAUHWND__@@IIK@Z 00446820 f   hd2.obj
 0001:00045ac0       ?RestoreTitle@@YAHHH@Z     00446ac0 f   hd2.obj
 0001:00046260       ?RestoreIcon@@YAHHKH@Z     00447260 f   hd2.obj
 0001:00046b30       ?Save2AutoHideList@@YAHH@Z 00447b30 f   hd2.obj
 0001:00046f00       ?SetWindowToTop@@YAHH@Z    00447f00 f   hd2.obj
 0001:00047110       ?Insert2AutoHideList@@YAHPAUAutoHideItem@@@Z 00448110 f   hd2.obj
 0001:00047360       ?ShowPropertyDialog@@YAHH@Z 00448360 f   hd2.obj
 0001:00048930       ??0sProperty@@QAE@XZ       00449930 f i hd2.obj
 0001:00048980       ??_GsProperty@@QAEPAXI@Z   00449980 f i hd2.obj
 0001:000489f0       ??1sProperty@@QAE@XZ       004499f0 f i hd2.obj
 0001:00048a40       ?PropertyProc@@YGHPAUHWND__@@IIJ@Z 00449a40 f   hd2.obj
 0001:00048b20       ?DelBKHotKeyNode@@YAHXZ    00449b20 f   hd2.obj
 0001:00049000       ?IsInRegBKHK@@YAHPAUWndAndHandle@@@Z 0044a000 f   hd2.obj
 0001:000490f0       ?IsInBKList@@YAHPAG@Z      0044a0f0 f   hd2.obj
 0001:00049260       ?DelTitleNode@@YAHXZ       0044a260 f   hd2.obj
 0001:000497c0       ?DelIconNode@@YAHXZ        0044a7c0 f   hd2.obj
 0001:00049d10       ?IsInITList@@YAHPAG@Z      0044ad10 f   hd2.obj
 0001:00049e60       ?FillTitleHandleColumn@@YAHPAUHWND__@@@Z 0044ae60 f   hd2.obj
 0001:0004a140       ?CreatePropertyDialog@@YAHPAUsProperty@@@Z 0044b140 f   hd2.obj
 0001:0004a5c0       ?GeneralPageProc@@YGHPAUHWND__@@IIJ@Z 0044b5c0 f   hd2.obj
 0001:0004ac00       ?AddtionalPageProc@@YGHPAUHWND__@@IIJ@Z 0044bc00 f   hd2.obj
 0001:0004b380       ?SaveWindowInfo@@YAHPAUWndAndHandle@@H@Z 0044c380 f   hd2.obj
 0001:0004b970       ?ReadWndInfo@@YAHPAUWndAndHandle@@PAH@Z 0044c970 f   hd2.obj
 0001:0004bee0       ?ResumeTipProc@@YGHPAUHWND__@@IIJ@Z 0044cee0 f   hd2.obj
 0001:0004c090       ?FillColumn@@YAHPAUHWND__@@@Z 0044d090 f   hd2.obj
 0001:0004c150       ?FillRow@@YAHPAUHWND__@@PAUWndAndHandle@@@Z 0044d150 f   hd2.obj
 0001:0004c270       ?TakeToBk@@YAHPAUWndAndHandle@@@Z 0044d270 f   hd2.obj
 0001:0004c6c0       ?BKHided@@YAHXZ            0044d6c0 f   hd2.obj
 0001:0004c7e0       ?SetWindowListViewColumn@@YAHPAUHWND__@@@Z 0044d7e0 f   hd2.obj
 0001:0004cb80       ?SetBKListColumn@@YAHPAUHWND__@@@Z 0044db80 f   hd2.obj
 0001:0004cf30       ?SetTrayListColumn@@YAHPAUHWND__@@@Z 0044df30 f   hd2.obj
 0001:0004d2e0       ?SetIPListColumn@@YAHPAUHWND__@@@Z 0044e2e0 f   hd2.obj
 0001:0004d380       ?SetProcessListColumn@@YAHPAUHWND__@@@Z 0044e380 f   hd2.obj
 0001:0004d630       ?ResetPriTree@@YAHXZ       0044e630 f   hd2.obj
 0001:0004d6d0       ?TipIfExit@@YAHXZ          0044e6d0 f   hd2.obj
 0001:0004d750       ?Compatible25@@YAHXZ       0044e750 f   hd2.obj
 0001:0004d7e0       ?DeleteDir@@YAHPAG@Z       0044e7e0 f   hd2.obj
 0001:0004d890       ?RestoreAllIconTitle@@YAHXZ 0044e890 f   hd2.obj
 0001:0004d950       ?GetCurrentDirectory_HD@@YAHHPAG@Z 0044e950 f   hd2.obj
 0001:0004d9e0       ?RegisterBKHotkey@@YAHPAUWndAndHandle@@@Z 0044e9e0 f   hd2.obj
 0001:0004ddb0       ?GetProcessTrayIcon@@YAHKPAU_TBBUTTON@@PAUTRAYDATA@@@Z 0044edb0 f   hd2.obj
 0001:0004e010       ?DelInvalidTrayIcon@@YAHXZ 0044f010 f   hd2.obj
 0001:0004e040       ?FindTaskbarWnd@@YAPAUHWND__@@XZ 0044f040 f   hd2.obj
 0001:0004e130       ?IsInSW@@YAHPAUHWND__@@@Z  0044f130 f   hd2.obj
 0001:0004e1d0       ?IsInBKSW@@YAHPAUHWND__@@@Z 0044f1d0 f   hd2.obj
 0001:0004e250       ?AppendSW@@YAHPAUHWND__@@@Z 0044f250 f   hd2.obj
 0001:0004e460       ?GetProcessName@@YAHKPAG@Z 0044f460 f   hd2.obj
 0001:0004e640       ?DoCreateTabControl@@YGPAUHWND__@@PAU1@@Z 0044f640 f   hd2.obj
 0001:0004eab0       ?SetTabLanguage@@YAHXZ     0044fab0 f   hd2.obj
 0001:0004ed00       ?DoCreateDisplayWindow@@YGPAUHWND__@@PAU1@@Z 0044fd00 f   hd2.obj
 0001:0004ed90       ?OnTabSelChange@@YAHH@Z    0044fd90 f   hd2.obj
 0001:0004ef10       ?ShowAllWndPage@@YAHXZ     0044ff10 f   hd2.obj
 0001:0004f030       ?ShowWebPage@@YAHXZ        00450030 f   hd2.obj
 0001:0004f1a0       ?ShowTrayPage@@YAHXZ       004501a0 f   hd2.obj
 0001:0004f2c0       ?ShowBKPage@@YAHXZ         004502c0 f   hd2.obj
 0001:0004f3e0       ?ShowProcessPage@@YAHXZ    004503e0 f   hd2.obj
 0001:0004f500       ?ShowCleanPage@@YAHXZ      00450500 f   hd2.obj
 0001:0004f640       ?ShowHideIPPage@@YAHXZ     00450640 f   hd2.obj
 0001:0004f790       ?ShowAutoHidePage@@YAHXZ   00450790 f   hd2.obj
 0001:0004f8b0       ?HideOtherPage@@YAHH@Z     004508b0 f   hd2.obj
 0001:0004fa50       ?AllWndPageProc@@YGHPAUHWND__@@IIJ@Z 00450a50 f   hd2.obj
 0001:000506d0       ?WebPageProc@@YGHPAUHWND__@@IIJ@Z 004516d0 f   hd2.obj
 0001:00050b80       ?TrayPageProc@@YGHPAUHWND__@@IIJ@Z 00451b80 f   hd2.obj
 0001:00051240       ?AddTrayListHeader@@YAHXZ  00452240 f   hd2.obj
 0001:00051670       ?FillTrayList@@YAHXZ       00452670 f   hd2.obj
 0001:00051960       ?FillAutoHideList@@YAHXZ   00452960 f   hd2.obj
 0001:00051ae0       ?AddTrayAutoHide@@YAHXZ    00452ae0 f   hd2.obj
 0001:00051e40       ?BKTrayIcon@@YAHXZ         00452e40 f   hd2.obj
 0001:00051f90       ?CleanHistory@@YAHXZ       00452f90 f   hd2.obj
 0001:00052000       ?AddProcessListColumn@@YAHXZ 00453000 f   hd2.obj
 0001:000522c0       ?AllocMemForProcessList@@YAHXZ 004532c0 f   hd2.obj
 0001:000523f0       ?FillProcessList@@YAHXZ    004533f0 f   hd2.obj
 0001:00052880       ?ProcessPageProc@@YGHPAUHWND__@@IIJ@Z 00453880 f   hd2.obj
 0001:00053130       ?HideIPPageProc@@YGHPAUHWND__@@IIJ@Z 00454130 f   hd2.obj
 0001:000531c0       ?AddAutoHideListHeader@@YAHXZ 004541c0 f   hd2.obj
 0001:00053680       ?AutoHideProc@@YGHPAUHWND__@@IIJ@Z 00454680 f   hd2.obj
 0001:00053ab0       ?BKPageProc@@YGHPAUHWND__@@IIJ@Z 00454ab0 f   hd2.obj
 0001:00054220       ?CreateInfoPanel@@YAHXZ    00455220 f   hd2.obj
 0001:00054320       ?InfoPanelProc@@YGHPAUHWND__@@IIJ@Z 00455320 f   hd2.obj
 0001:000544b0       ?ExpendInfoPanel@@YAHH@Z   004554b0 f   hd2.obj
 0001:00054a30       ?ResizeInfoPanel@@YAHXZ    00455a30 f   hd2.obj
 0001:00054ee0       ?ResizeTabWnd@@YAHXZ       00455ee0 f   hd2.obj
 0001:000554c0       ?InitTab@@YAHXZ            004564c0 f   hd2.obj
 0001:00055670       ?DoCreateStatusBar@@YAPAUHWND__@@XZ 00456670 f   hd2.obj
 0001:00055820       ?SetStatusLanguage@@YAHXZ  00456820 f   hd2.obj
 0001:00055970       ?SavePosSize@@YAHXZ        00456970 f   hd2.obj
 0001:00055a80       ?SetWindowSizePos@@YAHXZ   00456a80 f   hd2.obj
 0001:00055cb0       ?ChangeMenuState@@YAHH@Z   00456cb0 f   hd2.obj
 0001:00056190       ?CreateAutoChangeThread@@YAHXZ 00457190 f   hd2.obj
 0001:00056230       ?CreateAutoHideThread@@YAHXZ 00457230 f   hd2.obj
 0001:00056550       ?AllocProcessList@@YAHXZ   00457550 f   hd2.obj
 0001:00056750       ?ResetPorcessList@@YAHAAV?$list@PAUNewProcessInfo@@V?$allocator@PAUNewProcessInfo@@@std@@@std@@@Z 00457750 f   hd2.obj
 0001:00056820       ?FreeProcessList@@YAHAAV?$list@PAUNewProcessInfo@@V?$allocator@PAUNewProcessInfo@@@std@@@std@@@Z 00457820 f   hd2.obj
 0001:00056930       ?GetNewProcessName@@YAHAAV?$list@PAUNewProcessInfo@@V?$allocator@PAUNewProcessInfo@@@std@@@std@@@Z 00457930 f   hd2.obj
 0001:00056aa0       ?Add2NewProcessList@@YAHPAUNewProcessInfo@@@Z 00457aa0 f   hd2.obj
 0001:00056b90       ?GetProcessList@@YAHAAV?$list@PAUNewProcessInfo@@V?$allocator@PAUNewProcessInfo@@@std@@@std@@@Z 00457b90 f   hd2.obj
 0001:00056d40       ?AutoHideThreadProc@@YGIPAX@Z 00457d40 f   hd2.obj
 0001:00056dc0       ?ReadDBProcessList@@YAHXZ  00457dc0 f   hd2.obj
 0001:00056f00       ?Insert2DBProcessList@@YAHPAUAutoHideItem@@@Z 00457f00 f   hd2.obj
 0001:00056fd0       ?HideAutoHideItem@@YAHPAUAutoHideItem@@@Z 00457fd0 f   hd2.obj
 0001:000573d0       ?AutoChangeIconTitle@@YGIPAX@Z 004583d0 f   hd2.obj
 0001:00057810       ?SaveAutoChangeIconTitle@@YAHXZ 00458810 f   hd2.obj
 0001:000578e0       ?SaveChangedIconInfo@@YAHPAUIconTitleItem@@@Z 004588e0 f   hd2.obj
 0001:00057980       ?SaveChangedTitleInfo@@YAHPAUIconTitleItem@@@Z 00458980 f   hd2.obj
 0001:00057a20       ?IsInIconTitleDB@@YAHPAUIconTitleItem@@@Z 00458a20 f   hd2.obj
 0001:00057ad0       ?ChangeTitleIcon@@YAHKPAUIconTitleItem@@@Z 00458ad0 f   hd2.obj
 0001:00057cd0       ?IsInIconList@@YAHPAUIconTitleItem@@PAG@Z 00458cd0 f   hd2.obj
 0001:00057fd0       ?IsInTitleList@@YAHPAUIconTitleItem@@PAG@Z 00458fd0 f   hd2.obj
 0001:000582b0       ?DeleteIconTitleFromDB@@YAHPAGH@Z 004592b0 f   hd2.obj
 0001:000583d0       ?ExpandBtnSubclassProc@@YGJPAUHWND__@@IIJ@Z 004593d0 f   hd2.obj
 0001:00058440       ?WriteTimes@@YAHH@Z        00459440 f   hd2.obj
 0001:000585c0       ?ReadTimes@@YAHPAH@Z       004595c0 f   hd2.obj
 0001:000587c0       ?SetTrayTipLanguage@@YAHXZ 004597c0 f   hd2.obj
 0001:000587f0       ?CreateGetAdsLinkThread@@YAHXZ 004597f0 f   hd2.obj
 0001:00058880       ?GetAdsLinkProc@@YGIPAX@Z  00459880 f   hd2.obj
 0001:00058b70       ?ReconnectTimer@@YGXPAUHWND__@@IIK@Z 00459b70 f   hd2.obj
 0001:00058bb0       ?SetStatusTextLink@@YGXPAUHWND__@@IIK@Z 00459bb0 f   hd2.obj
 0001:00058d60       ?SetWndTextLink@@YGXPAUHWND__@@IIK@Z 00459d60 f   hd2.obj
 0001:00058fd0       ?RestoreIP@@YAHXZ          00459fd0 f   hd2.obj
 0001:00059070       ?ChangeLanguage@@YAHGPAG@Z 0045a070 f   hd2.obj
 0001:00059190       ?ChangeLanguageThreadProc@@YGIPAX@Z 0045a190 f   hd2.obj
 0001:00059430       ??0?$list@PAUsTitleWnd@@V?$allocator@PAUsTitleWnd@@@std@@@std@@QAE@ABV?$allocator@PAUsTitleWnd@@@1@@Z 0045a430 f i hd2.obj
 0001:000594a0       ??1?$list@PAUsTitleWnd@@V?$allocator@PAUsTitleWnd@@@std@@@std@@QAE@XZ 0045a4a0 f i hd2.obj
 0001:00059540       ?begin@?$list@PAUsTitleWnd@@V?$allocator@PAUsTitleWnd@@@std@@@std@@QAE?AViterator@12@XZ 0045a540 f i hd2.obj
 0001:000595a0       ?end@?$list@PAUsTitleWnd@@V?$allocator@PAUsTitleWnd@@@std@@@std@@QAE?AViterator@12@XZ 0045a5a0 f i hd2.obj
 0001:00059600       ?size@?$list@PAUsTitleWnd@@V?$allocator@PAUsTitleWnd@@@std@@@std@@QBEIXZ 0045a600 f i hd2.obj
 0001:00059640       ?push_back@?$list@PAUsTitleWnd@@V?$allocator@PAUsTitleWnd@@@std@@@std@@QAEXABQAUsTitleWnd@@@Z 0045a640 f i hd2.obj
 0001:000596b0       ?erase@?$list@PAUsTitleWnd@@V?$allocator@PAUsTitleWnd@@@std@@@std@@QAE?AViterator@12@V312@@Z 0045a6b0 f i hd2.obj
 0001:000597c0       ??0iterator@?$list@PAUsTitleWnd@@V?$allocator@PAUsTitleWnd@@@std@@@std@@QAE@XZ 0045a7c0 f i hd2.obj
 0001:00059810       ??Diterator@?$list@PAUsTitleWnd@@V?$allocator@PAUsTitleWnd@@@std@@@std@@QBEAAPAUsTitleWnd@@XZ 0045a810 f i hd2.obj
 0001:00059860       ??Eiterator@?$list@PAUsTitleWnd@@V?$allocator@PAUsTitleWnd@@@std@@@std@@QAE?AV012@H@Z 0045a860 f i hd2.obj
 0001:000598c0       ??Fiterator@?$list@PAUsTitleWnd@@V?$allocator@PAUsTitleWnd@@@std@@@std@@QAE?AV012@H@Z 0045a8c0 f i hd2.obj
 0001:00059920       ??9iterator@?$list@PAUsTitleWnd@@V?$allocator@PAUsTitleWnd@@@std@@@std@@QBE_NABV012@@Z 0045a920 f i hd2.obj
 0001:00059980       ??0?$list@PAUsBKWHotkey@@V?$allocator@PAUsBKWHotkey@@@std@@@std@@QAE@ABV?$allocator@PAUsBKWHotkey@@@1@@Z 0045a980 f i hd2.obj
 0001:000599f0       ??1?$list@PAUsBKWHotkey@@V?$allocator@PAUsBKWHotkey@@@std@@@std@@QAE@XZ 0045a9f0 f i hd2.obj
 0001:00059a90       ?size@?$list@PAUsBKWHotkey@@V?$allocator@PAUsBKWHotkey@@@std@@@std@@QBEIXZ 0045aa90 f i hd2.obj
 0001:00059ad0       ?push_back@?$list@PAUsBKWHotkey@@V?$allocator@PAUsBKWHotkey@@@std@@@std@@QAEXABQAUsBKWHotkey@@@Z 0045aad0 f i hd2.obj
 0001:00059b40       ?erase@?$list@PAUsBKWHotkey@@V?$allocator@PAUsBKWHotkey@@@std@@@std@@QAE?AViterator@12@V312@@Z 0045ab40 f i hd2.obj
 0001:00059c50       ??Fiterator@?$list@PAUsBKWHotkey@@V?$allocator@PAUsBKWHotkey@@@std@@@std@@QAE?AV012@H@Z 0045ac50 f i hd2.obj
 0001:00059cb0       ??0?$list@PAUsIconTitle@@V?$allocator@PAUsIconTitle@@@std@@@std@@QAE@ABV?$allocator@PAUsIconTitle@@@1@@Z 0045acb0 f i hd2.obj
 0001:00059d20       ??1?$list@PAUsIconTitle@@V?$allocator@PAUsIconTitle@@@std@@@std@@QAE@XZ 0045ad20 f i hd2.obj
 0001:00059dc0       ?begin@?$list@PAUsIconTitle@@V?$allocator@PAUsIconTitle@@@std@@@std@@QAE?AViterator@12@XZ 0045adc0 f i hd2.obj
 0001:00059e20       ?end@?$list@PAUsIconTitle@@V?$allocator@PAUsIconTitle@@@std@@@std@@QAE?AViterator@12@XZ 0045ae20 f i hd2.obj
 0001:00059e80       ?size@?$list@PAUsIconTitle@@V?$allocator@PAUsIconTitle@@@std@@@std@@QBEIXZ 0045ae80 f i hd2.obj
 0001:00059ec0       ?push_back@?$list@PAUsIconTitle@@V?$allocator@PAUsIconTitle@@@std@@@std@@QAEXABQAUsIconTitle@@@Z 0045aec0 f i hd2.obj
 0001:00059f30       ?erase@?$list@PAUsIconTitle@@V?$allocator@PAUsIconTitle@@@std@@@std@@QAE?AViterator@12@V312@@Z 0045af30 f i hd2.obj
 0001:0005a040       ??0iterator@?$list@PAUsIconTitle@@V?$allocator@PAUsIconTitle@@@std@@@std@@QAE@XZ 0045b040 f i hd2.obj
 0001:0005a090       ??Diterator@?$list@PAUsIconTitle@@V?$allocator@PAUsIconTitle@@@std@@@std@@QBEAAPAUsIconTitle@@XZ 0045b090 f i hd2.obj
 0001:0005a0e0       ??Eiterator@?$list@PAUsIconTitle@@V?$allocator@PAUsIconTitle@@@std@@@std@@QAE?AV012@H@Z 0045b0e0 f i hd2.obj
 0001:0005a140       ??Fiterator@?$list@PAUsIconTitle@@V?$allocator@PAUsIconTitle@@@std@@@std@@QAE?AV012@H@Z 0045b140 f i hd2.obj
 0001:0005a1a0       ??9iterator@?$list@PAUsIconTitle@@V?$allocator@PAUsIconTitle@@@std@@@std@@QBE_NABV012@@Z 0045b1a0 f i hd2.obj
 0001:0005a200       ??0?$list@PAUNewProcessInfo@@V?$allocator@PAUNewProcessInfo@@@std@@@std@@QAE@ABV?$allocator@PAUNewProcessInfo@@@1@@Z 0045b200 f i hd2.obj
 0001:0005a270       ??1?$list@PAUNewProcessInfo@@V?$allocator@PAUNewProcessInfo@@@std@@@std@@QAE@XZ 0045b270 f i hd2.obj
 0001:0005a310       ?begin@?$list@PAUNewProcessInfo@@V?$allocator@PAUNewProcessInfo@@@std@@@std@@QAE?AViterator@12@XZ 0045b310 f i hd2.obj
 0001:0005a370       ?end@?$list@PAUNewProcessInfo@@V?$allocator@PAUNewProcessInfo@@@std@@@std@@QAE?AViterator@12@XZ 0045b370 f i hd2.obj
 0001:0005a3d0       ?push_back@?$list@PAUNewProcessInfo@@V?$allocator@PAUNewProcessInfo@@@std@@@std@@QAEXABQAUNewProcessInfo@@@Z 0045b3d0 f i hd2.obj
 0001:0005a440       ?erase@?$list@PAUNewProcessInfo@@V?$allocator@PAUNewProcessInfo@@@std@@@std@@QAE?AViterator@12@V312@@Z 0045b440 f i hd2.obj
 0001:0005a550       ??0iterator@?$list@PAUNewProcessInfo@@V?$allocator@PAUNewProcessInfo@@@std@@@std@@QAE@XZ 0045b550 f i hd2.obj
 0001:0005a5a0       ??Diterator@?$list@PAUNewProcessInfo@@V?$allocator@PAUNewProcessInfo@@@std@@@std@@QBEAAPAUNewProcessInfo@@XZ 0045b5a0 f i hd2.obj
 0001:0005a5f0       ??Eiterator@?$list@PAUNewProcessInfo@@V?$allocator@PAUNewProcessInfo@@@std@@@std@@QAE?AV012@H@Z 0045b5f0 f i hd2.obj
 0001:0005a650       ??Fiterator@?$list@PAUNewProcessInfo@@V?$allocator@PAUNewProcessInfo@@@std@@@std@@QAE?AV012@H@Z 0045b650 f i hd2.obj
 0001:0005a6b0       ??9iterator@?$list@PAUNewProcessInfo@@V?$allocator@PAUNewProcessInfo@@@std@@@std@@QBE_NABV012@@Z 0045b6b0 f i hd2.obj
 0001:0005a710       ??0?$list@PAUAutoHideItem@@V?$allocator@PAUAutoHideItem@@@std@@@std@@QAE@ABV?$allocator@PAUAutoHideItem@@@1@@Z 0045b710 f i hd2.obj
 0001:0005a780       ??1?$list@PAUAutoHideItem@@V?$allocator@PAUAutoHideItem@@@std@@@std@@QAE@XZ 0045b780 f i hd2.obj
 0001:0005a820       ?push_back@?$list@PAUAutoHideItem@@V?$allocator@PAUAutoHideItem@@@std@@@std@@QAEXABQAUAutoHideItem@@@Z 0045b820 f i hd2.obj
 0001:0005a890       ?insert@?$list@PAUsTitleWnd@@V?$allocator@PAUsTitleWnd@@@std@@@std@@QAE?AViterator@12@V312@ABQAUsTitleWnd@@@Z 0045b890 f i hd2.obj
 0001:0005a990       ?erase@?$list@PAUsTitleWnd@@V?$allocator@PAUsTitleWnd@@@std@@@std@@QAE?AViterator@12@V312@0@Z 0045b990 f i hd2.obj
 0001:0005aa20       ?_Buynode@?$list@PAUsTitleWnd@@V?$allocator@PAUsTitleWnd@@@std@@@std@@IAEPAU_Node@12@PAU312@0@Z 0045ba20 f i hd2.obj
 0001:0005aad0       ?_Freenode@?$list@PAUsTitleWnd@@V?$allocator@PAUsTitleWnd@@@std@@@std@@IAEXPAU_Node@12@@Z 0045bad0 f i hd2.obj
 0001:0005ab20       ?_Next@_Acc@?$list@PAUsTitleWnd@@V?$allocator@PAUsTitleWnd@@@std@@@std@@SAAAPAU_Node@23@PAU423@@Z 0045bb20 f i hd2.obj
 0001:0005ab50       ?_Prev@_Acc@?$list@PAUsTitleWnd@@V?$allocator@PAUsTitleWnd@@@std@@@std@@SAAAPAU_Node@23@PAU423@@Z 0045bb50 f i hd2.obj
 0001:0005ab80       ?_Value@_Acc@?$list@PAUsTitleWnd@@V?$allocator@PAUsTitleWnd@@@std@@@std@@SAAAPAUsTitleWnd@@PAU_Node@23@@Z 0045bb80 f i hd2.obj
 0001:0005abb0       ?destroy@?$allocator@PAUsTitleWnd@@@std@@QAEXPAPAUsTitleWnd@@@Z 0045bbb0 f i hd2.obj
 0001:0005ac00       ??0const_iterator@?$list@PAUsTitleWnd@@V?$allocator@PAUsTitleWnd@@@std@@@std@@QAE@XZ 0045bc00 f i hd2.obj
 0001:0005ac30       ?_Mynode@const_iterator@?$list@PAUsTitleWnd@@V?$allocator@PAUsTitleWnd@@@std@@@std@@QBEPAU_Node@23@XZ 0045bc30 f i hd2.obj
 0001:0005ac70       ??0iterator@?$list@PAUsTitleWnd@@V?$allocator@PAUsTitleWnd@@@std@@@std@@QAE@PAU_Node@12@@Z 0045bc70 f i hd2.obj
 0001:0005acc0       ??Eiterator@?$list@PAUsTitleWnd@@V?$allocator@PAUsTitleWnd@@@std@@@std@@QAEAAV012@XZ 0045bcc0 f i hd2.obj
 0001:0005ad20       ??Fiterator@?$list@PAUsTitleWnd@@V?$allocator@PAUsTitleWnd@@@std@@@std@@QAEAAV012@XZ 0045bd20 f i hd2.obj
 0001:0005ad80       ??8iterator@?$list@PAUsTitleWnd@@V?$allocator@PAUsTitleWnd@@@std@@@std@@QBE_NABV012@@Z 0045bd80 f i hd2.obj
 0001:0005add0       ?insert@?$list@PAUsBKWHotkey@@V?$allocator@PAUsBKWHotkey@@@std@@@std@@QAE?AViterator@12@V312@ABQAUsBKWHotkey@@@Z 0045bdd0 f i hd2.obj
 0001:0005aed0       ?erase@?$list@PAUsBKWHotkey@@V?$allocator@PAUsBKWHotkey@@@std@@@std@@QAE?AViterator@12@V312@0@Z 0045bed0 f i hd2.obj
 0001:0005af60       ?_Buynode@?$list@PAUsBKWHotkey@@V?$allocator@PAUsBKWHotkey@@@std@@@std@@IAEPAU_Node@12@PAU312@0@Z 0045bf60 f i hd2.obj
 0001:0005b010       ?_Freenode@?$list@PAUsBKWHotkey@@V?$allocator@PAUsBKWHotkey@@@std@@@std@@IAEXPAU_Node@12@@Z 0045c010 f i hd2.obj
 0001:0005b060       ?_Prev@_Acc@?$list@PAUsBKWHotkey@@V?$allocator@PAUsBKWHotkey@@@std@@@std@@SAAAPAU_Node@23@PAU423@@Z 0045c060 f i hd2.obj
 0001:0005b090       ?destroy@?$allocator@PAUsBKWHotkey@@@std@@QAEXPAPAUsBKWHotkey@@@Z 0045c090 f i hd2.obj
 0001:0005b0e0       ?_Mynode@const_iterator@?$list@PAUsBKWHotkey@@V?$allocator@PAUsBKWHotkey@@@std@@@std@@QBEPAU_Node@23@XZ 0045c0e0 f i hd2.obj
 0001:0005b120       ??Fiterator@?$list@PAUsBKWHotkey@@V?$allocator@PAUsBKWHotkey@@@std@@@std@@QAEAAV012@XZ 0045c120 f i hd2.obj
 0001:0005b180       ?insert@?$list@PAUsIconTitle@@V?$allocator@PAUsIconTitle@@@std@@@std@@QAE?AViterator@12@V312@ABQAUsIconTitle@@@Z 0045c180 f i hd2.obj
 0001:0005b280       ?erase@?$list@PAUsIconTitle@@V?$allocator@PAUsIconTitle@@@std@@@std@@QAE?AViterator@12@V312@0@Z 0045c280 f i hd2.obj
 0001:0005b310       ?_Buynode@?$list@PAUsIconTitle@@V?$allocator@PAUsIconTitle@@@std@@@std@@IAEPAU_Node@12@PAU312@0@Z 0045c310 f i hd2.obj
 0001:0005b3c0       ?_Freenode@?$list@PAUsIconTitle@@V?$allocator@PAUsIconTitle@@@std@@@std@@IAEXPAU_Node@12@@Z 0045c3c0 f i hd2.obj
 0001:0005b410       ?_Next@_Acc@?$list@PAUsIconTitle@@V?$allocator@PAUsIconTitle@@@std@@@std@@SAAAPAU_Node@23@PAU423@@Z 0045c410 f i hd2.obj
 0001:0005b440       ?_Prev@_Acc@?$list@PAUsIconTitle@@V?$allocator@PAUsIconTitle@@@std@@@std@@SAAAPAU_Node@23@PAU423@@Z 0045c440 f i hd2.obj
 0001:0005b470       ?_Value@_Acc@?$list@PAUsIconTitle@@V?$allocator@PAUsIconTitle@@@std@@@std@@SAAAPAUsIconTitle@@PAU_Node@23@@Z 0045c470 f i hd2.obj
 0001:0005b4a0       ?destroy@?$allocator@PAUsIconTitle@@@std@@QAEXPAPAUsIconTitle@@@Z 0045c4a0 f i hd2.obj
 0001:0005b4f0       ??0const_iterator@?$list@PAUsIconTitle@@V?$allocator@PAUsIconTitle@@@std@@@std@@QAE@XZ 0045c4f0 f i hd2.obj
 0001:0005b520       ?_Mynode@const_iterator@?$list@PAUsIconTitle@@V?$allocator@PAUsIconTitle@@@std@@@std@@QBEPAU_Node@23@XZ 0045c520 f i hd2.obj
 0001:0005b560       ??0iterator@?$list@PAUsIconTitle@@V?$allocator@PAUsIconTitle@@@std@@@std@@QAE@PAU_Node@12@@Z 0045c560 f i hd2.obj
 0001:0005b5b0       ??Eiterator@?$list@PAUsIconTitle@@V?$allocator@PAUsIconTitle@@@std@@@std@@QAEAAV012@XZ 0045c5b0 f i hd2.obj
 0001:0005b610       ??Fiterator@?$list@PAUsIconTitle@@V?$allocator@PAUsIconTitle@@@std@@@std@@QAEAAV012@XZ 0045c610 f i hd2.obj
 0001:0005b670       ??8iterator@?$list@PAUsIconTitle@@V?$allocator@PAUsIconTitle@@@std@@@std@@QBE_NABV012@@Z 0045c670 f i hd2.obj
 0001:0005b6c0       ?insert@?$list@PAUNewProcessInfo@@V?$allocator@PAUNewProcessInfo@@@std@@@std@@QAE?AViterator@12@V312@ABQAUNewProcessInfo@@@Z 0045c6c0 f i hd2.obj
 0001:0005b7c0       ?erase@?$list@PAUNewProcessInfo@@V?$allocator@PAUNewProcessInfo@@@std@@@std@@QAE?AViterator@12@V312@0@Z 0045c7c0 f i hd2.obj
 0001:0005b850       ?_Buynode@?$list@PAUNewProcessInfo@@V?$allocator@PAUNewProcessInfo@@@std@@@std@@IAEPAU_Node@12@PAU312@0@Z 0045c850 f i hd2.obj
 0001:0005b900       ?_Freenode@?$list@PAUNewProcessInfo@@V?$allocator@PAUNewProcessInfo@@@std@@@std@@IAEXPAU_Node@12@@Z 0045c900 f i hd2.obj
 0001:0005b950       ?_Next@_Acc@?$list@PAUNewProcessInfo@@V?$allocator@PAUNewProcessInfo@@@std@@@std@@SAAAPAU_Node@23@PAU423@@Z 0045c950 f i hd2.obj
 0001:0005b980       ?_Prev@_Acc@?$list@PAUNewProcessInfo@@V?$allocator@PAUNewProcessInfo@@@std@@@std@@SAAAPAU_Node@23@PAU423@@Z 0045c980 f i hd2.obj
 0001:0005b9b0       ?_Value@_Acc@?$list@PAUNewProcessInfo@@V?$allocator@PAUNewProcessInfo@@@std@@@std@@SAAAPAUNewProcessInfo@@PAU_Node@23@@Z 0045c9b0 f i hd2.obj
 0001:0005b9e0       ?destroy@?$allocator@PAUNewProcessInfo@@@std@@QAEXPAPAUNewProcessInfo@@@Z 0045c9e0 f i hd2.obj
 0001:0005ba30       ??0const_iterator@?$list@PAUNewProcessInfo@@V?$allocator@PAUNewProcessInfo@@@std@@@std@@QAE@XZ 0045ca30 f i hd2.obj
 0001:0005ba60       ?_Mynode@const_iterator@?$list@PAUNewProcessInfo@@V?$allocator@PAUNewProcessInfo@@@std@@@std@@QBEPAU_Node@23@XZ 0045ca60 f i hd2.obj
 0001:0005baa0       ??0iterator@?$list@PAUNewProcessInfo@@V?$allocator@PAUNewProcessInfo@@@std@@@std@@QAE@PAU_Node@12@@Z 0045caa0 f i hd2.obj
 0001:0005baf0       ??Eiterator@?$list@PAUNewProcessInfo@@V?$allocator@PAUNewProcessInfo@@@std@@@std@@QAEAAV012@XZ 0045caf0 f i hd2.obj
 0001:0005bb50       ??Fiterator@?$list@PAUNewProcessInfo@@V?$allocator@PAUNewProcessInfo@@@std@@@std@@QAEAAV012@XZ 0045cb50 f i hd2.obj
 0001:0005bbb0       ??8iterator@?$list@PAUNewProcessInfo@@V?$allocator@PAUNewProcessInfo@@@std@@@std@@QBE_NABV012@@Z 0045cbb0 f i hd2.obj
 0001:0005bc00       ?begin@?$list@PAUAutoHideItem@@V?$allocator@PAUAutoHideItem@@@std@@@std@@QAE?AViterator@12@XZ 0045cc00 f i hd2.obj
 0001:0005bc60       ?end@?$list@PAUAutoHideItem@@V?$allocator@PAUAutoHideItem@@@std@@@std@@QAE?AViterator@12@XZ 0045cc60 f i hd2.obj
 0001:0005bcc0       ?insert@?$list@PAUAutoHideItem@@V?$allocator@PAUAutoHideItem@@@std@@@std@@QAE?AViterator@12@V312@ABQAUAutoHideItem@@@Z 0045ccc0 f i hd2.obj
 0001:0005bdc0       ?erase@?$list@PAUAutoHideItem@@V?$allocator@PAUAutoHideItem@@@std@@@std@@QAE?AViterator@12@V312@0@Z 0045cdc0 f i hd2.obj
 0001:0005be50       ?_Buynode@?$list@PAUAutoHideItem@@V?$allocator@PAUAutoHideItem@@@std@@@std@@IAEPAU_Node@12@PAU312@0@Z 0045ce50 f i hd2.obj
 0001:0005bf00       ?_Freenode@?$list@PAUAutoHideItem@@V?$allocator@PAUAutoHideItem@@@std@@@std@@IAEXPAU_Node@12@@Z 0045cf00 f i hd2.obj
 0001:0005bf50       ?_Charalloc@?$allocator@PAUsTitleWnd@@@std@@QAEPADI@Z 0045cf50 f i hd2.obj
 0001:0005bfa0       ?deallocate@?$allocator@PAUsTitleWnd@@@std@@QAEXPAXI@Z 0045cfa0 f i hd2.obj
 0001:0005bff0       ?construct@?$allocator@PAUsTitleWnd@@@std@@QAEXPAPAUsTitleWnd@@ABQAU3@@Z 0045cff0 f i hd2.obj
 0001:0005c040       ??0const_iterator@?$list@PAUsTitleWnd@@V?$allocator@PAUsTitleWnd@@@std@@@std@@QAE@PAU_Node@12@@Z 0045d040 f i hd2.obj
 0001:0005c080       ?_Charalloc@?$allocator@PAUsBKWHotkey@@@std@@QAEPADI@Z 0045d080 f i hd2.obj
 0001:0005c0d0       ?deallocate@?$allocator@PAUsBKWHotkey@@@std@@QAEXPAXI@Z 0045d0d0 f i hd2.obj
 0001:0005c120       ?construct@?$allocator@PAUsBKWHotkey@@@std@@QAEXPAPAUsBKWHotkey@@ABQAU3@@Z 0045d120 f i hd2.obj
 0001:0005c170       ?_Charalloc@?$allocator@PAUsIconTitle@@@std@@QAEPADI@Z 0045d170 f i hd2.obj
 0001:0005c1c0       ?deallocate@?$allocator@PAUsIconTitle@@@std@@QAEXPAXI@Z 0045d1c0 f i hd2.obj
 0001:0005c210       ?construct@?$allocator@PAUsIconTitle@@@std@@QAEXPAPAUsIconTitle@@ABQAU3@@Z 0045d210 f i hd2.obj
 0001:0005c260       ??0const_iterator@?$list@PAUsIconTitle@@V?$allocator@PAUsIconTitle@@@std@@@std@@QAE@PAU_Node@12@@Z 0045d260 f i hd2.obj
 0001:0005c2a0       ?_Charalloc@?$allocator@PAUNewProcessInfo@@@std@@QAEPADI@Z 0045d2a0 f i hd2.obj
 0001:0005c2f0       ?deallocate@?$allocator@PAUNewProcessInfo@@@std@@QAEXPAXI@Z 0045d2f0 f i hd2.obj
 0001:0005c340       ?construct@?$allocator@PAUNewProcessInfo@@@std@@QAEXPAPAUNewProcessInfo@@ABQAU3@@Z 0045d340 f i hd2.obj
 0001:0005c390       ??0const_iterator@?$list@PAUNewProcessInfo@@V?$allocator@PAUNewProcessInfo@@@std@@@std@@QAE@PAU_Node@12@@Z 0045d390 f i hd2.obj
 0001:0005c3d0       ?erase@?$list@PAUAutoHideItem@@V?$allocator@PAUAutoHideItem@@@std@@@std@@QAE?AViterator@12@V312@@Z 0045d3d0 f i hd2.obj
 0001:0005c4e0       ?_Next@_Acc@?$list@PAUAutoHideItem@@V?$allocator@PAUAutoHideItem@@@std@@@std@@SAAAPAU_Node@23@PAU423@@Z 0045d4e0 f i hd2.obj
 0001:0005c510       ?_Prev@_Acc@?$list@PAUAutoHideItem@@V?$allocator@PAUAutoHideItem@@@std@@@std@@SAAAPAU_Node@23@PAU423@@Z 0045d510 f i hd2.obj
 0001:0005c540       ?_Value@_Acc@?$list@PAUAutoHideItem@@V?$allocator@PAUAutoHideItem@@@std@@@std@@SAAAPAUAutoHideItem@@PAU_Node@23@@Z 0045d540 f i hd2.obj
 0001:0005c570       ?_Charalloc@?$allocator@PAUAutoHideItem@@@std@@QAEPADI@Z 0045d570 f i hd2.obj
 0001:0005c5c0       ?deallocate@?$allocator@PAUAutoHideItem@@@std@@QAEXPAXI@Z 0045d5c0 f i hd2.obj
 0001:0005c610       ?construct@?$allocator@PAUAutoHideItem@@@std@@QAEXPAPAUAutoHideItem@@ABQAU3@@Z 0045d610 f i hd2.obj
 0001:0005c660       ?_Mynode@const_iterator@?$list@PAUAutoHideItem@@V?$allocator@PAUAutoHideItem@@@std@@@std@@QBEPAU_Node@23@XZ 0045d660 f i hd2.obj
 0001:0005c6a0       ??0iterator@?$list@PAUAutoHideItem@@V?$allocator@PAUAutoHideItem@@@std@@@std@@QAE@PAU_Node@12@@Z 0045d6a0 f i hd2.obj
 0001:0005c6f0       ??Eiterator@?$list@PAUAutoHideItem@@V?$allocator@PAUAutoHideItem@@@std@@@std@@QAE?AV012@H@Z 0045d6f0 f i hd2.obj
 0001:0005c750       ??9iterator@?$list@PAUAutoHideItem@@V?$allocator@PAUAutoHideItem@@@std@@@std@@QBE_NABV012@@Z 0045d750 f i hd2.obj
 0001:0005c7b0       ?destroy@?$allocator@PAUAutoHideItem@@@std@@QAEXPAPAUAutoHideItem@@@Z 0045d7b0 f i hd2.obj
 0001:0005c800       ??0const_iterator@?$list@PAUAutoHideItem@@V?$allocator@PAUAutoHideItem@@@std@@@std@@QAE@PAU_Node@12@@Z 0045d800 f i hd2.obj
 0001:0005c840       ??Eiterator@?$list@PAUAutoHideItem@@V?$allocator@PAUAutoHideItem@@@std@@@std@@QAEAAV012@XZ 0045d840 f i hd2.obj
 0001:0005c8a0       ??8iterator@?$list@PAUAutoHideItem@@V?$allocator@PAUAutoHideItem@@@std@@@std@@QBE_NABV012@@Z 0045d8a0 f i hd2.obj
 0001:0005c8f0       ?_Destroy@std@@YAXPAPAUsTitleWnd@@@Z 0045d8f0 f i hd2.obj
 0001:0005c920       ?_Destroy@std@@YAXPAPAUsBKWHotkey@@@Z 0045d920 f i hd2.obj
 0001:0005c950       ?_Destroy@std@@YAXPAPAUsIconTitle@@@Z 0045d950 f i hd2.obj
 0001:0005c980       ?_Destroy@std@@YAXPAPAUNewProcessInfo@@@Z 0045d980 f i hd2.obj
 0001:0005c9b0       ?_Allocate@std@@YAPADHPAD@Z 0045d9b0 f i hd2.obj
 0001:0005ca10       ?_Construct@std@@YAXPAPAUsTitleWnd@@ABQAU2@@Z 0045da10 f i hd2.obj
 0001:0005ca80       ??2@YAPAXIPAX@Z            0045da80 f i hd2.obj
 0001:0005cab0       ?_Construct@std@@YAXPAPAUsBKWHotkey@@ABQAU2@@Z 0045dab0 f i hd2.obj
 0001:0005cb20       ?_Construct@std@@YAXPAPAUsIconTitle@@ABQAU2@@Z 0045db20 f i hd2.obj
 0001:0005cb90       ?_Construct@std@@YAXPAPAUNewProcessInfo@@ABQAU2@@Z 0045db90 f i hd2.obj
 0001:0005cc00       ?_Construct@std@@YAXPAPAUAutoHideItem@@ABQAU2@@Z 0045dc00 f i hd2.obj
 0001:0005cc70       ?_Destroy@std@@YAXPAPAUAutoHideItem@@@Z 0045dc70 f i hd2.obj
 0001:0005cca0       ?setup@@YAXXZ              0045dca0 f   hd3.obj
 0001:0005ce60       ?cleanup@@YAXXZ            0045de60 f   hd3.obj
 0001:0005cf20       ?thread@@YAXXZ             0045df20 f   hd3.obj
 0001:0005d160       ?go@@YAXXZ                 0045e160 f   hd3.obj
 0001:0005d2d0       ?AllocResourceForTrayList_au@@YAHXZ 0045e2d0 f   hd3.obj
 0001:0005d430       ?ReleaseResourceForTrayList_au@@YAHXZ 0045e430 f   hd3.obj
 0001:0005d550       ?EnumAllVisibleTray_au@@YAHXZ 0045e550 f   hd3.obj
 0001:0005e030       ?BKThisIcon@@YAHPAUWndAndHandle@@@Z 0045f030 f   hd3.obj
 0001:0005e0e0       ?IsInHidedList@@YAHPAUWndAndHandle@@@Z 0045f0e0 f   hd3.obj
 0001:0005e1c0       ?IsInAutoHideList@@YAHPAG@Z 0045f1c0 f   hd3.obj
 0001:0005e2a0       ??0?$list@PAUWndAndHandle@@V?$allocator@PAUWndAndHandle@@@std@@@std@@QAE@ABV?$allocator@PAUWndAndHandle@@@1@@Z 0045f2a0 f i hd3.obj
 0001:0005e310       ??1?$list@PAUWndAndHandle@@V?$allocator@PAUWndAndHandle@@@std@@@std@@QAE@XZ 0045f310 f i hd3.obj
 0001:0005e3b0       ?begin@?$list@PAUWndAndHandle@@V?$allocator@PAUWndAndHandle@@@std@@@std@@QAE?AViterator@12@XZ 0045f3b0 f i hd3.obj
 0001:0005e410       ?end@?$list@PAUWndAndHandle@@V?$allocator@PAUWndAndHandle@@@std@@@std@@QAE?AViterator@12@XZ 0045f410 f i hd3.obj
 0001:0005e470       ?size@?$list@PAUWndAndHandle@@V?$allocator@PAUWndAndHandle@@@std@@@std@@QBEIXZ 0045f470 f i hd3.obj
 0001:0005e4e0       ?push_back@?$list@PAUWndAndHandle@@V?$allocator@PAUWndAndHandle@@@std@@@std@@QAEXABQAUWndAndHandle@@@Z 0045f4e0 f i hd3.obj
 0001:0005e530       ??0iterator@?$list@PAUWndAndHandle@@V?$allocator@PAUWndAndHandle@@@std@@@std@@QAE@XZ 0045f530 f i hd3.obj
 0001:0005e580       ??Diterator@?$list@PAUWndAndHandle@@V?$allocator@PAUWndAndHandle@@@std@@@std@@QBEAAPAUWndAndHandle@@XZ 0045f580 f i hd3.obj
 0001:0005e5e0       ??Eiterator@?$list@PAUWndAndHandle@@V?$allocator@PAUWndAndHandle@@@std@@@std@@QAE?AV012@H@Z 0045f5e0 f i hd3.obj
 0001:0005e640       ??9iterator@?$list@PAUWndAndHandle@@V?$allocator@PAUWndAndHandle@@@std@@@std@@QBE_NABV012@@Z 0045f640 f i hd3.obj
 0001:0005e690       ??0iterator@?$list@PAUAutoHideItem@@V?$allocator@PAUAutoHideItem@@@std@@@std@@QAE@XZ 0045f690 f i hd3.obj
 0001:0005e6e0       ??Diterator@?$list@PAUAutoHideItem@@V?$allocator@PAUAutoHideItem@@@std@@@std@@QBEAAPAUAutoHideItem@@XZ 0045f6e0 f i hd3.obj
 0001:0005e870       ?erase@?$list@PAUWndAndHandle@@V?$allocator@PAUWndAndHandle@@@std@@@std@@QAE?AViterator@12@V312@0@Z 0045f870 f i hd3.obj
 0001:0005e9a0       ?_Next@_Acc@?$list@PAUWndAndHandle@@V?$allocator@PAUWndAndHandle@@@std@@@std@@SAAAPAU_Node@23@PAU423@@Z 0045f9a0 f i hd3.obj
 0001:0005e9d0       ?_Value@_Acc@?$list@PAUWndAndHandle@@V?$allocator@PAUWndAndHandle@@@std@@@std@@SAAAPAUWndAndHandle@@PAU_Node@23@@Z 0045f9d0 f i hd3.obj
 0001:0005ea00       ??0const_iterator@?$list@PAUWndAndHandle@@V?$allocator@PAUWndAndHandle@@@std@@@std@@QAE@XZ 0045fa00 f i hd3.obj
 0001:0005ea50       ??0iterator@?$list@PAUWndAndHandle@@V?$allocator@PAUWndAndHandle@@@std@@@std@@QAE@PAU_Node@12@@Z 0045fa50 f i hd3.obj
 0001:0005eab0       ??Eiterator@?$list@PAUWndAndHandle@@V?$allocator@PAUWndAndHandle@@@std@@@std@@QAEAAV012@XZ 0045fab0 f i hd3.obj
 0001:0005eb30       ??0const_iterator@?$list@PAUAutoHideItem@@V?$allocator@PAUAutoHideItem@@@std@@@std@@QAE@XZ 0045fb30 f i hd3.obj
 0001:0005ec70       ?_Prev@_Acc@?$list@PAUWndAndHandle@@V?$allocator@PAUWndAndHandle@@@std@@@std@@SAAAPAU_Node@23@PAU423@@Z 0045fc70 f i hd3.obj
 0001:0005ecc0       ?_Charalloc@?$allocator@PAUWndAndHandle@@@std@@QAEPADI@Z 0045fcc0 f i hd3.obj
 0001:0005ed10       ?deallocate@?$allocator@PAUWndAndHandle@@@std@@QAEXPAXI@Z 0045fd10 f i hd3.obj
 0001:0005ed60       ?construct@?$allocator@PAUWndAndHandle@@@std@@QAEXPAPAUWndAndHandle@@ABQAU3@@Z 0045fd60 f i hd3.obj
 0001:0005eda0       ??0const_iterator@?$list@PAUWndAndHandle@@V?$allocator@PAUWndAndHandle@@@std@@@std@@QAE@PAU_Node@12@@Z 0045fda0 f i hd3.obj
 0001:0005ede0       ?_Mynode@const_iterator@?$list@PAUWndAndHandle@@V?$allocator@PAUWndAndHandle@@@std@@@std@@QBEPAU_Node@23@XZ 0045fde0 f i hd3.obj
 0001:0005ee30       ?destroy@?$allocator@PAUWndAndHandle@@@std@@QAEXPAPAUWndAndHandle@@@Z 0045fe30 f i hd3.obj
 0001:0005eed0       ??0CHyperLink@@QAE@XZ      0045fed0 f   HyperLink.obj
 0001:0005ef60       ??_GCHyperLink@@UAEPAXI@Z  0045ff60 f i HyperLink.obj
 0001:0005ef60       ??_ECHyperLink@@UAEPAXI@Z  0045ff60 f i HyperLink.obj
 0001:0005efd0       ??1CHyperLink@@UAE@XZ      0045ffd0 f   HyperLink.obj
 0001:0005f010       ?Attach@CHyperLink@@QAEHPAUHWND__@@@Z 00460010 f   HyperLink.obj
 0001:0005f1c0       ?Detach@CHyperLink@@QAEPAUHWND__@@XZ 004601c0 f   HyperLink.obj
 0001:0005f2d0       ?GetHwnd@CHyperLink@@QAEPAUHWND__@@XZ 004602d0 f   HyperLink.obj
 0001:0005f310       ?SetLink@CHyperLink@@QAEHPBG0H@Z 00460310 f   HyperLink.obj
 0001:0005f4d0       ?NewProc@CHyperLink@@CGJPAUHWND__@@IIJ@Z 004604d0 f   HyperLink.obj
 0001:0005f980       ?OnMouseMove@CHyperLink@@IAEXIJ@Z 00460980 f   HyperLink.obj
 0001:0005fad0       ??0UseProxyDlg@@QAE@XZ     00460ad0 f   UseProxyDlg.obj
 0001:0005fb10       ??_EUseProxyDlg@@UAEPAXI@Z 00460b10 f i UseProxyDlg.obj
 0001:0005fb10       ??_GUseProxyDlg@@UAEPAXI@Z 00460b10 f i UseProxyDlg.obj
 0001:0005fb80       ??1UseProxyDlg@@UAE@XZ     00460b80 f   UseProxyDlg.obj
 0001:0005fbc0       ?WndProc@UseProxyDlg@@SGJPAUHWND__@@IIJ@Z 00460bc0 f   UseProxyDlg.obj
 0001:000600d0       ?AdvDlgProc@UseProxyDlg@@SGJPAUHWND__@@IIJ@Z 004610d0 f   UseProxyDlg.obj
 0001:000616a0       ?RestoreIP@UseProxyDlg@@SA_NXZ 004626a0 f   UseProxyDlg.obj
 0001:00061800       ?GenDlgProc@UseProxyDlg@@SGJPAUHWND__@@IIJ@Z 00462800 f   UseProxyDlg.obj
 0001:00062520       ?TestProxy@UseProxyDlg@@SA_NUProxyInfo@@@Z 00463520 f   UseProxyDlg.obj
 0001:00062ba0       ?SetProxyList@UseProxyDlg@@SGKPAX@Z 00463ba0 f   UseProxyDlg.obj
 0001:000635b0       ?TestHttpProxy@UseProxyDlg@@SGKPAX@Z 004645b0 f   UseProxyDlg.obj
 0001:00063790       ?TestSockProxy@UseProxyDlg@@SGKPAX@Z 00464790 f   UseProxyDlg.obj
 0001:00063ab0       ?DownLoadFile@UseProxyDlg@@SGKPAX@Z 00464ab0 f   UseProxyDlg.obj
 0001:000640a0       ?GetCurrentDir@UseProxyDlg@@SAHPAGH@Z 004650a0 f   UseProxyDlg.obj
 0001:00064200       ?sockconnect@UseProxyDlg@@SAIPBD00@Z 00465200 f   UseProxyDlg.obj
 0001:000643b0       ?TCPconnect@UseProxyDlg@@SAIPBD0@Z 004653b0 f   UseProxyDlg.obj
 0001:00064400       ?DownloadAndQueryFile@UseProxyDlg@@SGKPAX@Z 00465400 f   UseProxyDlg.obj
 0001:000654e0       ?QueryFile@UseProxyDlg@@SAHPBG@Z 004664e0 f   UseProxyDlg.obj
 0001:000662e0       ?LoadFile@UseProxyDlg@@SAPAGPAG@Z 004672e0 f   UseProxyDlg.obj
 0001:000664d0       ?FreeFile@UseProxyDlg@@SAHXZ 004674d0 f   UseProxyDlg.obj
 0001:000665b0       ?OnInitDlg@UseProxyDlg@@SAXPAUHINSTANCE__@@PAUHWND__@@@Z 004675b0 f   UseProxyDlg.obj
 0001:00066790       ?OnInitAdvDlg@UseProxyDlg@@SAXPAUHINSTANCE__@@PAUHWND__@@@Z 00467790 f   UseProxyDlg.obj
 0001:00067150       ?SetListColumn@UseProxyDlg@@SAXXZ 00468150 f   UseProxyDlg.obj
 0001:000678c0       ?SetListContent@UseProxyDlg@@SAXPAUHWND__@@@Z 004688c0 f   UseProxyDlg.obj
 0001:00067bf0       ?ClearStack@UseProxyDlg@@SAXXZ 00468bf0 f   UseProxyDlg.obj
 0001:00067c70       ?DeletePROXYCN@UseProxyDlg@@SAXPAG@Z 00468c70 f   UseProxyDlg.obj
 0001:00067e70       ?wcsstr@@YAPAGPAGPBG@Z     00468e70 f i UseProxyDlg.obj
 0001:00067ed0       ?SetState@UseProxyDlg@@SAXPAUHWND__@@PAG@Z 00468ed0 f   UseProxyDlg.obj
 0001:00067f80       ?AddOneProxyToList@UseProxyDlg@@SAXPAUProxyInfo@@HPAUHWND__@@@Z 00468f80 f   UseProxyDlg.obj
 0001:00068230       ?RestoreIPProc@UseProxyDlg@@SGIPAX@Z 00469230 f   UseProxyDlg.obj
 0001:000682c0       ?restore@UseProxyDlg@@SA_NH@Z 004692c0 f   UseProxyDlg.obj
 0001:00068540       ?UseProxy@UseProxyDlg@@SA_NPAD00@Z 00469540 f   UseProxyDlg.obj
 0001:00068b90       ?StopSearch@UseProxyDlg@@SAXXZ 00469b90 f   UseProxyDlg.obj
 0001:00068f50       ?GetSystemProxy@UseProxyDlg@@SA_NPAUHWND__@@@Z 00469f50 f   UseProxyDlg.obj
 0001:00069410       ?create@UseProxyDlg@@QAEHPAUHWND__@@PAUHINSTANCE__@@@Z 0046a410 f   UseProxyDlg.obj
 0001:00069490       ??0CWebDB@@QAE@XZ          0046a490 f   WebDB.obj
 0001:00069520       ??_ECWebDB@@UAEPAXI@Z      0046a520 f i WebDB.obj
 0001:00069520       ??_GCWebDB@@UAEPAXI@Z      0046a520 f i WebDB.obj
 0001:00069590       ??0CWebDB@@QAE@PAD@Z       0046a590 f   WebDB.obj
 0001:00069640       ?Init@CWebDB@@QAEHXZ       0046a640 f   WebDB.obj
 0001:000697d0       ??1CWebDB@@UAE@XZ          0046a7d0 f   WebDB.obj
 0001:00069870       ?ReadIconTitleItem@CWebDB@@QAEHPAUStatusTxtLinkItem@@@Z 0046a870 f   WebDB.obj
 0001:00069b80       ?ReadWndAdsItem@CWebDB@@QAEHPAUStatusTxtLinkItem@@@Z 0046ab80 f   WebDB.obj
 0001:00069e90       ?GetStatusTextLink@CWebDB@@QAEHHPAG0@Z 0046ae90 f   WebDB.obj
 0001:0006a010       ?GetWndTextLink@CWebDB@@QAEHHPAG0@Z 0046b010 f   WebDB.obj
 0001:0006a190       ?GetCount@CWebDB@@QAEHXZ   0046b190 f   WebDB.obj
 0001:0006a320       ??0CWINButton@@QAE@XZ      0046b320 f   WINButton.obj
 0001:0006a690       ??_ECWINButton@@UAEPAXI@Z  0046b690 f i WINButton.obj
 0001:0006a690       ??_GCWINButton@@UAEPAXI@Z  0046b690 f i WINButton.obj
 0001:0006a700       ??1CWINButton@@UAE@XZ      0046b700 f   WINButton.obj
 0001:0006a920       ?GetItemhWnd@CWINButton@@QAEHPAUHWND__@@@Z 0046b920 f   WINButton.obj
 0001:0006abf0       ?WINProc@CWINButton@@AAGJIIJ@Z 0046bbf0 f   WINButton.obj
 0001:0006b5c0       ?CreateThunk@CWINButton@@AAEP6GJPAUHWND__@@IIJ@ZXZ 0046c5c0 f   WINButton.obj
 0001:0006b690       ?GetThunk@CWINButton@@AAEP6GJPAUHWND__@@IIJ@ZXZ 0046c690 f   WINButton.obj
 0001:0006b6d0       ?stdProc@CWINButton@@CGJPAUHWND__@@IIJ@Z 0046c6d0 f   WINButton.obj
 0001:0006b750       ?SetText@CWINButton@@QAEHPAGK@Z 0046c750 f   WINButton.obj
 0001:0006b7e0       ?SetBackPic@CWINButton@@QAEHPAUHBITMAP__@@H@Z 0046c7e0 f   WINButton.obj
 0001:0006b9a0       ?SetHoverPic@CWINButton@@QAEHPAUHBITMAP__@@@Z 0046c9a0 f   WINButton.obj
 0001:0006b9f0       ?SetPressPic@CWINButton@@QAEHPAUHBITMAP__@@@Z 0046c9f0 f   WINButton.obj
 0001:0006ba40       ?SetDisablePic@CWINButton@@QAEHPAUHBITMAP__@@@Z 0046ca40 f   WINButton.obj
 0001:0006ba90       ?OnPaint@CWINButton@@QAEJPAUHDC__@@@Z 0046ca90 f   WINButton.obj
 0001:0006c190       ?SetText@CWINButton@@QAEHPAG@Z 0046d190 f   WINButton.obj
 0001:0006c220       ?SetupRegion@CWINButton@@QAEHK@Z 0046d220 f   WINButton.obj
 0001:0006c570       ?SetText@CWINButton@@QAEHPAGPAUHFONT__@@@Z 0046d570 f   WINButton.obj
 0001:0006c600       ?DrawDefault@CWINButton@@AAEHPAUHDC__@@@Z 0046d600 f   WINButton.obj
 0001:0006cac0       ?DrawFlat@CWINButton@@AAEHPAUHDC__@@PAUtagRECT@@@Z 0046dac0 f   WINButton.obj
 0001:0006cf20       ?DrawInsideBorder@CWINButton@@AAEHPAUHDC__@@PAUtagRECT@@@Z 0046df20 f   WINButton.obj
 0001:0006d260       ?SetIcon@CWINButton@@QAEHPAUHICON__@@@Z 0046e260 f   WINButton.obj
 0001:0006d2b0       ?SetDrag@CWINButton@@QAEHH@Z 0046e2b0 f   WINButton.obj
 0001:0006d300       ?Restore@CWINButton@@QAEHXZ 0046e300 f   WINButton.obj
 0001:0006d3e0       ?SetToolTip@CWINButton@@QAEHPAG@Z 0046e3e0 f   WINButton.obj
 0001:0006d5e0       ?ClearToolTip@CWINButton@@QAEHXZ 0046e5e0 f   WINButton.obj
 0001:0006d6ba       _RestoreAllWindows         0046e6ba f   hooklib:HOOKLIB.dll
 0001:0006d6c0       _ShowProcess               0046e6c0 f   hooklib:HOOKLIB.dll
 0001:0006d6c6       _MyHideWindows             0046e6c6 f   hooklib:HOOKLIB.dll
 0001:0006d6cc       _ReserveWnds               0046e6cc f   hooklib:HOOKLIB.dll
 0001:0006d6d2       _HideProcess               0046e6d2 f   hooklib:HOOKLIB.dll
 0001:0006d6d8       _SetMouseHook              0046e6d8 f   hooklib:HOOKLIB.dll
 0001:0006d6de       _SetTrayHook               0046e6de f   hooklib:HOOKLIB.dll
 0001:0006d6e4       _GetHidedProcessName       0046e6e4 f   hooklib:HOOKLIB.dll
 0001:0006d6ea       _SetParameter              0046e6ea f   hooklib:HOOKLIB.dll
 0001:0006d6f0       _RestoreVolume             0046e6f0 f   hooklib:HOOKLIB.dll
 0001:0006d6f6       _GetHidedProcessByIdx      0046e6f6 f   hooklib:HOOKLIB.dll
 0001:0006d6fc       _GetHidedProcessCount      0046e6fc f   hooklib:HOOKLIB.dll
 0001:0006d702       _InitCommonControlsEx@4    0046e702 f   comctl32:COMCTL32.dll
 0001:0006d708       _ImageList_Create@20       0046e708 f   comctl32:COMCTL32.dll
 0001:0006d70e       _ImageList_Remove@8        0046e70e f   comctl32:COMCTL32.dll
 0001:0006d714       _ImageList_ReplaceIcon@12  0046e714 f   comctl32:COMCTL32.dll
 0001:0006d71a       _PropertySheetW@4          0046e71a f   comctl32:COMCTL32.dll
 0001:0006d720       _CreatePropertySheetPageW@4 0046e720 f   comctl32:COMCTL32.dll
 0001:0006d726       _InitCommonControls@0      0046e726 f   comctl32:COMCTL32.dll
 0001:0006d72c       _SHDeleteKeyW@8            0046e72c f   shlwapi:SHLWAPI.dll
 0001:0006d732       _PathRemoveFileSpecA@4     0046e732 f   shlwapi:SHLWAPI.dll
 0001:0006d738       _PathRemoveFileSpecW@4     0046e738 f   shlwapi:SHLWAPI.dll
 0001:0006d73e       _closesocket@4             0046e73e f   ws2_32:WS2_32.dll
 0001:0006d744       _shutdown@8                0046e744 f   ws2_32:WS2_32.dll
 0001:0006d74a       _WSAGetLastError@0         0046e74a f   ws2_32:WS2_32.dll
 0001:0006d750       _recv@16                   0046e750 f   ws2_32:WS2_32.dll
 0001:0006d756       _socket@12                 0046e756 f   ws2_32:WS2_32.dll
 0001:0006d75c       _WSAStartup@8              0046e75c f   ws2_32:WS2_32.dll
 0001:0006d762       _connect@12                0046e762 f   ws2_32:WS2_32.dll
 0001:0006d768       _htons@4                   0046e768 f   ws2_32:WS2_32.dll
 0001:0006d76e       _gethostbyname@4           0046e76e f   ws2_32:WS2_32.dll
 0001:0006d774       _send@16                   0046e774 f   ws2_32:WS2_32.dll
 0001:0006d77a       _WSACleanup@0              0046e77a f   ws2_32:WS2_32.dll
 0001:0006d780       _getprotobyname@4          0046e780 f   ws2_32:WS2_32.dll
 0001:0006d786       _inet_addr@4               0046e786 f   ws2_32:WS2_32.dll
 0001:0006d78c       _getservbyname@8           0046e78c f   ws2_32:WS2_32.dll
 0001:0006d792       _VerQueryValueW@16         0046e792 f   version:VERSION.dll
 0001:0006d798       _GetFileVersionInfoW@16    0046e798 f   version:VERSION.dll
 0001:0006d79e       _GetFileVersionInfoSizeW@8 0046e79e f   version:VERSION.dll
 0001:0006d7a4       _InternetCrackUrlA@16      0046e7a4 f   wininet:WININET.dll
 0001:0006d7aa       _InternetSetOptionW@16     0046e7aa f   wininet:WININET.dll
 0001:0006d7b0       _RARCloseArchive@4         0046e7b0 f   unrar:unrar.dll
 0001:0006d7b6       _RARProcessFileW@16        0046e7b6 f   unrar:unrar.dll
 0001:0006d7bc       _RARReadHeader@8           0046e7bc f   unrar:unrar.dll
 0001:0006d7c2       _RARSetCallback@12         0046e7c2 f   unrar:unrar.dll
 0001:0006d7c8       _RAROpenArchiveEx@4        0046e7c8 f   unrar:unrar.dll
 0001:0006d7ce       _CloseHandle@4             0046e7ce f   kernel32:KERNEL32.dll
 0001:0006d7d4       _CreateThread@24           0046e7d4 f   kernel32:KERNEL32.dll
 0001:0006d7da       _GetLastError@0            0046e7da f   kernel32:KERNEL32.dll
 0001:0006d7e0       _WritePrivateProfileStringW@16 0046e7e0 f   kernel32:KERNEL32.dll
 0001:0006d7e6       _DeleteFileW@4             0046e7e6 f   kernel32:KERNEL32.dll
 0001:0006d7ec       _GetWindowsDirectoryW@8    0046e7ec f   kernel32:KERNEL32.dll
 0001:0006d7f2       _GetTempPathW@8            0046e7f2 f   kernel32:KERNEL32.dll
 0001:0006d7f8       _FindClose@4               0046e7f8 f   kernel32:KERNEL32.dll
 0001:0006d7fe       _RemoveDirectoryW@4        0046e7fe f   kernel32:KERNEL32.dll
 0001:0006d804       _SetFileAttributesW@8      0046e804 f   kernel32:KERNEL32.dll
 0001:0006d80a       _GetFileAttributesW@4      0046e80a f   kernel32:KERNEL32.dll
 0001:0006d810       _FindNextFileW@8           0046e810 f   kernel32:KERNEL32.dll
 0001:0006d816       _FindFirstFileW@8          0046e816 f   kernel32:KERNEL32.dll
 0001:0006d81c       _GetVersionExW@4           0046e81c f   kernel32:KERNEL32.dll
 0001:0006d822       _HeapFree@12               0046e822 f   kernel32:KERNEL32.dll
 0001:0006d828       _GetProcessHeap@0          0046e828 f   kernel32:KERNEL32.dll
 0001:0006d82e       _HeapAlloc@12              0046e82e f   kernel32:KERNEL32.dll
 0001:0006d834       _GetCurrentProcess@0       0046e834 f   kernel32:KERNEL32.dll
 0001:0006d83a       _GlobalFree@4              0046e83a f   kernel32:KERNEL32.dll
 0001:0006d840       _GlobalAlloc@8             0046e840 f   kernel32:KERNEL32.dll
 0001:0006d846       _OutputDebugStringA@4      0046e846 f   kernel32:KERNEL32.dll
 0001:0006d84c       _GetModuleFileNameA@12     0046e84c f   kernel32:KERNEL32.dll
 0001:0006d852       _WideCharToMultiByte@32    0046e852 f   kernel32:KERNEL32.dll
 0001:0006d858       _MultiByteToWideChar@24    0046e858 f   kernel32:KERNEL32.dll
 0001:0006d85e       _VirtualFree@12            0046e85e f   kernel32:KERNEL32.dll
 0001:0006d864       _ReadFile@20               0046e864 f   kernel32:KERNEL32.dll
 0001:0006d86a       _VirtualAlloc@16           0046e86a f   kernel32:KERNEL32.dll
 0001:0006d870       _GetFileSize@8             0046e870 f   kernel32:KERNEL32.dll
 0001:0006d876       _OutputDebugStringW@4      0046e876 f   kernel32:KERNEL32.dll
 0001:0006d87c       _CreateFileW@28            0046e87c f   kernel32:KERNEL32.dll
 0001:0006d882       _GetCurrentThreadId@0      0046e882 f   kernel32:KERNEL32.dll
 0001:0006d888       _GetVolumeInformationW@32  0046e888 f   kernel32:KERNEL32.dll
 0001:0006d88e       _GetModuleFileNameW@12     0046e88e f   kernel32:KERNEL32.dll
 0001:0006d894       _GetModuleHandleW@4        0046e894 f   kernel32:KERNEL32.dll
 0001:0006d89a       _GetSystemTime@4           0046e89a f   kernel32:KERNEL32.dll
 0001:0006d8a0       _GlobalAddAtomW@4          0046e8a0 f   kernel32:KERNEL32.dll
 0001:0006d8a6       _InitializeCriticalSection@4 0046e8a6 f   kernel32:KERNEL32.dll
 0001:0006d8ac       _IsBadReadPtr@8            0046e8ac f   kernel32:KERNEL32.dll
 0001:0006d8b2       _Process32NextW@8          0046e8b2 f   kernel32:KERNEL32.dll
 0001:0006d8b8       _Process32FirstW@8         0046e8b8 f   kernel32:KERNEL32.dll
 0001:0006d8be       _CreateToolhelp32Snapshot@8 0046e8be f   kernel32:KERNEL32.dll
 0001:0006d8c4       _GetCurrentProcessId@0     0046e8c4 f   kernel32:KERNEL32.dll
 0001:0006d8ca       _LeaveCriticalSection@4    0046e8ca f   kernel32:KERNEL32.dll
 0001:0006d8d0       _EnterCriticalSection@4    0046e8d0 f   kernel32:KERNEL32.dll
 0001:0006d8d6       _GlobalDeleteAtom@4        0046e8d6 f   kernel32:KERNEL32.dll
 0001:0006d8dc       _SetLastError@4            0046e8dc f   kernel32:KERNEL32.dll
 0001:0006d8e2       _GlobalFindAtomW@4         0046e8e2 f   kernel32:KERNEL32.dll
 0001:0006d8e8       _LoadLibraryW@4            0046e8e8 f   kernel32:KERNEL32.dll
 0001:0006d8ee       _SetCurrentDirectoryW@4    0046e8ee f   kernel32:KERNEL32.dll
 0001:0006d8f4       _WriteFile@20              0046e8f4 f   kernel32:KERNEL32.dll
 0001:0006d8fa       _CreateDirectoryW@8        0046e8fa f   kernel32:KERNEL32.dll
 0001:0006d900       _DeleteCriticalSection@4   0046e900 f   kernel32:KERNEL32.dll
 0001:0006d906       _TerminateProcess@8        0046e906 f   kernel32:KERNEL32.dll
 0001:0006d90c       _OpenProcess@12            0046e90c f   kernel32:KERNEL32.dll
 0001:0006d912       _Sleep@4                   0046e912 f   kernel32:KERNEL32.dll
 0001:0006d918       _VirtualFreeEx@16          0046e918 f   kernel32:KERNEL32.dll
 0001:0006d91e       _ReadProcessMemory@20      0046e91e f   kernel32:KERNEL32.dll
 0001:0006d924       _VirtualAllocEx@20         0046e924 f   kernel32:KERNEL32.dll
 0001:0006d92a       _SetFilePointer@16         0046e92a f   kernel32:KERNEL32.dll
 0001:0006d930       _SetEndOfFile@4            0046e930 f   kernel32:KERNEL32.dll
 0001:0006d936       _GetSystemDefaultLangID@0  0046e936 f   kernel32:KERNEL32.dll
 0001:0006d93c       _GetPrivateProfileStringW@24 0046e93c f   kernel32:KERNEL32.dll
 0001:0006d942       _CopyFileW@12              0046e942 f   kernel32:KERNEL32.dll
 0001:0006d948       _GetProcAddress@8          0046e948 f   kernel32:KERNEL32.dll
 0001:0006d94e       _LocalFree@4               0046e94e f   kernel32:KERNEL32.dll
 0001:0006d954       _LocalUnlock@4             0046e954 f   kernel32:KERNEL32.dll
 0001:0006d95a       _LocalLock@4               0046e95a f   kernel32:KERNEL32.dll
 0001:0006d960       _LocalAlloc@8              0046e960 f   kernel32:KERNEL32.dll
 0001:0006d966       _GetSystemDirectoryW@8     0046e966 f   kernel32:KERNEL32.dll
 0001:0006d96c       _DeviceIoControl@32        0046e96c f   kernel32:KERNEL32.dll
 0001:0006d972       _TerminateThread@8         0046e972 f   kernel32:KERNEL32.dll
 0001:0006d978       _GetExitCodeThread@8       0046e978 f   kernel32:KERNEL32.dll
 0001:0006d97e       _WaitForSingleObject@8     0046e97e f   kernel32:KERNEL32.dll
 0001:0006d984       _MapViewOfFile@20          0046e984 f   kernel32:KERNEL32.dll
 0001:0006d98a       _CreateFileMappingW@24     0046e98a f   kernel32:KERNEL32.dll
 0001:0006d990       _UnmapViewOfFile@4         0046e990 f   kernel32:KERNEL32.dll
 0001:0006d996       _EndDialog@8               0046e996 f   user32:USER32.dll
 0001:0006d99c       _DestroyWindow@4           0046e99c f   user32:USER32.dll
 0001:0006d9a2       _SendMessageW@16           0046e9a2 f   user32:USER32.dll
 0001:0006d9a8       _GetCursorPos@4            0046e9a8 f   user32:USER32.dll
 0001:0006d9ae       _SetCursor@4               0046e9ae f   user32:USER32.dll
 0001:0006d9b4       _PtInRect@12               0046e9b4 f   user32:USER32.dll
 0001:0006d9ba       _ClientToScreen@8          0046e9ba f   user32:USER32.dll
 0001:0006d9c0       _SetWindowPos@28           0046e9c0 f   user32:USER32.dll
 0001:0006d9c6       _GetWindowRect@8           0046e9c6 f   user32:USER32.dll
 0001:0006d9cc       _DestroyIcon@4             0046e9cc f   user32:USER32.dll
 0001:0006d9d2       _IsDlgButtonChecked@8      0046e9d2 f   user32:USER32.dll
 0001:0006d9d8       _SendDlgItemMessageW@20    0046e9d8 f   user32:USER32.dll
 0001:0006d9de       _ShowWindow@8              0046e9de f   user32:USER32.dll
 0001:0006d9e4       _CopyIcon@4                0046e9e4 f   user32:USER32.dll
 0001:0006d9ea       _LoadCursorW@8             0046e9ea f   user32:USER32.dll
 0001:0006d9f0       _CheckDlgButton@12         0046e9f0 f   user32:USER32.dll
 0001:0006d9f6       _GetSysColor@4             0046e9f6 f   user32:USER32.dll
 0001:0006d9fc       _GetDlgItem@8              0046e9fc f   user32:USER32.dll
 0001:0006da02       _SetWindowLongW@12         0046ea02 f   user32:USER32.dll
 0001:0006da08       _GetWindowLongW@8          0046ea08 f   user32:USER32.dll
 0001:0006da0e       _CreateDialogParamW@20     0046ea0e f   user32:USER32.dll
 0001:0006da14       _IsWindowEnabled@4         0046ea14 f   user32:USER32.dll
 0001:0006da1a       _EmptyClipboard@0          0046ea1a f   user32:USER32.dll
 0001:0006da20       _OpenClipboard@4           0046ea20 f   user32:USER32.dll
 0001:0006da26       _MessageBoxW@16            0046ea26 f   user32:USER32.dll
 0001:0006da2c       _SetDlgItemTextW@12        0046ea2c f   user32:USER32.dll
 0001:0006da32       _GetClientRect@8           0046ea32 f   user32:USER32.dll
 0001:0006da38       _RegisterWindowMessageW@4  0046ea38 f   user32:USER32.dll
 0001:0006da3e       _LoadIconW@8               0046ea3e f   user32:USER32.dll
 0001:0006da44       _DialogBoxParamW@20        0046ea44 f   user32:USER32.dll
 0001:0006da4a       _SetWindowsHookExW@16      0046ea4a f   user32:USER32.dll
 0001:0006da50       _SetForegroundWindow@4     0046ea50 f   user32:USER32.dll
 0001:0006da56       _GetMenuStringW@20         0046ea56 f   user32:USER32.dll
 0001:0006da5c       _PostQuitMessage@4         0046ea5c f   user32:USER32.dll
 0001:0006da62       _DestroyMenu@4             0046ea62 f   user32:USER32.dll
 0001:0006da68       _AppendMenuW@16            0046ea68 f   user32:USER32.dll
 0001:0006da6e       _SetMenuItemInfoW@16       0046ea6e f   user32:USER32.dll
 0001:0006da74       _GetMenu@4                 0046ea74 f   user32:USER32.dll
 0001:0006da7a       _DeleteMenu@12             0046ea7a f   user32:USER32.dll
 0001:0006da80       _GetMenuItemCount@4        0046ea80 f   user32:USER32.dll
 0001:0006da86       _CheckMenuItem@12          0046ea86 f   user32:USER32.dll
 0001:0006da8c       _SetMenuDefaultItem@12     0046ea8c f   user32:USER32.dll
 0001:0006da92       _GetActiveWindow@0         0046ea92 f   user32:USER32.dll
 0001:0006da98       _mouse_event@20            0046ea98 f   user32:USER32.dll
 0001:0006da9e       _GetDesktopWindow@0        0046ea9e f   user32:USER32.dll
 0001:0006daa4       _IsWindowVisible@4         0046eaa4 f   user32:USER32.dll
 0001:0006daaa       _GetParent@4               0046eaaa f   user32:USER32.dll
 0001:0006dab0       _TrackPopupMenu@28         0046eab0 f   user32:USER32.dll
 0001:0006dab6       _EnableMenuItem@12         0046eab6 f   user32:USER32.dll
 0001:0006dabc       _ModifyMenuW@20            0046eabc f   user32:USER32.dll
 0001:0006dac2       _GetDlgCtrlID@4            0046eac2 f   user32:USER32.dll
 0001:0006dac8       _ReleaseDC@8               0046eac8 f   user32:USER32.dll
 0001:0006dace       _GetWindowDC@4             0046eace f   user32:USER32.dll
 0001:0006dad4       _GetWindowThreadProcessId@8 0046ead4 f   user32:USER32.dll
 0001:0006dada       _SetClassLongW@12          0046eada f   user32:USER32.dll
 0001:0006dae0       _LoadBitmapW@8             0046eae0 f   user32:USER32.dll
 0001:0006dae6       _SetTimer@16               0046eae6 f   user32:USER32.dll
 0001:0006daec       _EnableWindow@8            0046eaec f   user32:USER32.dll
 0001:0006daf2       _RegisterHotKey@16         0046eaf2 f   user32:USER32.dll
 0001:0006daf8       _CreateWindowExW@48        0046eaf8 f   user32:USER32.dll
 0001:0006dafe       _IsWindow@4                0046eafe f   user32:USER32.dll
 0001:0006db04       _GetSubMenu@8              0046eb04 f   user32:USER32.dll
 0001:0006db0a       _LoadMenuW@8               0046eb0a f   user32:USER32.dll
 0001:0006db10       _LoadImageW@24             0046eb10 f   user32:USER32.dll
 0001:0006db16       _SetWindowTextW@8          0046eb16 f   user32:USER32.dll
 0001:0006db1c       _PostMessageW@16           0046eb1c f   user32:USER32.dll
 0001:0006db22       _InvalidateRect@12         0046eb22 f   user32:USER32.dll
 0001:0006db28       _ScreenToClient@8          0046eb28 f   user32:USER32.dll
 0001:0006db2e       _MapWindowPoints@16        0046eb2e f   user32:USER32.dll
 0001:0006db34       _SetFocus@4                0046eb34 f   user32:USER32.dll
 0001:0006db3a       _GetDC@4                   0046eb3a f   user32:USER32.dll
 0001:0006db40       _EnumWindows@8             0046eb40 f   user32:USER32.dll
 0001:0006db46       _GetClassLongW@8           0046eb46 f   user32:USER32.dll
 0001:0006db4c       _SendMessageTimeoutW@28    0046eb4c f   user32:USER32.dll
 0001:0006db52       _GetWindowTextW@12         0046eb52 f   user32:USER32.dll
 0001:0006db58       _UnregisterHotKey@8        0046eb58 f   user32:USER32.dll
 0001:0006db5e       _SetDlgItemInt@16          0046eb5e f   user32:USER32.dll
 0001:0006db64       _CheckRadioButton@16       0046eb64 f   user32:USER32.dll
 0001:0006db6a       _CallNextHookEx@16         0046eb6a f   user32:USER32.dll
 0001:0006db70       _GetWindowTextLengthW@4    0046eb70 f   user32:USER32.dll
 0001:0006db76       _UnhookWindowsHookEx@4     0046eb76 f   user32:USER32.dll
 0001:0006db7c       _FindWindowExW@16          0046eb7c f   user32:USER32.dll
 0001:0006db82       _FindWindowW@8             0046eb82 f   user32:USER32.dll
 0001:0006db88       _GetIconInfo@8             0046eb88 f   user32:USER32.dll
 0001:0006db8e       _GetDlgItemTextW@16        0046eb8e f   user32:USER32.dll
 0001:0006db94       _GetSystemMetrics@4        0046eb94 f   user32:USER32.dll
 0001:0006db9a       _DrawIconEx@36             0046eb9a f   user32:USER32.dll
 0001:0006dba0       _EnumChildWindows@12       0046eba0 f   user32:USER32.dll
 0001:0006dba6       _DrawMenuBar@4             0046eba6 f   user32:USER32.dll
 0001:0006dbac       _InsertMenuW@20            0046ebac f   user32:USER32.dll
 0001:0006dbb2       _SetLayeredWindowAttributes@16 0046ebb2 f   user32:USER32.dll
 0001:0006dbb8       _KillTimer@8               0046ebb8 f   user32:USER32.dll
 0001:0006dbbe       _AnimateWindow@12          0046ebbe f   user32:USER32.dll
 0001:0006dbc4       _CallWindowProcW@20        0046ebc4 f   user32:USER32.dll
 0001:0006dbca       _EndPaint@8                0046ebca f   user32:USER32.dll
 0001:0006dbd0       _DrawTextW@20              0046ebd0 f   user32:USER32.dll
 0001:0006dbd6       _BeginPaint@8              0046ebd6 f   user32:USER32.dll
 0001:0006dbdc       _DefWindowProcW@16         0046ebdc f   user32:USER32.dll
 0001:0006dbe2       _ReleaseCapture@0          0046ebe2 f   user32:USER32.dll
 0001:0006dbe8       _SetCapture@4              0046ebe8 f   user32:USER32.dll
 0001:0006dbee       _SetWindowRgn@12           0046ebee f   user32:USER32.dll
 0001:0006dbf4       _SetPropW@12               0046ebf4 f   user32:USER32.dll
 0001:0006dbfa       _TrackMouseEvent@4         0046ebfa f   user32:USER32.dll
 0001:0006dc00       _MoveWindow@24             0046ec00 f   user32:USER32.dll
 0001:0006dc06       _GetWindowRgn@8            0046ec06 f   user32:USER32.dll
 0001:0006dc0c       _GetPropW@8                0046ec0c f   user32:USER32.dll
 0001:0006dc12       _DrawIcon@16               0046ec12 f   user32:USER32.dll
 0001:0006dc18       _SetRect@20                0046ec18 f   user32:USER32.dll
 0001:0006dc1e       _FillRect@12               0046ec1e f   user32:USER32.dll
 0001:0006dc24       _DrawFocusRect@8           0046ec24 f   user32:USER32.dll
 0001:0006dc2a       _DeleteObject@4            0046ec2a f   gdi32:GDI32.dll
 0001:0006dc30       _SetBkColor@8              0046ec30 f   gdi32:GDI32.dll
 0001:0006dc36       _CreateSolidBrush@4        0046ec36 f   gdi32:GDI32.dll
 0001:0006dc3c       _CreateFontIndirectW@4     0046ec3c f   gdi32:GDI32.dll
 0001:0006dc42       _SelectObject@8            0046ec42 f   gdi32:GDI32.dll
 0001:0006dc48       _GetStockObject@4          0046ec48 f   gdi32:GDI32.dll
 0001:0006dc4e       _SelectClipRgn@8           0046ec4e f   gdi32:GDI32.dll
 0001:0006dc54       _CreateRoundRectRgn@24     0046ec54 f   gdi32:GDI32.dll
 0001:0006dc5a       _SetTextColor@8            0046ec5a f   gdi32:GDI32.dll
 0001:0006dc60       _GetDeviceCaps@8           0046ec60 f   gdi32:GDI32.dll
 0001:0006dc66       _BitBlt@36                 0046ec66 f   gdi32:GDI32.dll
 0001:0006dc6c       _DeleteDC@4                0046ec6c f   gdi32:GDI32.dll
 0001:0006dc72       _CreateCompatibleDC@4      0046ec72 f   gdi32:GDI32.dll
 0001:0006dc78       _GetObjectW@12             0046ec78 f   gdi32:GDI32.dll
 0001:0006dc7e       _SetBkMode@8               0046ec7e f   gdi32:GDI32.dll
 0001:0006dc84       _CreatePen@12              0046ec84 f   gdi32:GDI32.dll
 0001:0006dc8a       _RestoreDC@8               0046ec8a f   gdi32:GDI32.dll
 0001:0006dc90       _CreateRectRgn@16          0046ec90 f   gdi32:GDI32.dll
 0001:0006dc96       _SaveDC@4                  0046ec96 f   gdi32:GDI32.dll
 0001:0006dc9c       _CreateCompatibleBitmap@12 0046ec9c f   gdi32:GDI32.dll
 0001:0006dca2       _CombineRgn@16             0046eca2 f   gdi32:GDI32.dll
 0001:0006dca8       _GetPixel@12               0046eca8 f   gdi32:GDI32.dll
 0001:0006dcae       _RoundRect@28              0046ecae f   gdi32:GDI32.dll
 0001:0006dcb4       _LineTo@12                 0046ecb4 f   gdi32:GDI32.dll
 0001:0006dcba       _MoveToEx@16               0046ecba f   gdi32:GDI32.dll
 0001:0006dcc0       _GetOpenFileNameW@4        0046ecc0 f   comdlg32:comdlg32.dll
 0001:0006dcc6       _RegCloseKey@4             0046ecc6 f   advapi32:ADVAPI32.dll
 0001:0006dccc       _RegQueryValueExW@24       0046eccc f   advapi32:ADVAPI32.dll
 0001:0006dcd2       _RegEnumValueW@32          0046ecd2 f   advapi32:ADVAPI32.dll
 0001:0006dcd8       _RegOpenKeyW@12            0046ecd8 f   advapi32:ADVAPI32.dll
 0001:0006dcde       _GetUserNameW@8            0046ecde f   advapi32:ADVAPI32.dll
 0001:0006dce4       _FreeSid@4                 0046ece4 f   advapi32:ADVAPI32.dll
 0001:0006dcea       _SetSecurityDescriptorDacl@16 0046ecea f   advapi32:ADVAPI32.dll
 0001:0006dcf0       _InitializeSecurityDescriptor@8 0046ecf0 f   advapi32:ADVAPI32.dll
 0001:0006dcf6       _AddAce@20                 0046ecf6 f   advapi32:ADVAPI32.dll
 0001:0006dcfc       _InitializeAcl@12          0046ecfc f   advapi32:ADVAPI32.dll
 0001:0006dd02       _GetLengthSid@4            0046ed02 f   advapi32:ADVAPI32.dll
 0001:0006dd08       _AllocateAndInitializeSid@44 0046ed08 f   advapi32:ADVAPI32.dll
 0001:0006dd0e       _RegGetKeySecurity@16      0046ed0e f   advapi32:ADVAPI32.dll
 0001:0006dd14       _RegOpenKeyExW@20          0046ed14 f   advapi32:ADVAPI32.dll
 0001:0006dd1a       _CopySid@12                0046ed1a f   advapi32:ADVAPI32.dll
 0001:0006dd20       _GetTokenInformation@20    0046ed20 f   advapi32:ADVAPI32.dll
 0001:0006dd26       _OpenProcessToken@12       0046ed26 f   advapi32:ADVAPI32.dll
 0001:0006dd2c       _GetSidSubAuthority@8      0046ed2c f   advapi32:ADVAPI32.dll
 0001:0006dd32       _GetSidSubAuthorityCount@4 0046ed32 f   advapi32:ADVAPI32.dll
 0001:0006dd38       _GetSidIdentifierAuthority@4 0046ed38 f   advapi32:ADVAPI32.dll
 0001:0006dd3e       _RegEnumKeyW@16            0046ed3e f   advapi32:ADVAPI32.dll
 0001:0006dd44       _RegQueryInfoKeyW@48       0046ed44 f   advapi32:ADVAPI32.dll
 0001:0006dd4a       _RegSetKeySecurity@12      0046ed4a f   advapi32:ADVAPI32.dll
 0001:0006dd50       _RegCreateKeyW@12          0046ed50 f   advapi32:ADVAPI32.dll
 0001:0006dd56       _RegDeleteKeyW@8           0046ed56 f   advapi32:ADVAPI32.dll
 0001:0006dd5c       _RegDeleteValueW@8         0046ed5c f   advapi32:ADVAPI32.dll
 0001:0006dd62       _RegSetValueExW@24         0046ed62 f   advapi32:ADVAPI32.dll
 0001:0006dd68       _RegCreateKeyExW@36        0046ed68 f   advapi32:ADVAPI32.dll
 0001:0006dd6e       _CloseServiceHandle@4      0046ed6e f   advapi32:ADVAPI32.dll
 0001:0006dd74       _StartServiceW@12          0046ed74 f   advapi32:ADVAPI32.dll
 0001:0006dd7a       _CreateServiceW@52         0046ed7a f   advapi32:ADVAPI32.dll
 0001:0006dd80       _OpenSCManagerW@12         0046ed80 f   advapi32:ADVAPI32.dll
 0001:0006dd86       _DeleteService@4           0046ed86 f   advapi32:ADVAPI32.dll
 0001:0006dd8c       _ControlService@12         0046ed8c f   advapi32:ADVAPI32.dll
 0001:0006dd92       _OpenServiceW@12           0046ed92 f   advapi32:ADVAPI32.dll
 0001:0006dd98       _RegSetValueExA@24         0046ed98 f   advapi32:ADVAPI32.dll
 0001:0006dd9e       _RegQueryValueExA@24       0046ed9e f   advapi32:ADVAPI32.dll
 0001:0006dda4       _RegOpenKeyExA@20          0046eda4 f   advapi32:ADVAPI32.dll
 0001:0006ddaa       _SHGetSpecialFolderPathW@16 0046edaa f   shell32:SHELL32.dll
 0001:0006ddb0       _ShellExecuteW@24          0046edb0 f   shell32:SHELL32.dll
 0001:0006ddb6       _Shell_NotifyIconW@8       0046edb6 f   shell32:SHELL32.dll
 0001:0006ddbc       _SHGetPathFromIDListW@8    0046edbc f   shell32:SHELL32.dll
 0001:0006ddc2       _SHGetSpecialFolderLocation@12 0046edc2 f   shell32:SHELL32.dll
 0001:0006ddc8       _SHGetMalloc@4             0046edc8 f   shell32:SHELL32.dll
 0001:0006ddce       _SHFileOperationW@4        0046edce f   shell32:SHELL32.dll
 0001:0006ddd4       _CoCreateInstance@20       0046edd4 f   ole32:ole32.dll
 0001:0006ddda       _CoInitialize@4            0046edda f   ole32:ole32.dll
 0001:0006dde0       _OleSetContainedObject@8   0046ede0 f   ole32:ole32.dll
 0001:0006dde6       _OleCreate@28              0046ede6 f   ole32:ole32.dll
 0001:0006ddec       _CoUninitialize@0          0046edec f   ole32:ole32.dll
 0001:0006ddf2       _StringFromGUID2@12        0046edf2 f   ole32:ole32.dll
 0001:0006ddf8       _CoCreateGuid@4            0046edf8 f   ole32:ole32.dll
 0001:0006ddfe       _CLSIDFromString@8         0046edfe f   ole32:ole32.dll
 0001:0006de04       _SafeArrayDestroy@4        0046ee04 f   oleaut32:OLEAUT32.dll
 0001:0006de0a       _SafeArrayAccessData@8     0046ee0a f   oleaut32:OLEAUT32.dll
 0001:0006de10       _SafeArrayCreate@12        0046ee10 f   oleaut32:OLEAUT32.dll
 0001:0006de16       _VariantClear@4            0046ee16 f   oleaut32:OLEAUT32.dll
 0001:0006de1c       _SysAllocString@4          0046ee1c f   oleaut32:OLEAUT32.dll
 0001:0006de22       _VariantInit@4             0046ee22 f   oleaut32:OLEAUT32.dll
 0001:0006de28       _SysFreeString@4           0046ee28 f   oleaut32:OLEAUT32.dll
 0001:0006de2e       _sqlite3_free              0046ee2e f   sqlite3:sqlite3.dll
 0001:0006de34       _sqlite3_mprintf           0046ee34 f   sqlite3:sqlite3.dll
 0001:0006de3a       _sqlite3_vmprintf          0046ee3a f   sqlite3:sqlite3.dll
 0001:0006de40       _sqlite3_column_count      0046ee40 f   sqlite3:sqlite3.dll
 0001:0006de46       _sqlite3_column_text       0046ee46 f   sqlite3:sqlite3.dll
 0001:0006de4c       _sqlite3_column_int        0046ee4c f   sqlite3:sqlite3.dll
 0001:0006de52       _sqlite3_column_double     0046ee52 f   sqlite3:sqlite3.dll
 0001:0006de58       _sqlite3_column_blob       0046ee58 f   sqlite3:sqlite3.dll
 0001:0006de5e       _sqlite3_column_bytes      0046ee5e f   sqlite3:sqlite3.dll
 0001:0006de64       _sqlite3_column_name       0046ee64 f   sqlite3:sqlite3.dll
 0001:0006de6a       _sqlite3_column_decltype   0046ee6a f   sqlite3:sqlite3.dll
 0001:0006de70       _sqlite3_column_type       0046ee70 f   sqlite3:sqlite3.dll
 0001:0006de76       _sqlite3_errmsg            0046ee76 f   sqlite3:sqlite3.dll
 0001:0006de7c       _sqlite3_finalize          0046ee7c f   sqlite3:sqlite3.dll
 0001:0006de82       _sqlite3_step              0046ee82 f   sqlite3:sqlite3.dll
 0001:0006de88       _sqlite3_free_table        0046ee88 f   sqlite3:sqlite3.dll
 0001:0006de8e       _sqlite3_reset             0046ee8e f   sqlite3:sqlite3.dll
 0001:0006de94       _sqlite3_changes           0046ee94 f   sqlite3:sqlite3.dll
 0001:0006de9a       _sqlite3_bind_text         0046ee9a f   sqlite3:sqlite3.dll
 0001:0006dea0       _sqlite3_bind_int          0046eea0 f   sqlite3:sqlite3.dll
 0001:0006dea6       _sqlite3_bind_double       0046eea6 f   sqlite3:sqlite3.dll
 0001:0006deac       _sqlite3_bind_blob         0046eeac f   sqlite3:sqlite3.dll
 0001:0006deb2       _sqlite3_bind_null         0046eeb2 f   sqlite3:sqlite3.dll
 0001:0006deb8       _sqlite3_open              0046eeb8 f   sqlite3:sqlite3.dll
 0001:0006debe       _sqlite3_close             0046eebe f   sqlite3:sqlite3.dll
 0001:0006dec4       _sqlite3_exec              0046eec4 f   sqlite3:sqlite3.dll
 0001:0006deca       _sqlite3_get_table         0046eeca f   sqlite3:sqlite3.dll
 0001:0006ded0       _sqlite3_last_insert_rowid 0046eed0 f   sqlite3:sqlite3.dll
 0001:0006ded6       _sqlite3_busy_timeout      0046eed6 f   sqlite3:sqlite3.dll
 0001:0006dedc       _sqlite3_prepare           0046eedc f   sqlite3:sqlite3.dll
 0001:0006def0       ??3@YAXPAX@Z               0046eef0 f   msvcprtd:delop_s.obj
 0001:0006df02       __chkesp                   0046ef02 f   MSVCRTD:MSVCRTD.dll
 0001:0006df08       _wcscmp                    0046ef08 f   MSVCRTD:MSVCRTD.dll
 0001:0006df0e       _memset                    0046ef0e f   MSVCRTD:MSVCRTD.dll
 0001:0006df14       _wcslen                    0046ef14 f   MSVCRTD:MSVCRTD.dll
 0001:0006df1a       ??2@YAPAXI@Z               0046ef1a f   MSVCRTD:MSVCRTD.dll
 0001:0006df20       _fclose                    0046ef20 f   MSVCRTD:MSVCRTD.dll
 0001:0006df26       __wfopen                   0046ef26 f   MSVCRTD:MSVCRTD.dll
 0001:0006df2c       _wcscat                    0046ef2c f   MSVCRTD:MSVCRTD.dll
 0001:0006df32       __wcsicmp                  0046ef32 f   MSVCRTD:MSVCRTD.dll
 0001:0006df38       _wcscpy                    0046ef38 f   MSVCRTD:MSVCRTD.dll
 0001:0006df40       __chkstk                   0046ef40 f   MSVCRTD:chkstk.obj
 0001:0006df40       __alloca_probe             0046ef40 f   MSVCRTD:chkstk.obj
 0001:0006df70       _memcpy                    0046ef70 f   MSVCRTD:MSVCRTD.dll
 0001:0006df76       _swprintf                  0046ef76 f   MSVCRTD:MSVCRTD.dll
 0001:0006df80       ??0type_info@@AAE@ABV0@@Z  0046ef80 f   MSVCRTD:ti_inst.obj
 0001:0006dfa0       ??_Etype_info@@UAEPAXI@Z   0046efa0 f i MSVCRTD:ti_inst.obj
 0001:0006dfa0       ??_Gtype_info@@UAEPAXI@Z   0046efa0 f i MSVCRTD:ti_inst.obj
 0001:0006dfd0       ??4type_info@@AAEAAV0@ABV0@@Z 0046efd0 f   MSVCRTD:ti_inst.obj
 0001:0006dfe0       _malloc                    0046efe0 f   MSVCRTD:MSVCRTD.dll
 0001:0006dfe6       _strlen                    0046efe6 f   MSVCRTD:MSVCRTD.dll
 0001:0006dfec       __CxxThrowException@8      0046efec f   MSVCRTD:MSVCRTD.dll
 0001:0006dff2       _free                      0046eff2 f   MSVCRTD:MSVCRTD.dll
 0001:0006dff8       ___CxxFrameHandler         0046eff8 f   MSVCRTD:MSVCRTD.dll
 0001:0006e000       _strcmp                    0046f000 f   MSVCRTD:MSVCRTD.dll
 0001:0006e006       _atoi                      0046f006 f   MSVCRTD:MSVCRTD.dll
 0001:0006e00c       _atof                      0046f00c f   MSVCRTD:MSVCRTD.dll
 0001:0006e012       _sprintf                   0046f012 f   MSVCRTD:MSVCRTD.dll
 0001:0006e018       __CrtDbgReport             0046f018 f   MSVCRTD:MSVCRTD.dll
 0001:0006e01e       _memcmp                    0046f01e f   MSVCRTD:MSVCRTD.dll
 0001:0006e024       _strcat                    0046f024 f   MSVCRTD:MSVCRTD.dll
 0001:0006e02a       _strcpy                    0046f02a f   MSVCRTD:MSVCRTD.dll
 0001:0006e030       ??_M@YGXPAXIHP6EX0@Z@Z     0046f030 f   MSVCRTD:ehvecdtr.obj
 0001:0006e0e0       ?__ArrayUnwind@@YGXPAXIHP6EX0@Z@Z 0046f0e0 f   MSVCRTD:ehvecdtr.obj
 0001:0006e18c       __beginthreadex            0046f18c f   MSVCRTD:MSVCRTD.dll
 0001:0006e192       __wcsnicmp                 0046f192 f   MSVCRTD:MSVCRTD.dll
 0001:0006e198       __CrtDumpMemoryLeaks       0046f198 f   MSVCRTD:MSVCRTD.dll
 0001:0006e19e       _exit                      0046f19e f   MSVCRTD:MSVCRTD.dll
 0001:0006e1a4       _wcschr                    0046f1a4 f   MSVCRTD:MSVCRTD.dll
 0001:0006e1aa       _atol                      0046f1aa f   MSVCRTD:MSVCRTD.dll
 0001:0006e1b0       _wcsrchr                   0046f1b0 f   MSVCRTD:MSVCRTD.dll
 0001:0006e1b6       _strstr                    0046f1b6 f   MSVCRTD:MSVCRTD.dll
 0001:0006e1bc       _wcstol                    0046f1bc f   MSVCRTD:MSVCRTD.dll
 0001:0006e1d0       __onexit                   0046f1d0 f   MSVCRTD:atonexit.obj
 0001:0006e210       _atexit                    0046f210 f   MSVCRTD:atonexit.obj
 0001:0006e228       _abs                       0046f228 f   MSVCRTD:MSVCRTD.dll
 0001:0006e22e       __ltoa                     0046f22e f   MSVCRTD:MSVCRTD.dll
 0001:0006e234       __itow                     0046f234 f   MSVCRTD:MSVCRTD.dll
 0001:0006e23a       __wtoi                     0046f23a f   MSVCRTD:MSVCRTD.dll
 0001:0006e240       __wcsupr                   0046f240 f   MSVCRTD:MSVCRTD.dll
 0001:0006e246       __ftol                     0046f246 f   MSVCRTD:MSVCRTD.dll
 0001:0006e24c       _rand                      0046f24c f   MSVCRTD:MSVCRTD.dll
 0001:0006e252       _srand                     0046f252 f   MSVCRTD:MSVCRTD.dll
 0001:0006e258       _time                      0046f258 f   MSVCRTD:MSVCRTD.dll
 0001:0006e25e       __wcsdup                   0046f25e f   MSVCRTD:MSVCRTD.dll
 0001:0006e264       _memmove                   0046f264 f   MSVCRTD:MSVCRTD.dll
 0001:0006e26a       _wcstod                    0046f26a f   MSVCRTD:MSVCRTD.dll
 0001:0006e270       _wcsstr                    0046f270 f   MSVCRTD:MSVCRTD.dll
 0001:0006e280       _WinMainCRTStartup         0046f280 f   MSVCRTD:crtexew.obj
 0001:0006e47a       ??1type_info@@UAE@XZ       0046f47a f   MSVCRTD:MSVCRTD.dll
 0001:0006e480       __except_handler3          0046f480 f   MSVCRTD:MSVCRTD.dll
 0001:0006e486       ?terminate@@YAXXZ          0046f486 f   MSVCRTD:MSVCRTD.dll
 0001:0006e48c       ___dllonexit               0046f48c f   MSVCRTD:MSVCRTD.dll
 0001:0006e492       __exit                     0046f492 f   MSVCRTD:MSVCRTD.dll
 0001:0006e498       __XcptFilter               0046f498 f   MSVCRTD:MSVCRTD.dll
 0001:0006e49e       ___getmainargs             0046f49e f   MSVCRTD:MSVCRTD.dll
 0001:0006e4a4       __initterm                 0046f4a4 f   MSVCRTD:MSVCRTD.dll
 0001:0006e4b0       __setdefaultprecision      0046f4b0 f   MSVCRTD:fp8.obj
 0001:0006e4c8       ___setusermatherr          0046f4c8 f   MSVCRTD:MSVCRTD.dll
 0001:0006e4d0       __matherr                  0046f4d0 f   MSVCRTD:merr.obj
 0001:0006e4e0       __setargv                  0046f4e0 f   MSVCRTD:dllargv.obj
 0001:0006e4e6       ___p__commode              0046f4e6 f   MSVCRTD:MSVCRTD.dll
 0001:0006e4ec       ___p__fmode                0046f4ec f   MSVCRTD:MSVCRTD.dll
 0001:0006e4f2       ___set_app_type            0046f4f2 f   MSVCRTD:MSVCRTD.dll
 0001:0006e4f8       __controlfp                0046f4f8 f   MSVCRTD:MSVCRTD.dll
 0001:0006e500       _GetModuleHandleA@4        0046f500 f   kernel32:KERNEL32.dll
 0001:0006e506       _GetStartupInfoA@4         0046f506 f   kernel32:KERNEL32.dll
 0001:0006e50c       __wcslwr                   0046f50c f   MSVCRTD:MSVCRTD.dll
 0001:0006e512       __strlwr                   0046f512 f   MSVCRTD:MSVCRTD.dll
 0001:0006e518       __itoa                     0046f518 f   MSVCRTD:MSVCRTD.dll
 0001:0006e51e       __strupr                   0046f51e f   MSVCRTD:MSVCRTD.dll
 0001:00070d50       __enc$textbss$begin        00471d50     <linker-defined>
 0001:000a7a50       __enc$textbss$end          004a8a50     <linker-defined>
 0002:0000001c       ??_C@_1DI@JKJE@?$AAI?$AAD?$AAS?$AA_?$AAC?$AAL?$AAE?$AAA?$AAN?$AAP?$AAR?$AAI?$AAV?$AA_?$AAI?$AAE?$AAA?$AAD?$AAD?$AAR@ 004a901c     ClearDlg.obj
 0002:00000060       ??_C@_1CG@PLGB@?$AAI?$AAEW0W?$EAh?$APN?$ALb?IR?$BH?$IIh?$PP?$AI?$AAI?$AAE?$JB?MT?1T?$AOu?$BPeH?$PP?7?$AA?$AA@ 004a9060     ClearDlg.obj
 0002:00000090       ??_C@_11A@?$AA?$AA@        004a9090     ClearDlg.obj
 0002:00000094       ??_C@_1CK@NMDC@?$AAI?$AAD?$AAS?$AA_?$AAC?$AAL?$AAE?$AAA?$AAN?$AAP?$AAR?$AAI?$AAV?$AA_?$AAW?$AAI?$AAN?$AAR?$AAA?$AAR@ 004a9094     ClearDlg.obj
 0002:000000c8       ??_C@_1O@NFJ@?$AAW?$AAi?$AAn?$AAR?$AAa?$AAr?$AA?$AA@ 004a90c8     ClearDlg.obj
 0002:000000d8       ??_C@_1CO@KPDI@?$AAI?$AAD?$AAS?$AA_?$AAC?$AAL?$AAE?$AAA?$AAN?$AAP?$AAR?$AAI?$AAV?$AA_?$AAE?$AAD?$AAI?$AAT?$AAP?$AAL@ 004a90d8     ClearDlg.obj
 0002:00000110       ??_C@_1BC@LGNM@?$AAE?$AAd?$AAi?$AAt?$AAP?$AAl?$AAu?$AAs?$AA?$AA@ 004a9110     ClearDlg.obj
 0002:00000128       ??_C@_1CK@NJI@?$AAI?$AAD?$AAS?$AA_?$AAC?$AAL?$AAE?$AAA?$AAN?$AAP?$AAR?$AAI?$AAV?$AA_?$AAW?$AAI?$AAN?$AAZ?$AAI?$AAP@ 004a9128     ClearDlg.obj
 0002:0000015c       ??_C@_1O@NMPD@?$AAW?$AAi?$AAn?$AAZ?$AAi?$AAp?$AA?$AA@ 004a915c     ClearDlg.obj
 0002:0000016c       ??_C@_1DA@PBON@?$AAI?$AAD?$AAS?$AA_?$AAC?$AAL?$AAE?$AAA?$AAN?$AAP?$AAR?$AAI?$AAV?$AA_?$AAU?$AAL?$AAT?$AAR?$AAA?$AAE@ 004a916c     ClearDlg.obj
 0002:000001a8       ??_C@_1BE@PCJ@?$AAU?$AAl?$AAt?$AAr?$AAa?$AAE?$AAd?$AAi?$AAt?$AA?$AA@ 004a91a8     ClearDlg.obj
 0002:000001c0       ??_C@_1CK@KDBL@?$AAI?$AAD?$AAS?$AA_?$AAC?$AAL?$AAE?$AAA?$AAN?$AAP?$AAR?$AAI?$AAV?$AA_?$AAO?$AAF?$AAF?$AAI?$AAC?$AAE@ 004a91c0     ClearDlg.obj
 0002:000001f4       ??_C@_1CC@JADH@?$AAM?$AAi?$AAc?$AAr?$AAo?$AAs?$AAo?$AAf?$AAt?$AA?5?$AAO?$AAf?$AAf?$AAi?$AAc?$AAe?$AA?$AA@ 004a91f4     ClearDlg.obj
 0002:0000021c       ??_C@_1DK@OAFB@?$AAI?$AAD?$AAS?$AA_?$AAC?$AAL?$AAE?$AAA?$AAN?$AAP?$AAR?$AAI?$AAV?$AA_?$AAO?$AAU?$AAT?$AAL?$AAO?$AAO@ 004a921c     ClearDlg.obj
 0002:00000264       ??_C@_1DA@HCO@?$AAM?$AAi?$AAc?$AAr?$AAo?$AAs?$AAo?$AAf?$AAt?$AA?5?$AAO?$AAu?$AAt?$AAl?$AAo?$AAo?$AAk?$AA?5N4e?v@ 004a9264     ClearDlg.obj
 0002:000002a0       ??_C@_1CM@PJJE@?$AAI?$AAD?$AAS?$AA_?$AAC?$AAL?$AAE?$AAA?$AAN?$AAP?$AAR?$AAI?$AAV?$AA_?$AAW?$AAO?$AAR?$AAD?$AAP?$AAA@ 004a92a0     ClearDlg.obj
 0002:000002d4       ??_C@_1BI@HMEM@?$AAW?$AAi?$AAn?$AAd?$AAo?$AAw?$AAs?$AA?5Q?$JJ?$FLWg?$HP?$AA?$AA@ 004a92d4     ClearDlg.obj
 0002:000002f0       ??_C@_1CK@EFHD@?$AAI?$AAD?$AAS?$AA_?$AAC?$AAL?$AAE?$AAA?$AAN?$AAP?$AAR?$AAI?$AAV?$AA_?$AAA?$AAC?$AAC?$AAE?$AAS?$AAS@ 004a92f0     ClearDlg.obj
 0002:00000324       ??_C@_1CC@HGFP@?$AAM?$AAi?$AAc?$AAr?$AAo?$AAs?$AAo?$AAf?$AAt?$AA?5?$AAA?$AAc?$AAc?$AAe?$AAs?$AAs?$AA?$AA@ 004a9324     ClearDlg.obj
 0002:0000034c       ??_C@_1DC@KEGE@?$AAI?$AAD?$AAS?$AA_?$AAC?$AAL?$AAE?$AAA?$AAN?$AAP?$AAR?$AAI?$AAV?$AA_?$AAP?$AAO?$AAW?$AAE?$AAR?$AAP@ 004a934c     ClearDlg.obj
 0002:00000388       ??_C@_1CG@JHBL@?$AAM?$AAi?$AAc?$AAr?$AAo?$AAs?$AAo?$AAf?$AAt?$AA?5?$AAP?$AAo?$AAw?$AAp?$AAo?$AAi?$AAn?$AAt?$AA?$AA@ 004a9388     ClearDlg.obj
 0002:000003b8       ??_C@_1CI@OGAA@?$AAI?$AAD?$AAS?$AA_?$AAC?$AAL?$AAE?$AAA?$AAN?$AAP?$AAR?$AAI?$AAV?$AA_?$AAE?$AAX?$AAC?$AAE?$AAL?$AA?$AA@ 004a93b8     ClearDlg.obj
 0002:000003e8       ??_C@_1CA@DHLI@?$AAM?$AAi?$AAc?$AAr?$AAo?$AAs?$AAo?$AAf?$AAt?$AA?5?$AAE?$AAx?$AAc?$AAe?$AAl?$AA?$AA@ 004a93e8     ClearDlg.obj
 0002:00000410       ??_C@_1CG@DLIK@?$AAI?$AAD?$AAS?$AA_?$AAC?$AAL?$AAE?$AAA?$AAN?$AAP?$AAR?$AAI?$AAV?$AA_?$AAW?$AAO?$AAR?$AAD?$AA?$AA@ 004a9410     ClearDlg.obj
 0002:00000440       ??_C@_1BO@LNGG@?$AAM?$AAi?$AAc?$AAr?$AAo?$AAs?$AAo?$AAf?$AAt?$AA?5?$AAW?$AAo?$AAr?$AAd?$AA?$AA@ 004a9440     ClearDlg.obj
 0002:00000464       ??_C@_1CM@JEGH@?$AAI?$AAD?$AAS?$AA_?$AAC?$AAL?$AAE?$AAA?$AAN?$AAP?$AAR?$AAI?$AAV?$AA_?$AAC?$AAO?$AAO?$AAK?$AAI?$AAE@ 004a9464     ClearDlg.obj
 0002:00000498       ??_C@_1BK@HDEL@N?6?$HPQN?$KHu?$BPv?$IE?$AAC?$AAo?$AAo?$AAk?$AAi?$AAe?$AAs?$AA?$AA@ 004a9498     ClearDlg.obj
 0002:000004b8       ??_C@_1CO@CMJH@?$AAI?$AAD?$AAS?$AA_?$AAC?$AAL?$AAE?$AAA?$AAN?$AAP?$AAR?$AAI?$AAV?$AA_?$AAP?$AAO?$AAW?$AAE?$AAR?$AAD@ 004a94b8     ClearDlg.obj
 0002:000004f0       ??_C@_1BC@OILN@?$AAP?$AAo?$AAw?$AAe?$AAr?$AAD?$AAV?$AAD?$AA?$AA@ 004a94f0     ClearDlg.obj
 0002:00000508       ??_C@_1CM@PKPF@?$AAI?$AAD?$AAS?$AA_?$AAC?$AAL?$AAE?$AAA?$AAN?$AAP?$AAR?$AAI?$AAV?$AA_?$AAR?$AAE?$AAA?$AAL?$AAO?$AAN@ 004a9508     ClearDlg.obj
 0002:0000053c       ??_C@_1CG@IPCD@?$AAR?$AAe?$AAa?$AAl?$AAo?$AAn?$AAe?$AA?1?$AAR?$AAe?$AAa?$AAl?$AAp?$AAl?$AAa?$AAy?$AAe?$AAr?$AA?$AA@ 004a953c     ClearDlg.obj
 0002:0000056c       ??_C@_1EC@ONPD@?$AAI?$AAD?$AAS?$AA_?$AAC?$AAL?$AAE?$AAA?$AAN?$AAP?$AAR?$AAI?$AAV?$AA_?$AAW?$AAI?$AAN?$AAD?$AAO?$AAW@ 004a956c     ClearDlg.obj
 0002:000005bc       ??_C@_1BK@IHGF@?$AAW?$AAi?$AAn?$AAd?$AAo?$AAw?$AAsZ?$JCOSd?$KNe?$DOVh?$AA?$AA@ 004a95bc     ClearDlg.obj
 0002:000005dc       ??_C@_1FO@KBHF@?$AAS?$AAo?$AAf?$AAt?$AAw?$AAa?$AAr?$AAe?$AA?2?$AAM?$AAi?$AAc?$AAr?$AAo?$AAs?$AAo?$AAf?$AAt?$AA?2?$AAI@ 004a95dc     ClearDlg.obj
 0002:0000064c       ??_C@_1DO@IJBK@?$AAI?$AAD?$AAS?$AA_?$AAC?$AAL?$AAE?$AAA?$AAN?$AAP?$AAR?$AAI?$AAV?$AA_?$AAC?$AAL?$AAE?$AAA?$AAN?$AAP@ 004a964c     ClearDlg.obj
 0002:00000698       ??_C@_1O@NIDE@n?$AFt?$AG?$JI?$IE?$IL?$PLe?$IHN?v?$AA?$AA@ 004a9698     ClearDlg.obj
 0002:000006a8       ??_C@_1DM@LAAP@?$AAI?$AAD?$AAS?$AA_?$AAC?$AAL?$AAE?$AAA?$AAN?$AAP?$AAR?$AAI?$AAV?$AA_?$AAO?$AAP?$AAE?$AAN?$AAF?$AAI@ 004a96a8     ClearDlg.obj
 0002:000006f0       ??_C@_1BC@KGKP@bS_?$AAe?$IHN?v?$IN?$NP?$IO?$CK?$IL?$LA_U?$AA?$AA@ 004a96f0     ClearDlg.obj
 0002:00000708       ??_C@_1EG@PDFA@?$AAI?$AAD?$AAS?$AA_?$AAC?$AAL?$AAE?$AAA?$AAN?$AAP?$AAR?$AAI?$AAV?$AA_?$AAW?$AAI?$AAN?$AAD?$AAO?$AAW@ 004a9708     ClearDlg.obj
 0002:0000075c       ??_C@_1BI@LGCP@?$AAW?$AAi?$AAn?$AAd?$AAo?$AAw?$AAsd?$BM?$HN?$CC?$IL?$LA_U?$AA?$AA@ 004a975c     ClearDlg.obj
 0002:00000778       ??_C@_1DM@INNA@?$AAI?$AAD?$AAS?$AA_?$AAC?$AAL?$AAE?$AAA?$AAN?$AAP?$AAR?$AAI?$AAV?$AA_?$AAS?$AAY?$AAS?$AAT?$AAE?$AAM@ 004a9778     ClearDlg.obj
 0002:000007c0       ??_C@_1M@FFKM@?$HM?$PL?$HO?$NPRj?$IN4g?$HP?$AA?$AA@ 004a97c0     ClearDlg.obj
 0002:000007d0       ??_C@_1DC@BFME@?$AAI?$AAD?$AAS?$AA_?$AAC?$AAL?$AAE?$AAA?$AAN?$AAP?$AAR?$AAI?$AAV?$AA_?$AAR?$AAU?$AAN?$AAC?$AAO?$AAM@ 004a97d0     ClearDlg.obj
 0002:0000080c       ??_C@_1BO@FPPD@?$IP?P?$IILhF?$JB?Lv?$IET?$HNN?d?$PP?$AI?$JB?MT?1T?$AOg?7eH?$PP?7?$AA?$AA@ 004a980c     ClearDlg.obj
 0002:00000830       ??_C@_1DG@LAIE@?$AAI?$AAD?$AAS?$AA_?$AAC?$AAL?$AAE?$AAA?$AAN?$AAP?$AAR?$AAI?$AAV?$AA_?$AAN?$AAE?$AAT?$AAW?$AAO?$AAR@ 004a9830     ClearDlg.obj
 0002:00000870       ??_C@_1CC@KLMN@?$IL?$LP?$JF?n?$HPQN?6?$JA?$LL?2Ev?$IE?$IL?$LA_U?$PP?$AI?$FL?y?$AAX?$AAPg?7eH?$PP?7?$AA?$AA@ 004a9870     ClearDlg.obj
 0002:00000898       ??_C@_1DG@OLJB@?$AAI?$AAD?$AAS?$AA_?$AAC?$AAL?$AAE?$AAA?$AAN?$AAP?$AAR?$AAI?$AAV?$AA_?$AAS?$AAT?$AAA?$AAR?$AAT?$AAM@ 004a9898     ClearDlg.obj
 0002:000008d8       ??_C@_1BG@DKAO@_?$AAY?K?$ID?$NMSUN?9v?$IEe?$IHhc?$IL?$LA_U?$AA?$AA@ 004a98d8     ClearDlg.obj
 0002:000008f4       ??_C@_1DK@FINB@?$AAI?$AAD?$AAS?$AA_?$AAC?$AAL?$AAE?$AAA?$AAN?$AAP?$AAR?$AAI?$AAV?$AA_?$AAW?$AAI?$AAN?$AAD?$AAO?$AAW@ 004a98f4     ClearDlg.obj
 0002:0000093c       ??_C@_1BK@OGEG@?$AAW?$AAi?$AAn?$AAd?$AAo?$AAw?$AAsN4e?ve?$IHN?vY9?$AA?$AA@ 004a993c     ClearDlg.obj
 0002:0000095c       ??_C@_1CI@MDGH@?$AAI?$AAD?$AAS?$AA_?$AAC?$AAL?$AAE?$AAA?$AAN?$AAP?$AAR?$AAI?$AAV?$AA_?$AAM?$AAY?$AAI?$AAE?$AA2?$AA?$AA@ 004a995c     ClearDlg.obj
 0002:0000098c       ??_C@_1BI@IJFF@?$AAM?$AAy?$AAI?$AAE?$AA2?$IB?jR?$KIO?$HPu?$CIu?U?$IP?y?$AA?$AA@ 004a998c     ClearDlg.obj
 0002:000009a8       ??_C@_1CK@KOFP@?$AAI?$AAD?$AAS?$AA_?$AAC?$AAL?$AAE?$AAA?$AAN?$AAP?$AAR?$AAI?$AAV?$AA_?$AAI?$AAE?$AAF?$AAO?$AAR?$AAM@ 004a99a8     ClearDlg.obj
 0002:000009dc       ??_C@_1BG@MEIL@?$AAI?$AAE?$IB?jR?$KI?$FL?$IMb?$BA?$IIhSU?$INDe?$JJ?$AA?$AA@ 004a99dc     ClearDlg.obj
 0002:000009f8       ??_C@_1DC@GFCE@?$AAI?$AAD?$AAS?$AA_?$AAC?$AAL?$AAE?$AAA?$AAN?$AAP?$AAR?$AAI?$AAV?$AA_?$AAI?$AAE?$AAP?$AAA?$AAS?$AAS@ 004a99f8     ClearDlg.obj
 0002:00000a34       ??_C@_1BE@NHKB@?$AAI?$AAE?$IB?jR?$KIO?$NN?$FLXv?$IE?$FL?Fx?$AB?$AA?$AA@ 004a9a34     ClearDlg.obj
 0002:00000a4c       ??_C@_1DC@CNFA@?$AAI?$AAD?$AAS?$AA_?$AAC?$AAL?$AAE?$AAA?$AAN?$AAP?$AAR?$AAI?$AAV?$AA_?$AAW?$AAE?$AAB?$AAH?$AAI?$AAS@ 004a9a4c     ClearDlg.obj
 0002:00000a88       ??_C@_1CC@GEDC@N?6?$HPQN?$KHu?$BPv?$IE?$FN?r?$IL?$LP?$JF?n?$IP?Gv?$IE?$HPQ?$JIuS?$IGS?r?$IL?$LA_U?$AA?$AA@ 004a9a88     ClearDlg.obj
 0002:00000ab0       ??_C@_1DG@OCON@?$AAI?$AAD?$AAS?$AA_?$AAC?$AAL?$AAE?$AAA?$AAN?$AAP?$AAR?$AAI?$AAV?$AA_?$AAC?$AAA?$AAC?$AAH?$AAE?$AAW@ 004a9ab0     ClearDlg.obj
 0002:00000af0       ??_C@_1BM@HFDM@N?6?$HPQO?$NN?$FLXW?$CI?$HP?$BDQ?$LCN?9v?$IE?$HPQ?$JIue?$IHN?v?$AA?$AA@ 004a9af0     ClearDlg.obj
 0002:00000b14       ??_C@_1DE@JPDO@?$AAI?$AAD?$AAS?$AA_?$AAC?$AAL?$AAE?$AAA?$AAN?$AAP?$AAR?$AAI?$AAV?$AA_?$AAC?$AAL?$AAE?$AAA?$AAN?$AAS@ 004a9b14     ClearDlg.obj
 0002:00000b54       ??_C@_1BI@OBFB@?$AAC?$AAL?$AAE?$AAA?$AAN?$AAF?$AAI?$AAN?$AAI?$AAS?$AAH?$AA?$AA@ 004a9b54     ClearDlg.obj
 0002:00000b70       ??_C@_1BG@GJPE@?$AAA?$AAr?$AAc?$AAH?$AAi?$AAs?$AAt?$AAo?$AAr?$AAy?$AA?$AA@ 004a9b70     ClearDlg.obj
 0002:00000b8c       ??_C@_1CA@DHH@?$AAS?$AAo?$AAf?$AAt?$AAw?$AAa?$AAr?$AAe?$AA?2?$AAW?$AAi?$AAn?$AAR?$AAA?$AAR?$AA?$AA@ 004a9b8c     ClearDlg.obj
 0002:00000bb4       ??_C@_1CE@HCCI@?$AAD?$AAi?$AAa?$AAl?$AAo?$AAg?$AAE?$AAd?$AAi?$AAt?$AAH?$AAi?$AAs?$AAt?$AAo?$AAr?$AAy?$AA?$AA@ 004a9bb4     ClearDlg.obj
 0002:00000be0       ??_C@_1CI@JBEC@?$AAI?$AAD?$AAS?$AA_?$AAC?$AAL?$AAE?$AAA?$AAN?$AAI?$AAN?$AAG?$AA_?$AAW?$AAI?$AAN?$AAR?$AAA?$AAR?$AA?$AA@ 004a9be0     ClearDlg.obj
 0002:00000c10       ??_C@_1CA@BBMC@?$AAR?$AAe?$AAc?$AAe?$AAn?$AAt?$AA?5?$AAD?$AAi?$AAr?$AA?5?$AAL?$AAi?$AAs?$AAt?$AA?$AA@ 004a9c10     ClearDlg.obj
 0002:00000c38       ??_C@_1EC@BJDH@?$AAS?$AAo?$AAf?$AAt?$AAw?$AAa?$AAr?$AAe?$AA?2?$AAE?$AAS?$AA?9?$AAC?$AAo?$AAm?$AAp?$AAu?$AAt?$AAi?$AAn@ 004a9c38     ClearDlg.obj
 0002:00000c88       ??_C@_1CM@BCLF@?$AAI?$AAD?$AAS?$AA_?$AAC?$AAL?$AAE?$AAA?$AAN?$AAI?$AAN?$AAG?$AA_?$AAE?$AAD?$AAI?$AAT?$AAP?$AAL?$AAU@ 004a9c88     ClearDlg.obj
 0002:00000cbc       ??_C@_1BA@EOAJ@?$AAe?$AAx?$AAt?$AAr?$AAa?$AAc?$AAt?$AA?$AA@ 004a9cbc     ClearDlg.obj
 0002:00000cd0       ??_C@_1EG@LDOM@?$AAS?$AAo?$AAf?$AAt?$AAw?$AAa?$AAr?$AAe?$AA?2?$AAN?$AAi?$AAc?$AAo?$AA?5?$AAM?$AAa?$AAk?$AA?5?$AAC?$AAo@ 004a9cd0     ClearDlg.obj
 0002:00000d24       ??_C@_1BC@EEPN@?$AAf?$AAi?$AAl?$AAe?$AAm?$AAe?$AAn?$AAu?$AA?$AA@ 004a9d24     ClearDlg.obj
 0002:00000d3c       ??_C@_1CI@EAOI@?$AAI?$AAD?$AAS?$AA_?$AAC?$AAL?$AAE?$AAA?$AAN?$AAI?$AAN?$AAG?$AA_?$AAW?$AAI?$AAN?$AAZ?$AAI?$AAP?$AA?$AA@ 004a9d3c     ClearDlg.obj
 0002:00000d6c       ??_C@_1BE@HDGM@?$AAL?$AAa?$AAs?$AAt?$AA?5?$AAF?$AAi?$AAl?$AAe?$AA?$AA@ 004a9d6c     ClearDlg.obj
 0002:00000d84       ??_C@_1M@GIFL@?$AAF?$AAi?$AAl?$AAe?$AA4?$AA?$AA@ 004a9d84     ClearDlg.obj
 0002:00000d94       ??_C@_1M@NGDK@?$AAF?$AAi?$AAl?$AAe?$AA3?$AA?$AA@ 004a9d94     ClearDlg.obj
 0002:00000da4       ??_C@_1M@IECM@?$AAF?$AAi?$AAl?$AAe?$AA2?$AA?$AA@ 004a9da4     ClearDlg.obj
 0002:00000db4       ??_C@_1M@HCBH@?$AAF?$AAi?$AAl?$AAe?$AA1?$AA?$AA@ 004a9db4     ClearDlg.obj
 0002:00000dc4       ??_C@_1DO@POIP@?$AA?2?$AAI?$AAD?$AAM?$AAC?$AAo?$AAm?$AAp?$AA?2?$AAU?$AAl?$AAt?$AAr?$AAa?$AAE?$AAd?$AAi?$AAt?$AA?2?$AAU@ 004a9dc4     ClearDlg.obj
 0002:00000e10       ??_C@_1CO@ODDG@?$AAI?$AAD?$AAS?$AA_?$AAC?$AAL?$AAE?$AAA?$AAN?$AAI?$AAN?$AAG?$AA_?$AAU?$AAL?$AAT?$AAR?$AAA?$AAE?$AAD@ 004a9e10     ClearDlg.obj
 0002:00000e48       ??_C@_1DG@DJNI@?$AAI?$AAD?$AAS?$AA_?$AAC?$AAL?$AAE?$AAA?$AAN?$AAI?$AAN?$AAG?$AA_?$AAO?$AAF?$AAF?$AAI?$AAC?$AAE?$AAH@ 004a9e48     ClearDlg.obj
 0002:00000e88       ??_C@_1DC@DFBA@?$AA?2?$AAM?$AAi?$AAc?$AAr?$AAo?$AAs?$AAo?$AAf?$AAt?$AA?2?$AAO?$AAf?$AAf?$AAi?$AAc?$AAe?$AA?2?$AAR?$AAe@ 004a9e88     ClearDlg.obj
 0002:00000ec4       ??_C@_1DM@FICD@?$AAI?$AAD?$AAS?$AA_?$AAC?$AAL?$AAE?$AAA?$AAN?$AAI?$AAN?$AAG?$AA_?$AAO?$AAF?$AAF?$AAI?$AAC?$AAE?$AAT@ 004a9ec4     ClearDlg.obj
 0002:00000f0c       ??_C@_15IJIA@?$AAa?$AA?$CL?$AA?$AA@ 004a9f0c     ClearDlg.obj
 0002:00000f14       ??_C@_1BK@OOGN@?$AA?2?$AAa?$AAr?$AAc?$AAh?$AAi?$AAv?$AAe?$AA?4?$AAp?$AAs?$AAt?$AA?$AA@ 004a9f14     ClearDlg.obj
 0002:00000f34       ??_C@_1CG@FIGB@?$AA?2?$AAM?$AAi?$AAc?$AAr?$AAo?$AAs?$AAo?$AAf?$AAt?$AA?2?$AAO?$AAu?$AAt?$AAl?$AAo?$AAo?$AAk?$AA?$AA@ 004a9f34     ClearDlg.obj
 0002:00000f64       ??_C@_1DO@CIDA@?$AAI?$AAD?$AAS?$AA_?$AAC?$AAL?$AAE?$AAA?$AAN?$AAI?$AAN?$AAG?$AA_?$AAO?$AAU?$AAT?$AAL?$AAO?$AAO?$AAK@ 004a9f64     ClearDlg.obj
 0002:00000fb0       ??_C@_1HE@KNGC@?$AAS?$AAo?$AAf?$AAt?$AAw?$AAa?$AAr?$AAe?$AA?2?$AAM?$AAi?$AAc?$AAr?$AAo?$AAs?$AAo?$AAf?$AAt?$AA?2?$AAW@ 004a9fb0     ClearDlg.obj
 0002:0000103c       ??_C@_1CK@DHAA@?$AAI?$AAD?$AAS?$AA_?$AAC?$AAL?$AAE?$AAA?$AAN?$AAI?$AAN?$AAG?$AA_?$AAW?$AAO?$AAR?$AAD?$AAP?$AAA?$AAD@ 004aa03c     ClearDlg.obj
 0002:00001070       ??_C@_1FO@KPDM@?$AAS?$AAo?$AAf?$AAt?$AAw?$AAa?$AAr?$AAe?$AA?2?$AAM?$AAi?$AAc?$AAr?$AAo?$AAs?$AAo?$AAf?$AAt?$AA?2?$AAO@ 004aa070     ClearDlg.obj
 0002:000010e0       ??_C@_1FO@HPNO@?$AAS?$AAo?$AAf?$AAt?$AAw?$AAa?$AAr?$AAe?$AA?2?$AAM?$AAi?$AAc?$AAr?$AAo?$AAs?$AAo?$AAf?$AAt?$AA?2?$AAO@ 004aa0e0     ClearDlg.obj
 0002:00001150       ??_C@_1FM@BPEF@?$AAS?$AAo?$AAf?$AAt?$AAw?$AAa?$AAr?$AAe?$AA?2?$AAM?$AAi?$AAc?$AAr?$AAo?$AAs?$AAo?$AAf?$AAt?$AA?2?$AAO@ 004aa150     ClearDlg.obj
 0002:000011c0       ??_C@_19FKGP@?$AAM?$AAR?$AAU?$AA4?$AA?$AA@ 004aa1c0     ClearDlg.obj
 0002:000011cc       ??_C@_19OEAO@?$AAM?$AAR?$AAU?$AA3?$AA?$AA@ 004aa1cc     ClearDlg.obj
 0002:000011d8       ??_C@_19LGBI@?$AAM?$AAR?$AAU?$AA2?$AA?$AA@ 004aa1d8     ClearDlg.obj
 0002:000011e4       ??_C@_1FM@MPKH@?$AAS?$AAo?$AAf?$AAt?$AAw?$AAa?$AAr?$AAe?$AA?2?$AAM?$AAi?$AAc?$AAr?$AAo?$AAs?$AAo?$AAf?$AAt?$AA?2?$AAO@ 004aa1e4     ClearDlg.obj
 0002:00001254       ??_C@_19EACD@?$AAM?$AAR?$AAU?$AA1?$AA?$AA@ 004aa254     ClearDlg.obj
 0002:00001260       ??_C@_1CI@IAD@?$AAI?$AAD?$AAS?$AA_?$AAC?$AAL?$AAE?$AAA?$AAN?$AAI?$AAN?$AAG?$AA_?$AAA?$AAC?$AAC?$AAE?$AAS?$AAS?$AA?$AA@ 004aa260     ClearDlg.obj
 0002:00001290       ??_C@_1FE@MMBN@?$AAS?$AAo?$AAf?$AAt?$AAw?$AAa?$AAr?$AAe?$AA?2?$AAM?$AAi?$AAc?$AAr?$AAo?$AAs?$AAo?$AAf?$AAt?$AA?2?$AAO@ 004aa290     ClearDlg.obj
 0002:000012f4       ??_C@_1FE@DLOJ@?$AAS?$AAo?$AAf?$AAt?$AAw?$AAa?$AAr?$AAe?$AA?2?$AAM?$AAi?$AAc?$AAr?$AAo?$AAs?$AAo?$AAf?$AAt?$AA?2?$AAO@ 004aa2f4     ClearDlg.obj
 0002:00001358       ??_C@_1FC@MEOK@?$AAS?$AAo?$AAf?$AAt?$AAw?$AAa?$AAr?$AAe?$AA?2?$AAM?$AAi?$AAc?$AAr?$AAo?$AAs?$AAo?$AAf?$AAt?$AA?2?$AAO@ 004aa358     ClearDlg.obj
 0002:000013bc       ??_C@_1FC@DDBO@?$AAS?$AAo?$AAf?$AAt?$AAw?$AAa?$AAr?$AAe?$AA?2?$AAM?$AAi?$AAc?$AAr?$AAo?$AAs?$AAo?$AAf?$AAt?$AA?2?$AAO@ 004aa3bc     ClearDlg.obj
 0002:00001420       ??_C@_1CC@DLD@?$AAR?$AAe?$AAc?$AAe?$AAn?$AAt?$AA?5?$AAF?$AAi?$AAl?$AAe?$AA?5?$AAL?$AAi?$AAs?$AAt?$AA?$AA@ 004aa420     ClearDlg.obj
 0002:00001448       ??_C@_1DA@OBCI@?$AAI?$AAD?$AAS?$AA_?$AAC?$AAL?$AAE?$AAA?$AAN?$AAI?$AAN?$AAG?$AA_?$AAP?$AAO?$AAW?$AAE?$AAR?$AAP?$AAO@ 004aa448     ClearDlg.obj
 0002:00001484       ??_C@_1EK@MBBD@?$AAS?$AAo?$AAf?$AAt?$AAw?$AAa?$AAr?$AAe?$AA?2?$AAM?$AAi?$AAc?$AAr?$AAo?$AAs?$AAo?$AAf?$AAt?$AA?2?$AAO@ 004aa484     ClearDlg.obj
 0002:000014dc       ??_C@_1EK@DPAG@?$AAS?$AAo?$AAf?$AAt?$AAw?$AAa?$AAr?$AAe?$AA?2?$AAM?$AAi?$AAc?$AAr?$AAo?$AAs?$AAo?$AAf?$AAt?$AA?2?$AAO@ 004aa4dc     ClearDlg.obj
 0002:00001534       ??_C@_1EI@COOC@?$AAS?$AAo?$AAf?$AAt?$AAw?$AAa?$AAr?$AAe?$AA?2?$AAM?$AAi?$AAc?$AAr?$AAo?$AAs?$AAo?$AAf?$AAt?$AA?2?$AAO@ 004aa534     ClearDlg.obj
 0002:0000158c       ??_C@_1EI@NAPH@?$AAS?$AAo?$AAf?$AAt?$AAw?$AAa?$AAr?$AAe?$AA?2?$AAM?$AAi?$AAc?$AAr?$AAo?$AAs?$AAo?$AAf?$AAt?$AA?2?$AAO@ 004aa58c     ClearDlg.obj
 0002:000015e4       ??_C@_1BK@EPAF@?$AAR?$AAe?$AAc?$AAe?$AAn?$AAt?$AA?5?$AAF?$AAi?$AAl?$AAe?$AAs?$AA?$AA@ 004aa5e4     ClearDlg.obj
 0002:00001604       ??_C@_1CG@OPPO@?$AAI?$AAD?$AAS?$AA_?$AAC?$AAL?$AAE?$AAA?$AAN?$AAI?$AAN?$AAG?$AA_?$AAE?$AAX?$AAC?$AAE?$AAL?$AA?$AA@ 004aa604     ClearDlg.obj
 0002:00001634       ??_C@_1FC@ECB@?$AAS?$AAo?$AAf?$AAt?$AAw?$AAa?$AAr?$AAe?$AA?2?$AAM?$AAi?$AAc?$AAr?$AAo?$AAs?$AAo?$AAf?$AAt?$AA?2?$AAO@ 004aa634     ClearDlg.obj
 0002:00001698       ??_C@_1FC@GJM@?$AAS?$AAo?$AAf?$AAt?$AAw?$AAa?$AAr?$AAe?$AA?2?$AAM?$AAi?$AAc?$AAr?$AAo?$AAs?$AAo?$AAf?$AAt?$AA?2?$AAO@ 004aa698     ClearDlg.obj
 0002:000016fc       ??_C@_1FA@BNLP@?$AAS?$AAo?$AAf?$AAt?$AAw?$AAa?$AAr?$AAe?$AA?2?$AAM?$AAi?$AAc?$AAr?$AAo?$AAs?$AAo?$AAf?$AAt?$AA?2?$AAO@ 004aa6fc     ClearDlg.obj
 0002:0000175c       ??_C@_1FA@BPAC@?$AAS?$AAo?$AAf?$AAt?$AAw?$AAa?$AAr?$AAe?$AA?2?$AAM?$AAi?$AAc?$AAr?$AAo?$AAs?$AAo?$AAf?$AAt?$AA?2?$AAO@ 004aa75c     ClearDlg.obj
 0002:000017bc       ??_C@_1BC@CFHF@?$AAS?$AAe?$AAt?$AAt?$AAi?$AAn?$AAg?$AAs?$AA?$AA@ 004aa7bc     ClearDlg.obj
 0002:000017d4       ??_C@_1CE@MPOC@?$AAI?$AAD?$AAS?$AA_?$AAC?$AAL?$AAE?$AAA?$AAN?$AAI?$AAN?$AAG?$AA_?$AAW?$AAO?$AAR?$AAD?$AA?$AA@ 004aa7d4     ClearDlg.obj
 0002:00001800       ??_C@_1CK@FKPD@?$AAI?$AAD?$AAS?$AA_?$AAC?$AAL?$AAE?$AAA?$AAN?$AAI?$AAN?$AAG?$AA_?$AAC?$AAO?$AAO?$AAK?$AAI?$AAE?$AAS@ 004aa800     ClearDlg.obj
 0002:00001834       ??_C@_1DI@CPAC@?$AAS?$AAO?$AAF?$AAT?$AAW?$AAA?$AAR?$AAE?$AA?2?$AAC?$AAy?$AAb?$AAe?$AAr?$AAL?$AAi?$AAn?$AAk?$AA?2?$AAP@ 004aa834     ClearDlg.obj
 0002:00001878       ??_C@_1BE@BBOP@?$AAU?$AAI?$AAI?$AAn?$AAi?$AAt?$AAD?$AAi?$AAr?$AA?$AA@ 004aa878     ClearDlg.obj
 0002:00001890       ??_C@_1EA@IMFH@?$AA?2?$AAC?$AAy?$AAb?$AAe?$AAr?$AAL?$AAi?$AAn?$AAk?$AA?2?$AAP?$AAo?$AAw?$AAe?$AAr?$AAD?$AAV?$AAD?$AA?2@ 004aa890     ClearDlg.obj
 0002:000018dc       ??_C@_1CM@JBBK@?$AAI?$AAD?$AAS?$AA_?$AAC?$AAL?$AAE?$AAA?$AAN?$AAI?$AAN?$AAG?$AA_?$AAP?$AAO?$AAW?$AAE?$AAR?$AAD?$AAV@ 004aa8dc     ClearDlg.obj
 0002:00001910       ??_C@_1GC@NEDC@?$AAS?$AAo?$AAf?$AAt?$AAw?$AAa?$AAr?$AAe?$AA?2?$AAR?$AAe?$AAa?$AAl?$AAN?$AAe?$AAt?$AAw?$AAo?$AAr?$AAk@ 004aa910     ClearDlg.obj
 0002:00001988       ??_C@_1CC@ELOO@?$AAM?$AAo?$AAs?$AAt?$AAR?$AAe?$AAc?$AAe?$AAn?$AAt?$AAC?$AAl?$AAi?$AAp?$AAs?$AA1?$AA?$AA@ 004aa988     ClearDlg.obj
 0002:000019b0       ??_C@_1DA@OPKO@?$AAI?$AAD?$AAS?$AA_?$AAC?$AAL?$AAE?$AAA?$AAN?$AAI?$AAN?$AAG?$AA_?$AAR?$AAE?$AAA?$AAL?$AAP?$AAL?$AAA@ 004aa9b0     ClearDlg.obj
 0002:000019ec       ??_C@_1EM@BFMM@?$AAS?$AAo?$AAf?$AAt?$AAw?$AAa?$AAr?$AAe?$AA?2?$AAM?$AAi?$AAc?$AAr?$AAo?$AAs?$AAo?$AAf?$AAt?$AA?2?$AAM@ 004aa9ec     ClearDlg.obj
 0002:00001a48       ??_C@_1BO@LIHP@?$AAR?$AAe?$AAc?$AAe?$AAn?$AAt?$AAF?$AAi?$AAl?$AAe?$AAL?$AAi?$AAs?$AAt?$AA?$AA@ 004aaa48     ClearDlg.obj
 0002:00001a6c       ??_C@_1DE@IGBM@?$AAI?$AAD?$AAS?$AA_?$AAC?$AAL?$AAE?$AAA?$AAN?$AAI?$AAN?$AAG?$AA_?$AAM?$AAE?$AAD?$AAI?$AAA?$AAL?$AAP@ 004aaa6c     ClearDlg.obj
 0002:00001aac       ??_C@_1BE@BPAC@?$AAT?$AAy?$AAp?$AAe?$AAd?$AAU?$AAR?$AAL?$AAs?$AA?$AA@ 004aaaac     ClearDlg.obj
 0002:00001ac4       ??_C@_1DE@OKHB@?$AAI?$AAD?$AAS?$AA_?$AAC?$AAL?$AAE?$AAA?$AAN?$AAI?$AAN?$AAG?$AA_?$AAI?$AAE?$AAA?$AAD?$AAD?$AAR?$AAE@ 004aaac4     ClearDlg.obj
 0002:00001b04       ??_C@_1BE@BEDF@?$AA?2?$AAP?$AAr?$AAe?$AAf?$AAe?$AAt?$AAc?$AAh?$AA?$AA@ 004aab04     ClearDlg.obj
 0002:00001b1c       ??_C@_1DC@NJFG@?$AAI?$AAD?$AAS?$AA_?$AAC?$AAL?$AAE?$AAA?$AAN?$AAI?$AAN?$AAG?$AA_?$AAP?$AAR?$AAE?$AAR?$AAE?$AAA?$AAD@ 004aab1c     ClearDlg.obj
 0002:00001b58       ??_C@_1IC@IBAD@?$AAS?$AAo?$AAf?$AAt?$AAw?$AAa?$AAr?$AAe?$AA?2?$AAC?$AAl?$AAa?$AAs?$AAs?$AAe?$AAs?$AA?2?$AAL?$AAo?$AAc@ 004aab58     ClearDlg.obj
 0002:00001bf4       ??_C@_1BC@GPIE@?$AAM?$AAu?$AAi?$AAC?$AAa?$AAc?$AAh?$AAe?$AA?$AA@ 004aabf4     ClearDlg.obj
 0002:00001c0c       ??_C@_1CM@MPIP@?$AAI?$AAD?$AAS?$AA_?$AAC?$AAL?$AAE?$AAA?$AAN?$AAI?$AAN?$AAG?$AA_?$AAO?$AAP?$AAE?$AAN?$AAF?$AAI?$AAL@ 004aac0c     ClearDlg.obj
 0002:00001c40       ??_C@_1FE@IGIF@?$AAS?$AAo?$AAf?$AAt?$AAw?$AAa?$AAr?$AAe?$AA?2?$AAM?$AAi?$AAc?$AAr?$AAo?$AAs?$AAo?$AAf?$AAt?$AA?2?$AAS@ 004aac40     ClearDlg.obj
 0002:00001ca4       ??_C@_19OJAH@?$AA5?$AA6?$AA0?$AA3?$AA?$AA@ 004aaca4     ClearDlg.obj
 0002:00001cb0       ??_C@_1CO@MFEM@?$AAI?$AAD?$AAS?$AA_?$AAC?$AAL?$AAE?$AAA?$AAN?$AAI?$AAN?$AAG?$AA_?$AAW?$AAI?$AAN?$AAS?$AAE?$AAA?$AAR@ 004aacb0     ClearDlg.obj
 0002:00001ce8       ??_C@_1CO@KMBA@?$AAI?$AAD?$AAS?$AA_?$AAC?$AAL?$AAE?$AAA?$AAN?$AAI?$AAN?$AAG?$AA_?$AAC?$AAL?$AAI?$AAP?$AAB?$AAO?$AAA@ 004aace8     ClearDlg.obj
 0002:00001d20       ??_C@_1GG@FIDB@?$AAS?$AAo?$AAf?$AAt?$AAw?$AAa?$AAr?$AAe?$AA?2?$AAM?$AAi?$AAc?$AAr?$AAo?$AAs?$AAo?$AAf?$AAt?$AA?2?$AAW@ 004aad20     ClearDlg.obj
 0002:00001d9c       ??_C@_1O@BAF@?$AAR?$AAu?$AAn?$AAM?$AAR?$AAU?$AA?$AA@ 004aad9c     ClearDlg.obj
 0002:00001dac       ??_C@_1CO@HLOE@?$AAI?$AAD?$AAS?$AA_?$AAC?$AAL?$AAE?$AAA?$AAN?$AAI?$AAN?$AAG?$AA_?$AAR?$AAU?$AAN?$AAD?$AAI?$AAA?$AAL@ 004aadac     ClearDlg.obj
 0002:00001de4       ??_C@_1DE@HOKE@?$AAI?$AAD?$AAS?$AA_?$AAC?$AAL?$AAE?$AAA?$AAN?$AAI?$AAN?$AAG?$AA_?$AAN?$AAE?$AAT?$AAW?$AAO?$AAR?$AAK@ 004aade4     ClearDlg.obj
 0002:00001e24       ??_C@_1DE@CFLB@?$AAI?$AAD?$AAS?$AA_?$AAC?$AAL?$AAE?$AAA?$AAN?$AAI?$AAN?$AAG?$AA_?$AAS?$AAT?$AAA?$AAR?$AAT?$AAM?$AAE@ 004aae24     ClearDlg.obj
 0002:00001e64       ??_C@_1DG@OHGD@?$AAI?$AAD?$AAS?$AA_?$AAC?$AAL?$AAE?$AAA?$AAN?$AAI?$AAN?$AAG?$AA_?$AAW?$AAI?$AAN?$AAT?$AAE?$AAM?$AAP@ 004aae64     ClearDlg.obj
 0002:00001ea4       ??_C@_1CO@OKEE@?$AAC?$AAL?$AAE?$AAA?$AAN?$AAI?$AAN?$AAG?$AA_?$AAW?$AAI?$AAN?$AAT?$AAE?$AAM?$AAP?$AAF?$AAO?$AAL?$AAD@ 004aaea4     ClearDlg.obj
 0002:00001edc       ??_C@_1GE@PCBF@?$AAS?$AAo?$AAf?$AAt?$AAw?$AAa?$AAr?$AAe?$AA?2?$AAM?$AAi?$AAc?$AAr?$AAo?$AAs?$AAo?$AAf?$AAt?$AA?2?$AAI@ 004aaedc     ClearDlg.obj
 0002:00001f54       ??_C@_1CI@ODCP@?$AAI?$AAD?$AAS?$AA_?$AAC?$AAL?$AAE?$AAA?$AAN?$AAI?$AAN?$AAG?$AA_?$AAI?$AAE?$AAF?$AAO?$AAR?$AAM?$AA?$AA@ 004aaf54     ClearDlg.obj
 0002:00001f84       ??_C@_1BO@ONJN@?$AAC?$AAL?$AAE?$AAA?$AAN?$AAI?$AAN?$AAG?$AAI?$AAE?$AAF?$AAO?$AAR?$AAM?$AA?$AA@ 004aaf84     ClearDlg.obj
 0002:00001fa8       ??_C@_1EK@PFBO@?$AAS?$AAo?$AAf?$AAt?$AAw?$AAa?$AAr?$AAe?$AA?2?$AAM?$AAi?$AAc?$AAr?$AAo?$AAs?$AAo?$AAf?$AAt?$AA?2?$AAI@ 004aafa8     ClearDlg.obj
 0002:00002000       ??_C@_1BK@NOGI@?$AAI?$AAn?$AAt?$AAe?$AAl?$AAl?$AAi?$AAF?$AAo?$AAr?$AAm?$AAs?$AA?$AA@ 004ab000     ClearDlg.obj
 0002:00002020       ??_C@_1DA@CAGI@?$AAI?$AAD?$AAS?$AA_?$AAC?$AAL?$AAE?$AAA?$AAN?$AAI?$AAN?$AAG?$AA_?$AAI?$AAE?$AAP?$AAA?$AAS?$AAS?$AAW@ 004ab020     ClearDlg.obj
 0002:0000205c       ??_C@_1CG@NHFB@?$AAC?$AAL?$AAE?$AAA?$AAN?$AAI?$AAN?$AAG?$AAI?$AAE?$AAP?$AAA?$AAS?$AAS?$AAW?$AAO?$AAR?$AAD?$AA?$AA@ 004ab05c     ClearDlg.obj
 0002:0000208c       ??_C@_19MACE@?$AAD?$AAD?$AAD?$AAD?$AA?$AA@ 004ab08c     ClearDlg.obj
 0002:00002098       ??_C@_17FLAP@?$AAD?$AAD?$AAD?$AA?$AA@ 004ab098     ClearDlg.obj
 0002:000020a4       ??_C@_1DK@MMKC@?$AAI?$AAD?$AAS?$AA_?$AAC?$AAL?$AAE?$AAA?$AAN?$AAP?$AAR?$AAI?$AAV?$AA_?$AAI?$AAN?$AAI?$AAT?$AAC?$AAO@ 004ab0a4     ClearDlg.obj
 0002:000020ec       ??_C@_1BO@FNBB@?$AAI?$AAN?$AAI?$AAT?$AAC?$AAO?$AAM?$AAF?$AAA?$AAI?$AAL?$AAU?$AAR?$AAE?$AA?$AA@ 004ab0ec     ClearDlg.obj
 0002:00002110       ??_C@_1DA@GIBM@?$AAI?$AAD?$AAS?$AA_?$AAC?$AAL?$AAE?$AAA?$AAN?$AAI?$AAN?$AAG?$AA_?$AAW?$AAE?$AAB?$AAH?$AAI?$AAS?$AAT@ 004ab110     ClearDlg.obj
 0002:0000214c       ??_C@_1CG@JPCF@?$AAC?$AAL?$AAE?$AAA?$AAN?$AAI?$AAN?$AAG?$AAW?$AAE?$AAB?$AAH?$AAI?$AAS?$AAT?$AAO?$AAR?$AAY?$AA?$AA@ 004ab14c     ClearDlg.obj
 0002:0000217c       ??_C@_1CK@LINB@?$AAI?$AAD?$AAS?$AA_?$AAC?$AAL?$AAE?$AAA?$AAN?$AAI?$AAN?$AAG?$AA_?$AAT?$AAE?$AAM?$AAP?$AAW?$AAE?$AAB@ 004ab17c     ClearDlg.obj
 0002:000021b0       ??_C@_13HMCP@?$AA?2?$AA?$AA@ 004ab1b0     ClearDlg.obj
 0002:000021b4       ??_C@_1BE@NOBJ@?$AAi?$AAn?$AAd?$AAe?$AAx?$AA?4?$AAd?$AAa?$AAt?$AA?$AA@ 004ab1b4     ClearDlg.obj
 0002:000021cc       ??_C@_1BI@KBNG@?$AAd?$AAe?$AAs?$AAk?$AAt?$AAo?$AAp?$AA?4?$AAi?$AAn?$AAi?$AA?$AA@ 004ab1cc     ClearDlg.obj
 0002:000021e8       ??_C@_15PLEI@?$AA?4?$AA?4?$AA?$AA@ 004ab1e8     ClearDlg.obj
 0002:000021f0       ??_C@_13DOBH@?$AA?4?$AA?$AA@ 004ab1f0     ClearDlg.obj
 0002:000021f4       ??_C@_17EICA@?$AA?$CK?$AA?4?$AA?$CK?$AA?$AA@ 004ab1f4     ClearDlg.obj
 0002:00002200       ??_C@_19OFMI@?$AA?2?$AA?$CK?$AA?4?$AA?$CK?$AA?$AA@ 004ab200     ClearDlg.obj
 0002:0000220c       ??_C@_1FG@MGPG@?$AA?2?$AAD?$AAa?$AAt?$AAa?$AA?2?$AAe?$AA1?$AA6?$AA1?$AA2?$AA5?$AA5?$AAa?$AA?9?$AA3?$AA7?$AAc?$AA3?$AA?9@ 004ab20c     ClearDlg.obj
 0002:00002274       ??_C@_1EM@FKOH@?$AA?2?$AAe?$AA1?$AA6?$AA1?$AA2?$AA5?$AA5?$AAa?$AA?9?$AA3?$AA7?$AAc?$AA3?$AA?9?$AA1?$AA1?$AAd?$AA2?$AA?9@ 004ab274     ClearDlg.obj
 0002:000022d0       ??_C@_1M@CNHI@?$AA?2?$AAD?$AAa?$AAt?$AAa?$AA?$AA@ 004ab2d0     ClearDlg.obj
 0002:000022e0       ??_C@_1GM@EKPB@?$AAS?$AAo?$AAf?$AAt?$AAw?$AAa?$AAr?$AAe?$AA?2?$AAM?$AAi?$AAc?$AAr?$AAo?$AAs?$AAo?$AAf?$AAt?$AA?2?$AAP@ 004ab2e0     ClearDlg.obj
 0002:00002364       ??_C@_13MICM@?$AA?9?$AA?$AA@ 004ab364     ClearDlg.obj
 0002:00002368       ??_C@_17DGGP@?$AA?$CF?$AAl?$AAu?$AA?$AA@ 004ab368     ClearDlg.obj
 0002:00002374       ??_C@_1BA@MCDB@?$AAS?$AA?9?$AA1?$AA?9?$AA?$CF?$AAl?$AAu?$AA?$AA@ 004ab374     ClearDlg.obj
 0002:00002388       ??_C@_19JGOC@?$AA?4?$AAL?$AAN?$AAK?$AA?$AA@ 004ab388     ClearDlg.obj
 0002:00002394       ??_C@_19CCJ@?$AA?4?$AAl?$AAn?$AAk?$AA?$AA@ 004ab394     ClearDlg.obj
 0002:000023a0       ??_C@_1M@NCLA@?$AA?$CK?$AA?4?$AAl?$AAn?$AAk?$AA?$AA@ 004ab3a0     ClearDlg.obj
 0002:000023b0       ??_C@_1O@FBMM@?$AA?2?$AA?$CK?$AA?4?$AAl?$AAn?$AAk?$AA?$AA@ 004ab3b0     ClearDlg.obj
 0002:000023c0       ??_C@_0L@OCMF@?$CFs?$FL?$CFd?$FN?3?5?$CFs?$AA@ 004ab3c0     CppSQLite3.obj
 0002:000023d0       ??_C@_00A@?$AA@            004ab3d0     CppSQLite3.obj
 0002:000023d4       ??_7CppSQLite3Exception@@6B@ 004ab3d4     CppSQLite3.obj
 0002:000023d8       ??_C@_02DILL@?$CFs?$AA@    004ab3d8     CppSQLite3.obj
 0002:000023dc       ??_C@_0O@PMDD@UNKNOWN_ERROR?$AA@ 004ab3dc     CppSQLite3.obj
 0002:000023ec       ??_C@_0BA@BJCF@CPPSQLITE_ERROR?$AA@ 004ab3ec     CppSQLite3.obj
 0002:00002400       ??_C@_0M@KMFH@SQLITE_DONE?$AA@ 004ab400     CppSQLite3.obj
 0002:00002410       ??_C@_0L@MGPD@SQLITE_ROW?$AA@ 004ab410     CppSQLite3.obj
 0002:00002420       ??_C@_0N@ECAE@SQLITE_RANGE?$AA@ 004ab420     CppSQLite3.obj
 0002:00002430       ??_C@_0O@CFBC@SQLITE_FORMAT?$AA@ 004ab430     CppSQLite3.obj
 0002:00002440       ??_C@_0M@KPGE@SQLITE_AUTH?$AA@ 004ab440     CppSQLite3.obj
 0002:00002450       ??_C@_0N@NABH@SQLITE_NOLFS?$AA@ 004ab450     CppSQLite3.obj
 0002:00002460       ??_C@_0O@CGLK@SQLITE_MISUSE?$AA@ 004ab460     CppSQLite3.obj
 0002:00002470       ??_C@_0BA@BHFH@SQLITE_MISMATCH?$AA@ 004ab470     CppSQLite3.obj
 0002:00002484       ??_C@_0BC@MFFF@SQLITE_CONSTRAINT?$AA@ 004ab484     CppSQLite3.obj
 0002:0000249c       ??_C@_0O@FGLC@SQLITE_TOOBIG?$AA@ 004ab49c     CppSQLite3.obj
 0002:000024ac       ??_C@_0O@NOGK@SQLITE_SCHEMA?$AA@ 004ab4ac     CppSQLite3.obj
 0002:000024bc       ??_C@_0N@MEBJ@SQLITE_EMPTY?$AA@ 004ab4bc     CppSQLite3.obj
 0002:000024cc       ??_C@_0BA@HPBL@SQLITE_PROTOCOL?$AA@ 004ab4cc     CppSQLite3.obj
 0002:000024e0       ??_C@_0BA@DALL@SQLITE_CANTOPEN?$AA@ 004ab4e0     CppSQLite3.obj
 0002:000024f4       ??_C@_0M@CAHL@SQLITE_FULL?$AA@ 004ab4f4     CppSQLite3.obj
 0002:00002504       ??_C@_0BA@IBKG@SQLITE_NOTFOUND?$AA@ 004ab504     CppSQLite3.obj
 0002:00002518       ??_C@_0P@CLJP@SQLITE_CORRUPT?$AA@ 004ab518     CppSQLite3.obj
 0002:0000252c       ??_C@_0N@OINK@SQLITE_IOERR?$AA@ 004ab52c     CppSQLite3.obj
 0002:0000253c       ??_C@_0BB@EIMN@SQLITE_INTERRUPT?$AA@ 004ab53c     CppSQLite3.obj
 0002:00002550       ??_C@_0BA@FNN@SQLITE_READONLY?$AA@ 004ab550     CppSQLite3.obj
 0002:00002564       ??_C@_0N@LLEE@SQLITE_NOMEM?$AA@ 004ab564     CppSQLite3.obj
 0002:00002574       ??_C@_0O@MMIN@SQLITE_LOCKED?$AA@ 004ab574     CppSQLite3.obj
 0002:00002584       ??_C@_0M@KCCA@SQLITE_BUSY?$AA@ 004ab584     CppSQLite3.obj
 0002:00002594       ??_C@_0N@LIJA@SQLITE_ABORT?$AA@ 004ab594     CppSQLite3.obj
 0002:000025a4       ??_C@_0M@IJEJ@SQLITE_PERM?$AA@ 004ab5a4     CppSQLite3.obj
 0002:000025b4       ??_C@_0BA@LPGD@SQLITE_INTERNAL?$AA@ 004ab5b4     CppSQLite3.obj
 0002:000025c8       ??_C@_0N@KKDI@SQLITE_ERROR?$AA@ 004ab5c8     CppSQLite3.obj
 0002:000025d8       ??_C@_09JPHC@SQLITE_OK?$AA@ 004ab5d8     CppSQLite3.obj
 0002:000025e4       ??_C@_0BH@PEAG@Cannot?5allocate?5memory?$AA@ 004ab5e4     CppSQLite3.obj
 0002:00002600       ??_C@_0BF@PDGK@Cannot?5decode?5binary?$AA@ 004ab600     CppSQLite3.obj
 0002:0000261c       ??_7CppSQLite3Query@@6B@   004ab61c     CppSQLite3.obj
 0002:00002620       ??_C@_0BO@CNLM@Invalid?5field?5index?5requested?$AA@ 004ab620     CppSQLite3.obj
 0002:00002644       ??_C@_0BN@EBJM@Invalid?5field?5name?5requested?$AA@ 004ab644     CppSQLite3.obj
 0002:00002668       ??_C@_0BN@JPEK@Null?5Virtual?5Machine?5pointer?$AA@ 004ab668     CppSQLite3.obj
 0002:0000268c       ??_7CppSQLite3Table@@6B@   004ab68c     CppSQLite3.obj
 0002:00002690       ??_C@_0BM@EHMN@Invalid?5row?5index?5requested?$AA@ 004ab690     CppSQLite3.obj
 0002:000026b4       ??_C@_0BF@BDBO@Null?5Results?5pointer?$AA@ 004ab6b4     CppSQLite3.obj
 0002:000026d0       ??_7CppSQLite3Statement@@6B@ 004ab6d0     CppSQLite3.obj
 0002:000026d4       ??_C@_0BL@EPOB@Error?5binding?5string?5param?$AA@ 004ab6d4     CppSQLite3.obj
 0002:000026f4       ??_C@_0BI@MJGN@Error?5binding?5int?5param?$AA@ 004ab6f4     CppSQLite3.obj
 0002:00002710       ??_C@_0BL@GFGO@Error?5binding?5double?5param?$AA@ 004ab710     CppSQLite3.obj
 0002:00002730       ??_C@_0BJ@LLPA@Error?5binding?5blob?5param?$AA@ 004ab730     CppSQLite3.obj
 0002:00002750       ??_C@_0BJ@CDOJ@Error?5binding?5NULL?5param?$AA@ 004ab750     CppSQLite3.obj
 0002:00002770       ??_C@_0BC@HPLI@Database?5not?5open?$AA@ 004ab770     CppSQLite3.obj
 0002:00002788       ??_7CppSQLite3DB@@6B@      004ab788     CppSQLite3.obj
 0002:0000278c       ??_C@_0EE@JILK@select?5count?$CI?$CK?$CJ?5from?5sqlite_mast@ 004ab78c     CppSQLite3.obj
 0002:000027e0       ??_C@_0BF@DFJL@Invalid?5scalar?5query?$AA@ 004ab7e0     CppSQLite3.obj
 0002:00002830       ??_C@_0CH@GFEB@d?3?2my?5program?2t2?2hidedragon?2cweb@ 004ab830     CWebPage.obj
 0002:00002860       ??_C@_1BI@OMFK@?$AAa?$AAb?$AAo?$AAu?$AAt?$AA?3?$AAb?$AAl?$AAa?$AAn?$AAk?$AA?$AA@ 004ab860     CWebPage.obj
 0002:0000287c       ??_C@_1BK@OFOA@?$AAM?$AAy?$AA?5?$AAH?$AAo?$AAs?$AAt?$AA?5?$AAN?$AAa?$AAm?$AAe?$AA?$AA@ 004ab87c     CWebPage.obj
 0002:0000289c       ??_C@_08CJGK@?2HDDB?4db?$AA@ 004ab89c     DBClass.obj
 0002:000028a8       ??_7DBClass@@6B@           004ab8a8     DBClass.obj
 0002:000028ac       ??_C@_0DO@IKOK@create?5table?5AutoReserve?$CIProcess@ 004ab8ac     DBClass.obj
 0002:000028f8       ??_C@_0M@DEHC@AutoReserve?$AA@ 004ab8f8     DBClass.obj
 0002:00002908       ??_C@_0EK@GMGA@create?5table?5HabitMemory?$CIProcess@ 004ab908     DBClass.obj
 0002:00002960       ??_C@_0M@DCAA@HabitMemory?$AA@ 004ab960     DBClass.obj
 0002:00002970       ??_C@_0HF@GILP@create?5table?5BKHotkey?$CIaHK?5int?0?5P@ 004ab970     DBClass.obj
 0002:000029fc       ??_C@_08JMHC@BKHotkey?$AA@ 004ab9fc     DBClass.obj
 0002:00002a08       ??_C@_0EG@CILE@create?5table?5SizePos?$CIid?5int?0?5lef@ 004aba08     DBClass.obj
 0002:00002a5c       ??_C@_07HFOJ@SizePos?$AA@  004aba5c     DBClass.obj
 0002:00002a68       ??_C@_0FG@MGOE@create?5table?5IconTitle?$CIProcessNa@ 004aba68     DBClass.obj
 0002:00002ad0       ??_C@_09OBGP@IconTitle?$AA@ 004abad0     DBClass.obj
 0002:00002adc       ??_C@_0DI@HKIM@create?5table?5AutoHide?$CIProcessNam@ 004abadc     DBClass.obj
 0002:00002b20       ??_C@_08FMBA@AutoHide?$AA@ 004abb20     DBClass.obj
 0002:00002b2c       ??_C@_0CK@PHCI@insert?5into?5AutoHide?5values?5?$CI?8?$CFs@ 004abb2c     DBClass.obj
 0002:00002b60       ??_C@_0DB@JMGP@select?5?$CK?5from?5AutoHide?5where?5Pro@ 004abb60     DBClass.obj
 0002:00002b9c       ??_C@_0CP@IJHE@delete?5from?5AutoHide?5where?5Proce@ 004abb9c     DBClass.obj
 0002:00002bd4       ??_C@_0CL@KFME@insert?5into?5AutoReserve?5values?5?$CI@ 004abbd4     DBClass.obj
 0002:00002c08       ??_C@_0CO@GCD@insert?5into?5SizePos?5values?5?$CI?$CFd?0?$CF@ 004abc08     DBClass.obj
 0002:00002c40       ??_C@_0DA@GLD@insert?5into?5IconTitle?5values?5?$CI?8?$CF@ 004abc40     DBClass.obj
 0002:00002c7c       ??_C@_0DL@JEOM@update?5IconTitle?5set?5Title?5?$DN?5?8?$CFs@ 004abc7c     DBClass.obj
 0002:00002cc4       ??_C@_0DO@GIAB@update?5IconTitle?5set?5IconPath?5?$DN?5@ 004abcc4     DBClass.obj
 0002:00002d10       ??_C@_0DC@KLDA@select?5?$CK?5from?5IconTitle?5where?5Pr@ 004abd10     DBClass.obj
 0002:00002d4c       ??_C@_0FA@PAPD@update?5SizePos?5set?5left?5?$DN?5?$CFd?5?0?5r@ 004abd4c     DBClass.obj
 0002:00002dac       ??_C@_0CO@MKKP@insert?5into?5HabitMemory?5values?5?$CI@ 004abdac     DBClass.obj
 0002:00002de4       ??_C@_0DO@FPOM@insert?5into?5BKHotkey?5values?5?$CI?$CFd?0@ 004abde4     DBClass.obj
 0002:00002e30       ??_C@_0IJ@EDHE@update?5BKHotkey?5set?5aHK?5?$DN?5?$CFd?5?0PI@ 004abe30     DBClass.obj
 0002:00002ed4       ??_C@_0DB@LFKE@select?5?$CK?5from?5BKHotkey?5where?5Pro@ 004abed4     DBClass.obj
 0002:00002f10       ??_C@_0DA@OPAH@delete?5from?5BKHotkey?5where?5MF?5?$DN?5@ 004abf10     DBClass.obj
 0002:00002f4c       ??_C@_0DC@ODBC@select?5?$CK?5from?5BKHotkey?5where?5MF?5@ 004abf4c     DBClass.obj
 0002:00002f88       ??_C@_0DE@MKPN@select?5?$CK?5from?5AutoReserve?5where?5@ 004abf88     DBClass.obj
 0002:00002fc8       ??_C@_0DE@PKHM@select?5?$CK?5from?5HabitMemory?5where?5@ 004abfc8     DBClass.obj
 0002:00003008       ??_C@_0DC@HIAK@delete?5from?5AutoReserve?5where?5Pr@ 004ac008     DBClass.obj
 0002:00003044       ??_C@_0DA@KHCF@delete?5from?5IconTitle?5where?5Proc@ 004ac044     DBClass.obj
 0002:00003080       ??_C@_0DP@EELC@select?5IconPath?0Title?5from?5IconT@ 004ac080     DBClass.obj
 0002:000030cc       ??_C@_0DJ@PELJ@update?5IconTitle?5set?5Title?5?$DN?5?8?8w@ 004ac0cc     DBClass.obj
 0002:00003110       ??_C@_0DM@OLF@update?5IconTitle?5set?5IconPath?5?$DN?5@ 004ac110     DBClass.obj
 0002:00003158       ??_C@_0DC@EIIL@delete?5from?5HabitMemory?5where?5Pr@ 004ac158     DBClass.obj
 0002:00003194       ??_C@_0CP@KALP@delete?5from?5BKHotkey?5where?5Proce@ 004ac194     DBClass.obj
 0002:000031cc       ??_C@_0DO@JDNP@update?5HabitMemory?5set?5UseTime?5?$DN@ 004ac1cc     DBClass.obj
 0002:00003218       ??_C@_0DK@FILM@select?5UseTime?5from?5HabitMemory?5@ 004ac218     DBClass.obj
 0002:00003260       ??_C@_0EM@NOBP@select?5PID?0aHK?0Title?0hWnd?0MF?0VK?0@ 004ac260     DBClass.obj
 0002:000032bc       ??_C@_0DI@CDOE@select?5left?0right?0top?0bottom?5fro@ 004ac2bc     DBClass.obj
 0002:00003300       ??_C@_0BH@FOHA@select?$CK?5from?5AutoHide?5?$AA@ 004ac300     DBClass.obj
 0002:00003320       _IID_IDocHostUIHandlerDispatch 004ac320     hd.obj
 0002:00003338       _IID_IInternalConnection   004ac338     hd.obj
 0002:00003350       _IID_IAxWinAmbientDispatch 004ac350     hd.obj
 0002:00003368       _IID_IAxWinHostWindow      004ac368     hd.obj
 0002:00003380       _IID_IRegistrar            004ac380     hd.obj
 0002:00003398       _CLSID_Registrar           004ac398     hd.obj
 0002:000033b0       _LIBID_ATLLib              004ac3b0     hd.obj
 0002:000033c4       ??_C@_1CE@CODP@?$AAV?$AAe?$AAr?$AAs?$AAi?$AAo?$AAn?$AAI?$AAn?$AAf?$AAo?$AA2?$AA8?$AA?4?$AAh?$AAd?$AAv?$AA?$AA@ 004ac3c4     hd.obj
 0002:000033f0       ??_C@_1FM@DNDK@?$AAE?$AAR?$AAR?$AAO?$AAR?$AA?9?$AA?9?$AA?9?$AA?9?$AA?9?$AAR?$AAe?$AAa?$AAd?$AAV?$AAe?$AAr?$AAs?$AAi?$AAo@ 004ac3f0     hd.obj
 0002:00003460       ??_C@_15MFIO@?$AAH?$AAD?$AA?$AA@ 004ac460     hd.obj
 0002:00003468       ??_C@_1DM@MNIA@?$AAO?$AAp?$AAe?$AAn?$AA?5?$AAv?$AAe?$AAr?$AAs?$AAi?$AAo?$AAn?$AAi?$AAn?$AAf?$AAo?$AA2?$AA8?$AA?4?$AAh@ 004ac468     hd.obj
 0002:000034b0       ??_C@_1CE@MELA@?$AAV?$AAe?$AAr?$AAs?$AAi?$AAo?$AAn?$AAI?$AAn?$AAf?$AAo?$AA2?$AA9?$AA?4?$AAh?$AAd?$AAv?$AA?$AA@ 004ac4b0     hd.obj
 0002:000034dc       ??_C@_1BO@JDDJ@?$AAH?$AAD?$AA_?$AAM?$AAs?$AAg?$AA_?$AAG?$AAe?$AAt?$AAI?$AAc?$AAo?$AAn?$AA?$AA@ 004ac4dc     hd.obj
 0002:00003500       ??_C@_15PCIM@?$AA?9?$AAA?$AA?$AA@ 004ac500     hd.obj
 0002:00003508       ??_C@_15OIMA@?$AA?9?$AAD?$AA?$AA@ 004ac508     hd.obj
 0002:00003510       ??_C@_02CDJK@?9D?$AA@      004ac510     hd.obj
 0002:00003514       ??_C@_1BM@LDDO@?$AAM?$AAS?$AA?5?$AAS?$AAa?$AAn?$AAs?$AA?5?$AAS?$AAe?$AAr?$AAi?$AAf?$AA?$AA@ 004ac514     hd.obj
 0002:00003538       ??_C@_15BAGP@?$AA?$CF?$AAX?$AA?$AA@ 004ac538     hd.obj
 0002:00003540       ??_C@_17ONGG@?$AAC?$AA?3?$AA?2?$AA?$AA@ 004ac540     hd.obj
 0002:0000354c       ??_C@_1BE@KBPE@?$AA?2?$AAm?$AAi?$AAs?$AAc?$AA?4?$AAh?$AAd?$AAo?$AA?$AA@ 004ac54c     hd.obj
 0002:00003564       ??_C@_1LA@OHMA@?$AAH?$AAH?$AAH?$AAH?$AAH?$AAH?$AAH?$AAH?$AAH?$AAH?$AAH?$AAH?$AAH?$AAH?$AAH?$AAH?$AAH?$AAH?$AAH?$AAH@ 004ac564     hd.obj
 0002:00003638       ??_C@_1EA@EFDK@?$AAI?$AAD?$AAS?$AA_?$AAM?$AAE?$AAS?$AAS?$AAA?$AAG?$AAE?$AAB?$AAO?$AAX?$AA_?$AAN?$AAO?$AAT?$AAF?$AAO@ 004ac638     hd.obj
 0002:00003684       ??_C@_1GE@MOLH@?$AAN?$AAo?$AAt?$AA?5?$AAf?$AAo?$AAu?$AAn?$AAd?$AA?5?$AAl?$AAa?$AAn?$AAg?$AAu?$AAa?$AAg?$AAe?$AA?5?$AAp@ 004ac684     hd.obj
 0002:000036fc       ??_C@_1GA@OBEC@?$AAh?$AAt?$AAt?$AAp?$AA?3?$AA?1?$AA?1?$AAw?$AAw?$AAw?$AA?4?$AAh?$AAi?$AAd?$AAe?$AAd?$AAr?$AAa?$AAg?$AAo@ 004ac6fc     hd.obj
 0002:00003770       ??_C@_1EE@FJCN@?$AAC?$AAl?$AAi?$AAc?$AAk?$AA?5?$AAt?$AAo?$AA?5?$AAE?$AAx?$AAp?$AAa?$AAn?$AAd?$AA?5?$AAI?$AAn?$AAf?$AAo@ 004ac770     hd.obj
 0002:000037c4       ??_C@_1FA@NIIF@?$AAI?$AAn?$AA?5?$AAW?$AAi?$AAn?$AAd?$AAo?$AAw?$AA?5?$AAL?$AAi?$AAs?$AAt?$AA?5?$AAs?$AAe?$AAl?$AAe?$AAc@ 004ac7c4     hd.obj
 0002:00003824       ??_C@_1GK@PMHH@?$AAC?$AAh?$AAe?$AAc?$AAk?$AA?5?$AAb?$AAe?$AAl?$AAo?$AAw?$AA?5?$AAw?$AAi?$AAn?$AAd?$AAo?$AAw?$AA?5?$AAl@ 004ac824     hd.obj
 0002:000038a4       ??_C@_1FG@JCBB@?$AAh?$AAt?$AAt?$AAp?$AA?3?$AA?1?$AA?1?$AAw?$AAw?$AAw?$AA?4?$AAh?$AAi?$AAd?$AAe?$AAd?$AAr?$AAa?$AAg?$AAo@ 004ac8a4     hd.obj
 0002:0000390c       ??_C@_1FK@GAFC@?$AAh?$AAt?$AAt?$AAp?$AA?3?$AA?1?$AA?1?$AAw?$AAw?$AAw?$AA?4?$AAh?$AAi?$AAd?$AAe?$AAd?$AAr?$AAa?$AAg?$AAo@ 004ac90c     hd.obj
 0002:00003978       ??_C@_1EA@CJOB@?$AAh?$AAt?$AAt?$AAp?$AA?3?$AA?1?$AA?1?$AAw?$AAw?$AAw?$AA?4?$AAh?$AAi?$AAd?$AAe?$AAd?$AAr?$AAa?$AAg?$AAo@ 004ac978     hd.obj
 0002:000039c4       ??_C@_1DO@FFGI@?$AAh?$AAt?$AAt?$AAp?$AA?3?$AA?1?$AA?1?$AAh?$AAi?$AA?4?$AAb?$AAa?$AAi?$AAd?$AAu?$AA?4?$AAc?$AAo?$AAm?$AA?1@ 004ac9c4     hd.obj
 0002:00003a10       ??_C@_1HI@BBMI@?$AAh?$AAt?$AAt?$AAp?$AA?3?$AA?1?$AA?1?$AAw?$AAw?$AAw?$AA?4?$AAh?$AAi?$AAd?$AAe?$AAd?$AAr?$AAa?$AAg?$AAo@ 004aca10     hd.obj
 0002:00003aa0       ??_C@_1FK@KDPK@?$AAh?$AAt?$AAt?$AAp?$AA?3?$AA?1?$AA?1?$AAw?$AAw?$AAw?$AA?4?$AAh?$AAi?$AAd?$AAe?$AAd?$AAr?$AAa?$AAg?$AAo@ 004acaa0     hd.obj
 0002:00003b0c       ??_C@_1GG@PLMG@?$AAh?$AAt?$AAt?$AAp?$AA?3?$AA?1?$AA?1?$AAw?$AAw?$AAw?$AA?4?$AAh?$AAi?$AAd?$AAe?$AAd?$AAr?$AAa?$AAg?$AAo@ 004acb0c     hd.obj
 0002:00003b88       ??_C@_1IA@IOBH@?$AAh?$AAt?$AAt?$AAp?$AA?3?$AA?1?$AA?1?$AAw?$AAw?$AAw?$AA?4?$AAh?$AAi?$AAd?$AAe?$AAd?$AAr?$AAa?$AAg?$AAo@ 004acb88     hd.obj
 0002:00003c24       ??_C@_1HG@EDBD@?$AAh?$AAt?$AAt?$AAp?$AA?3?$AA?1?$AA?1?$AAw?$AAw?$AAw?$AA?4?$AAh?$AAi?$AAd?$AAe?$AAd?$AAr?$AAa?$AAg?$AAo@ 004acc24     hd.obj
 0002:00003cb4       ??_C@_1EC@KNJM@?$AAI?$AAD?$AAS?$AA_?$AAM?$AAE?$AAS?$AAS?$AAA?$AAG?$AAE?$AAB?$AAO?$AAX?$AA_?$AAP?$AAL?$AAE?$AAA?$AAS@ 004accb4     hd.obj
 0002:00003d04       ??_C@_1CM@HDBL@?$AAP?$AAl?$AAe?$AAa?$AAs?$AAe?$AA?5?$AAs?$AAe?$AAl?$AAe?$AAc?$AAt?$AA?5?$AAa?$AA?5?$AAi?$AAt?$AAe?$AAm@ 004acd04     hd.obj
 0002:00003d38       ??_C@_1BK@FJMP@?$AAH?$AAD?$AAU?$AAp?$AAd?$AAa?$AAt?$AAe?$AA?4?$AAe?$AAx?$AAe?$AA?$AA@ 004acd38     hd.obj
 0002:00003d58       ??_C@_1BK@HEEG@?$AAI?$AAD?$AAM?$AA_?$AAH?$AAI?$AAD?$AAE?$AAI?$AAC?$AAO?$AAN?$AA?$AA@ 004acd58     hd.obj
 0002:00003d78       ??_C@_1BG@CBPP@?$AAH?$AAi?$AAd?$AAe?$AA?5?$AA?$CG?$AAI?$AAc?$AAo?$AAn?$AA?$AA@ 004acd78     hd.obj
 0002:00003d94       ??_C@_1BK@EMKM@?$AAI?$AAD?$AAM?$AA_?$AAS?$AAH?$AAO?$AAW?$AAI?$AAC?$AAO?$AAN?$AA?$AA@ 004acd94     hd.obj
 0002:00003db4       ??_C@_1BG@PLCH@?$AAS?$AAh?$AAo?$AAw?$AA?5?$AA?$CG?$AAI?$AAc?$AAo?$AAn?$AA?$AA@ 004acdb4     hd.obj
 0002:00003dd0       ??_C@_1BK@GHB@?$AAI?$AAD?$AAM?$AA_?$AAJ?$AAO?$AAB?$AA_?$AAT?$AAI?$AAP?$AA3?$AA?$AA@ 004acdd0     hd.obj
 0002:00003df0       ??_C@_1FO@FGNB@?$AAU?$AAs?$AAe?$AA?5?$AAU?$AAp?$AAp?$AAe?$AAr?$AA?5?$AAF?$AAu?$AAn?$AAc?$AAt?$AAi?$AAo?$AAn?$AAs?$AA?5@ 004acdf0     hd.obj
 0002:00003e60       ??_C@_1BO@OHKE@?$AAI?$AAD?$AAM?$AA_?$AAS?$AAH?$AAO?$AAW?$AAW?$AAI?$AAN?$AAD?$AAO?$AAW?$AA?$AA@ 004ace60     hd.obj
 0002:00003e84       ??_C@_1CC@OAIG@?$AAS?$AAh?$AAo?$AAw?$AA?5?$AA?$CG?$AAH?$AAi?$AAd?$AAe?$AAD?$AAr?$AAa?$AAg?$AAo?$AAn?$AA?$AA@ 004ace84     hd.obj
 0002:00003eac       ??_C@_1BO@DNHM@?$AAI?$AAD?$AAM?$AA_?$AAH?$AAI?$AAD?$AAE?$AAW?$AAI?$AAN?$AAD?$AAO?$AAW?$AA?$AA@ 004aceac     hd.obj
 0002:00003ed0       ??_C@_1CC@JNEL@?$AAH?$AAi?$AAd?$AAe?$AA?5?$AA?$CG?$AAH?$AAi?$AAd?$AAe?$AAD?$AAr?$AAa?$AAg?$AAo?$AAn?$AA?$AA@ 004aced0     hd.obj
 0002:00003ef8       ??_C@_1KC@PKNF@?$AAH?$AAi?$AAd?$AAe?$AAD?$AAr?$AAa?$AAg?$AAo?$AAn?$AA?5?$AAh?$AAa?$AAs?$AA?5?$AAm?$AAi?$AAn?$AAi?$AAm@ 004acef8     hd.obj
 0002:00003fbc       ??_C@_1CK@FKMD@?$AAI?$AAD?$AAS?$AA_?$AAT?$AAR?$AAA?$AAY?$AAI?$AAC?$AAO?$AAN?$AA_?$AAB?$AAA?$AAL?$AAL?$AAT?$AAI?$AAP@ 004acfbc     hd.obj
 0002:00003ff0       ??_C@_1CA@EGB@?$AAH?$AAi?$AAd?$AAe?$AAD?$AAr?$AAa?$AAg?$AAo?$AAn?$AA?5?$AA3?$AA?4?$AA2?$AA1?$AA?$AA@ 004acff0     hd.obj
 0002:00004018       ??_C@_1DE@MBDD@?$AAI?$AAD?$AAS?$AA_?$AAT?$AAR?$AAA?$AAY?$AAI?$AAC?$AAO?$AAN?$AA_?$AAB?$AAA?$AAL?$AAL?$AAT?$AAI?$AAP@ 004ad018     hd.obj
 0002:00004058       ??_C@_1CI@KDFC@?$AAD?$AAD?$AAD?$AAD?$AAD?$AAD?$AAD?$AAD?$AAD?$AAD?$AAD?$AAD?$AAD?$AAD?$AAD?$AAD?$AAD?$AAD?$AAD?$AA?$AA@ 004ad058     hd.obj
 0002:00004088       ??_C@_1DG@KCFO@?$AAW?$AAM?$AA_?$AAN?$AAC?$AAA?$AAC?$AAT?$AAI?$AAV?$AAA?$AAT?$AAE?$AA?5?$AAH?$AAD?$AAC?$AA?5?$AAI?$AAs@ 004ad088     hd.obj
 0002:000040c8       ??_C@_1BK@BGGF@?$AAe?$AAx?$AAp?$AAl?$AAo?$AAr?$AAe?$AAr?$AA?4?$AAe?$AAx?$AAe?$AA?$AA@ 004ad0c8     hd.obj
 0002:000040e8       ??_C@_1BK@MKAE@?$AAi?$AAe?$AAx?$AAp?$AAl?$AAo?$AAr?$AAe?$AA?4?$AAe?$AAx?$AAe?$AA?$AA@ 004ad0e8     hd.obj
 0002:00004108       ??_C@_1CE@BJHI@?$AAI?$AAD?$AAM?$AA_?$AAC?$AAA?$AAN?$AAC?$AAE?$AAL?$AAR?$AAE?$AAS?$AAE?$AAR?$AAV?$AAE?$AA?$AA@ 004ad108     hd.obj
 0002:00004134       ??_C@_1CG@JHBB@?$AA?$CG?$AAU?$AAn?$AAc?$AAh?$AAe?$AAc?$AAk?$AA?5?$AAt?$AAh?$AAi?$AAs?$AA?5?$AAi?$AAt?$AAe?$AAm?$AA?$AA@ 004ad134     hd.obj
 0002:00004164       ??_C@_1BI@GOGC@?$AAI?$AAD?$AAM?$AA_?$AAR?$AAE?$AAS?$AAE?$AAR?$AAV?$AAE?$AA?$AA@ 004ad164     hd.obj
 0002:00004180       ??_C@_1CC@IOIO@?$AA?$CG?$AAC?$AAh?$AAe?$AAc?$AAk?$AA?5?$AAt?$AAh?$AAi?$AAs?$AA?5?$AAi?$AAt?$AAe?$AAm?$AA?$AA@ 004ad180     hd.obj
 0002:000041a8       ??_C@_1CE@HPFI@?$AA?$CG?$AAC?$AAh?$AAe?$AAc?$AAk?$AA?5?$AAt?$AAh?$AAi?$AAs?$AA?5?$AAi?$AAt?$AAe?$AAm?$AA?4?$AA?$AA@ 004ad1a8     hd.obj
 0002:000041d4       ??_C@_1CA@NDHL@?$AAI?$AAD?$AAM?$AA_?$AAA?$AAU?$AAT?$AAO?$AAR?$AAE?$AAS?$AAE?$AAR?$AAV?$AAE?$AA?$AA@ 004ad1d4     hd.obj
 0002:000041fc       ??_C@_1DO@NCFO@?$AA?$CG?$AAA?$AAu?$AAt?$AAo?$AA?5?$AAs?$AAe?$AAl?$AAe?$AAc?$AAt?$AA?5?$AAt?$AAh?$AAi?$AAs?$AA?5?$AAi?$AAt@ 004ad1fc     hd.obj
 0002:00004248       ??_C@_1CM@MNIL@?$AAI?$AAD?$AAM?$AA_?$AAC?$AAA?$AAN?$AAC?$AAE?$AAL?$AAA?$AAU?$AAT?$AAO?$AAR?$AAE?$AAS?$AAE?$AAR?$AAV@ 004ad248     hd.obj
 0002:0000427c       ??_C@_1CM@NJAN@?$AAC?$AAa?$AAn?$AAc?$AAe?$AAl?$AA?5?$AA?$CG?$AAA?$AAu?$AAt?$AAo?$AA?5?$AAS?$AAe?$AAl?$AAe?$AAc?$AAt?$AAe@ 004ad27c     hd.obj
 0002:000042b0       ??_C@_1GK@JDCH@?$AAI?$AAf?$AA?5?$AAe?$AAn?$AAa?$AAb?$AAl?$AAe?$AA?5?$AAm?$AAo?$AAu?$AAs?$AAe?$AA?5?$AA?0?$AAp?$AAr?$AAe@ 004ad2b0     hd.obj
 0002:00004330       ??_C@_1LM@IIDB@?$AAS?$AAe?$AAl?$AAe?$AAc?$AAt?$AA?5?$AAu?$AAn?$AAh?$AAi?$AAd?$AAe?$AA?5?$AAo?$AAr?$AA?5?$AAt?$AAo?$AA?5@ 004ad330     hd.obj
 0002:00004414       ??_C@_1CC@NCEA@?$AAI?$AAD?$AAS?$AA_?$AAT?$AAI?$AAP?$AA_?$AAL?$AAI?$AAS?$AAT?$AAV?$AAI?$AAE?$AAW?$AA?$AA@ 004ad414     hd.obj
 0002:0000443c       ??_C@_1CM@HFHK@?$AAT?$AAh?$AAe?$AA?5?$AAh?$AAO?$AAl?$AAd?$AAF?$AAo?$AAn?$AAt?$AA?5?$AAI?$AAs?$AA?5?$AAN?$AAU?$AAL?$AAL@ 004ad43c     hd.obj
 0002:00004470       ??_C@_19IOMC@?$AAo?$AAp?$AAe?$AAn?$AA?$AA@ 004ad470     hd.obj
 0002:0000447c       ??_C@_1BC@LFEH@?$AAI?$AAE?$AAX?$AAP?$AAL?$AAO?$AAR?$AAE?$AA?$AA@ 004ad47c     hd.obj
 0002:00004494       ??_C@_1FG@JFEH@?$AAh?$AAt?$AAt?$AAp?$AA?3?$AA?1?$AA?1?$AAw?$AAw?$AAw?$AA?4?$AAh?$AAi?$AAd?$AAe?$AAd?$AAr?$AAa?$AAg?$AAo@ 004ad494     hd.obj
 0002:000044fc       ??_C@_1BE@PJDE@?$AAS?$AAh?$AAo?$AAw?$AA?5?$AAI?$AAc?$AAo?$AAn?$AA?$AA@ 004ad4fc     hd.obj
 0002:00004514       ??_C@_1DE@KBBH@?$AAI?$AAD?$AAS?$AA_?$AAT?$AAI?$AAP?$AA_?$AAC?$AAL?$AAI?$AAC?$AAK?$AAT?$AAO?$AAE?$AAX?$AAP?$AAA?$AAN@ 004ad514     hd.obj
 0002:00004554       ??_C@_1DG@CMHG@?$AAC?$AAl?$AAi?$AAc?$AAk?$AA?5?$AAt?$AAo?$AA?5?$AAe?$AAx?$AAp?$AAa?$AAn?$AAd?$AA?5?$AAi?$AAn?$AAf?$AAo@ 004ad554     hd.obj
 0002:00004594       ??_C@_1BI@GOMH@?$AAe?$AAx?$AAp?$AAa?$AAn?$AAd?$AA?5?$AAi?$AAn?$AAf?$AAo?$AA?$AA@ 004ad594     hd.obj
 0002:000045b0       ??_C@_1DC@OJPL@?$AAI?$AAD?$AAS?$AA_?$AAU?$AAS?$AAA?$AAG?$AAE?$AAT?$AAI?$AAP?$AA_?$AAH?$AAI?$AAD?$AAE?$AAS?$AAE?$AAL@ 004ad5b0     hd.obj
 0002:000045ec       ??_C@_1GA@MDPM@?$AAT?$AAh?$AAe?$AA?5?$AAs?$AAe?$AAl?$AAe?$AAc?$AAt?$AAe?$AAd?$AA?5?$AAi?$AAt?$AAe?$AAm?$AA?5?$AAi?$AAn@ 004ad5ec     hd.obj
 0002:00004660       ??_C@_1EK@HHLI@?$AAI?$AAD?$AAS?$AA_?$AAU?$AAS?$AAA?$AAG?$AAE?$AAT?$AAI?$AAP?$AA_?$AAS?$AAE?$AAL?$AAW?$AAN?$AAD?$AAL@ 004ad660     hd.obj
 0002:000046b8       ??_C@_1GM@HIAC@?$AAY?$AAo?$AAu?$AA?5?$AAa?$AAl?$AAs?$AAo?$AA?5?$AAc?$AAa?$AAn?$AA?5?$AAs?$AAe?$AAl?$AAe?$AAc?$AAt?$AA?5@ 004ad6b8     hd.obj
 0002:0000473c       ??_C@_1EK@EPKC@?$AAI?$AAD?$AAS?$AA_?$AAU?$AAS?$AAA?$AAG?$AAE?$AAT?$AAI?$AAP?$AA_?$AAP?$AAR?$AAE?$AAS?$AAS?$AAH?$AAO@ 004ad73c     hd.obj
 0002:00004794       ??_C@_1FO@JBEO@?$AAP?$AAr?$AAe?$AAs?$AAs?$AA?5?$AAH?$AAi?$AAd?$AAe?$AA?5?$AAW?$AAi?$AAn?$AAd?$AAo?$AAw?$AA?5?$AAH?$AAo@ 004ad794     hd.obj
 0002:00004804       ??_C@_1EG@OOCK@?$AAI?$AAD?$AAS?$AA_?$AAU?$AAS?$AAA?$AAG?$AAE?$AAT?$AAI?$AAP?$AA_?$AAC?$AAL?$AAI?$AAC?$AAK?$AAL?$AAE@ 004ad804     hd.obj
 0002:00004858       ??_C@_1GM@MOCC@?$AAC?$AAl?$AAi?$AAc?$AAk?$AA?5?$AAm?$AAo?$AAu?$AAs?$AAe?$AA?5?$AAr?$AAi?$AAg?$AAh?$AAt?$AA?5?$AA?$CL?$AA?5@ 004ad858     hd.obj
 0002:000048dc       ??_C@_1EA@ICNO@?$AAI?$AAD?$AAS?$AA_?$AAU?$AAS?$AAA?$AAG?$AAE?$AAT?$AAI?$AAP?$AA_?$AAC?$AAL?$AAI?$AAC?$AAK?$AAM?$AAI@ 004ad8dc     hd.obj
 0002:00004928       ??_C@_1GA@BNCG@?$AAC?$AAl?$AAi?$AAc?$AAk?$AA?5?$AAm?$AAo?$AAu?$AAs?$AAe?$AA?5?$AAM?$AAi?$AAd?$AAd?$AAl?$AAe?$AA?5?$AAb@ 004ad928     hd.obj
 0002:0000499c       ??_C@_1BG@FCKO@?$AAH?$AAi?$AAd?$AAe?$AAD?$AAr?$AAa?$AAg?$AAo?$AAn?$AA?$AA@ 004ad99c     hd.obj
 0002:000049b8       ??_C@_1CK@KMJE@?$AAI?$AAD?$AAS?$AA_?$AAT?$AAR?$AAA?$AAY?$AAI?$AAC?$AAO?$AAN?$AA_?$AAT?$AAO?$AAO?$AAL?$AAT?$AAI?$AAP@ 004ad9b8     hd.obj
 0002:000049ec       ??_C@_1FA@LMKO@?$AAI?$AAD?$AAS?$AA_?$AAM?$AAE?$AAS?$AAS?$AAA?$AAG?$AAE?$AAB?$AAO?$AAX?$AA_?$AAR?$AAE?$AAG?$AAS?$AAH@ 004ad9ec     hd.obj
 0002:00004a4c       ??_C@_1EE@JLHM@?$AAR?$AAe?$AAg?$AAi?$AAs?$AAt?$AAe?$AAr?$AA?5?$AAS?$AAh?$AAo?$AAw?$AA?5?$AAH?$AAi?$AAd?$AAe?$AAD?$AAr@ 004ada4c     hd.obj
 0002:00004aa0       ??_C@_1BC@IPOH@?$AAS?$AAh?$AAo?$AAw?$AAS?$AAe?$AAl?$AAf?$AA?$AA@ 004adaa0     hd.obj
 0002:00004ab8       ??_C@_1EO@CBBG@?$AAI?$AAD?$AAS?$AA_?$AAM?$AAE?$AAS?$AAS?$AAA?$AAG?$AAE?$AAB?$AAO?$AAX?$AA_?$AAR?$AAE?$AAG?$AAH?$AAI@ 004adab8     hd.obj
 0002:00004b18       ??_C@_1EK@EABM@?$AAR?$AAe?$AAg?$AAi?$AAs?$AAt?$AAe?$AAr?$AA?5?$AAH?$AAi?$AAd?$AAe?$AA?5?$AAW?$AAi?$AAn?$AAd?$AAo?$AAw@ 004adb18     hd.obj
 0002:00004b70       ??_C@_1CE@JMIC@?$AAH?$AAi?$AAd?$AAe?$AAW?$AAi?$AAn?$AAd?$AAo?$AAw?$AAs?$AAH?$AAo?$AAt?$AAK?$AAe?$AAy?$AA?$AA@ 004adb70     hd.obj
 0002:00004b9c       ??_C@_1CC@BIKB@?$AAt?$AAo?$AAo?$AAl?$AAt?$AAi?$AAp?$AAs?$AA_?$AAc?$AAl?$AAa?$AAs?$AAs?$AA3?$AA2?$AA?$AA@ 004adb9c     hd.obj
 0002:00004bc4       ??_C@_1DM@BJGP@?$AAF?$AAi?$AAn?$AAd?$AA?5?$AAt?$AAr?$AAa?$AAy?$AAt?$AAo?$AAo?$AAl?$AAb?$AAa?$AAr?$AA?5?$AAw?$AAi?$AAn@ 004adbc4     hd.obj
 0002:00004c0c       ??_C@_1CM@PDFM@?$AAI?$AAD?$AAS?$AA_?$AAL?$AAI?$AAS?$AAT?$AAV?$AAI?$AAE?$AAW?$AA_?$AAT?$AAR?$AAA?$AAY?$AAI?$AAC?$AAO@ 004adc0c     hd.obj
 0002:00004c40       ??_C@_1BE@POMM@?$AAT?$AAr?$AAa?$AAy?$AA?5?$AAI?$AAc?$AAo?$AAn?$AA?$AA@ 004adc40     hd.obj
 0002:00004c58       ??_C@_1CO@KLGB@?$AAI?$AAD?$AAS?$AA_?$AAL?$AAI?$AAS?$AAT?$AAV?$AAI?$AAE?$AAW?$AA_?$AAP?$AAR?$AAO?$AAC?$AAE?$AAS?$AAS@ 004adc58     hd.obj
 0002:00004c90       ??_C@_1BG@BNBI@?$AAP?$AAr?$AAo?$AAc?$AAe?$AAs?$AAs?$AA?5?$AAI?$AAD?$AA?$AA@ 004adc90     hd.obj
 0002:00004cac       ??_C@_1DC@NOGA@?$AAI?$AAD?$AAS?$AA_?$AAL?$AAI?$AAS?$AAT?$AAV?$AAI?$AAE?$AAW?$AA_?$AAW?$AAI?$AAN?$AAD?$AAO?$AAW?$AAT@ 004adcac     hd.obj
 0002:00004ce8       ??_C@_1BK@GIOD@?$AAW?$AAi?$AAn?$AAd?$AAo?$AAw?$AA?5?$AAT?$AAi?$AAt?$AAl?$AAe?$AA?$AA@ 004adce8     hd.obj
 0002:00004d08       ??_C@_1DE@HBEG@?$AAI?$AAD?$AAS?$AA_?$AAM?$AAO?$AAU?$AAS?$AAE?$AA_?$AAS?$AAT?$AAA?$AAT?$AAU?$AAS?$AA_?$AAD?$AAI?$AAS@ 004add08     hd.obj
 0002:00004d48       ??_C@_1BA@JPH@?$AAD?$AAi?$AAs?$AAa?$AAb?$AAl?$AAe?$AA?$AA@ 004add48     hd.obj
 0002:00004d5c       ??_C@_1DC@MOIN@?$AAI?$AAD?$AAS?$AA_?$AAM?$AAO?$AAU?$AAS?$AAE?$AA_?$AAS?$AAT?$AAA?$AAT?$AAU?$AAS?$AA_?$AAE?$AAN?$AAA@ 004add5c     hd.obj
 0002:00004d98       ??_C@_1O@PEDF@?$AAE?$AAn?$AAa?$AAb?$AAl?$AAe?$AA?$AA@ 004add98     hd.obj
 0002:00004da8       ??_C@_19MHMH@?$AAO?$AAp?$AAe?$AAn?$AA?$AA@ 004adda8     hd.obj
 0002:00004db4       ??_C@_1CK@BDKE@?$AAh?$AAt?$AAt?$AAp?$AA?3?$AA?1?$AA?1?$AAw?$AAw?$AAw?$AA?4?$AA5?$AAH?$AAi?$AAd?$AAe?$AA?4?$AAc?$AAo?$AAm@ 004addb4     hd.obj
 0002:00004de8       ??_C@_1DG@OONL@?$AAm?$AAa?$AAi?$AAl?$AAt?$AAo?$AA?3?$AAh?$AAd?$AAs?$AAu?$AAp?$AAp?$AAo?$AAr?$AAt?$AA?$EA?$AAg?$AAm?$AAa@ 004adde8     hd.obj
 0002:00004e28       ??_C@_1DC@IGMG@?$AAF?$AAe?$AAe?$AAd?$AAb?$AAa?$AAc?$AAk?$AA?5?$AAa?$AAn?$AAd?$AA?5?$AAS?$AAu?$AAg?$AAg?$AAe?$AAs?$AAt@ 004ade28     hd.obj
 0002:00004e64       ??_C@_1BK@OKHG@?$AAI?$AAD?$AAS?$AA_?$AAT?$AAI?$AAP?$AA_?$AAM?$AAA?$AAI?$AAL?$AA?$AA@ 004ade64     hd.obj
 0002:00004e84       ??_C@_1FK@PNLG@?$AAG?$AAe?$AAt?$AA?5?$AAt?$AAh?$AAe?$AA?5?$AAn?$AAe?$AAw?$AAe?$AAs?$AAt?$AA?5?$AAi?$AAn?$AAf?$AAo?$AAr@ 004ade84     hd.obj
 0002:00004ef0       ??_C@_1BK@IGMN@?$AAI?$AAD?$AAS?$AA_?$AAT?$AAI?$AAP?$AA_?$AAH?$AAT?$AAT?$AAP?$AA?$AA@ 004adef0     hd.obj
 0002:00004f10       ??_C@_1BE@MCLO@?$AAI?$AAD?$AAS?$AA_?$AAP?$AAA?$AAR?$AAA?$AA2?$AA?$AA@ 004adf10     hd.obj
 0002:00004f28       ??_C@_19OFKN@?$AA?$AN?$AA?6?$AA?$AN?$AA?6?$AA?$AA@ 004adf28     hd.obj
 0002:00004f34       ??_C@_1BI@FMDG@?$AAI?$AAD?$AAD?$AA1?$AA0?$AA6?$AA_?$AA1?$AA0?$AA2?$AA8?$AA?$AA@ 004adf34     hd.obj
 0002:00004f50       ??_C@_1BE@KONM@?$AA2?$AA9?$AA7?$AA5?$AA0?$AA0?$AA8?$AA2?$AA0?$AA?$AA@ 004adf50     hd.obj
 0002:00004f68       ??_C@_1BPE@PJMM@?$AAP?$AAl?$AAe?$AAa?$AAs?$AAe?$AA?5?$AAs?$AAe?$AAn?$AAd?$AA?5?$AAu?$AAs?$AA?5?$AAe?$AAm?$AAa?$AAi?$AAl@ 004adf68     hd.obj
 0002:000051c0       ??_C@_1CC@OOBP@?$AAI?$AAD?$AAS?$AA_?$AAH?$AAA?$AAV?$AAE?$AAT?$AAR?$AAA?$AAY?$AAI?$AAC?$AAO?$AAN?$AA?$AA@ 004ae1c0     hd.obj
 0002:000051e8       ??_C@_19MLEE@?$AAH?$AAa?$AAv?$AAe?$AA?$AA@ 004ae1e8     hd.obj
 0002:000051f4       ??_C@_1CA@FEPG@?$AAP?$AAr?$AAo?$AAg?$AAr?$AAa?$AAm?$AA?5?$AAM?$AAa?$AAn?$AAa?$AAg?$AAe?$AAr?$AA?$AA@ 004ae1f4     hd.obj
 0002:0000521c       ??_C@_1BK@GJBF@?$AAf?$AAl?$AAa?$AAs?$AAh?$AAg?$AAe?$AAt?$AA?4?$AAe?$AAx?$AAe?$AA?$AA@ 004ae21c     hd.obj
 0002:0000523c       ??_C@_1DK@NCHD@?$AAI?$AAD?$AAS?$AA_?$AAM?$AAE?$AAS?$AAS?$AAA?$AAG?$AAE?$AAB?$AAO?$AAX?$AA_?$AAI?$AAF?$AAN?$AAO?$AAT@ 004ae23c     hd.obj
 0002:00005284       ??_C@_1MI@DEHO@?$AAT?$AAh?$AAe?$AA?5?$AAc?$AAa?$AAn?$AAc?$AAe?$AAl?$AAl?$AAa?$AAt?$AAi?$AAo?$AAn?$AA?5?$AAo?$AAf?$AA?5@ 004ae284     hd.obj
 0002:00005374       ??_C@_1GK@CJOE@?$AAC?$AAl?$AAi?$AAc?$AAk?$AA?5?$AAm?$AAo?$AAu?$AAs?$AAe?$AA?5?$AAr?$AAi?$AAg?$AAh?$AAt?$AA?5?$AA?$CL?$AA?5@ 004ae374     hd.obj
 0002:000053f4       ??_C@_1FO@HENL@?$AAC?$AAl?$AAi?$AAc?$AAk?$AA?5?$AAm?$AAo?$AAu?$AAs?$AAe?$AA?5?$AAM?$AAi?$AAd?$AAd?$AAl?$AAe?$AA?5?$AAb@ 004ae3f4     hd.obj
 0002:00005464       ??_C@_1GO@EIMG@?$AAR?$AAe?$AAc?$AAl?$AAi?$AAc?$AAk?$AA?5?$AAm?$AAo?$AAu?$AAs?$AAe?$AA?5?$AAr?$AAi?$AAg?$AAh?$AAt?$AA?5@ 004ae464     hd.obj
 0002:000054e8       ??_C@_1FA@MKCO@?$AAI?$AAD?$AAS?$AA_?$AAU?$AAS?$AAA?$AAG?$AAE?$AAT?$AAI?$AAP?$AA_?$AAR?$AAE?$AAC?$AAL?$AAI?$AAC?$AAK@ 004ae4e8     hd.obj
 0002:00005548       ??_C@_1GC@IJON@?$AAR?$AAe?$AAc?$AAl?$AAi?$AAc?$AAk?$AA?5?$AAm?$AAo?$AAu?$AAs?$AAe?$AA?5?$AAm?$AAi?$AAd?$AAd?$AAl?$AAe@ 004ae548     hd.obj
 0002:000055c0       ??_C@_1EK@OHA@?$AAI?$AAD?$AAS?$AA_?$AAU?$AAS?$AAA?$AAG?$AAE?$AAT?$AAI?$AAP?$AA_?$AAR?$AAE?$AAC?$AAL?$AAI?$AAC?$AAK@ 004ae5c0     hd.obj
 0002:00005618       ??_C@_1DO@GJHM@?$AAI?$AAD?$AAS?$AA_?$AAU?$AAS?$AAA?$AAG?$AAE?$AAT?$AAI?$AAP?$AA_?$AAM?$AAO?$AAU?$AAS?$AAE?$AAH?$AAO@ 004ae618     hd.obj
 0002:00005664       ??_C@_1EG@EDGD@?$AAU?$AAs?$AAe?$AA?5?$AAM?$AAo?$AAu?$AAs?$AAe?$AA?5?$AAh?$AAi?$AAd?$AAe?$AA?5?$AAw?$AAi?$AAn?$AAd?$AAo@ 004ae664     hd.obj
 0002:000056b8       ??_C@_1FI@BCHJ@?$AAR?$AAe?$AA?5?$AAp?$AAr?$AAe?$AAs?$AAs?$AA?5?$AAH?$AAi?$AAd?$AAe?$AA?5?$AAW?$AAi?$AAn?$AAd?$AAo?$AAw@ 004ae6b8     hd.obj
 0002:00005724       ??_C@_1EO@IPEN@?$AAI?$AAD?$AAS?$AA_?$AAU?$AAS?$AAA?$AAG?$AAE?$AAT?$AAI?$AAP?$AA_?$AAR?$AAE?$AAP?$AAR?$AAE?$AAS?$AAS@ 004ae724     hd.obj
 0002:00005784       ??_C@_1FM@FLLN@?$AAI?$AAD?$AAS?$AA_?$AAM?$AAE?$AAS?$AAS?$AAA?$AAG?$AAE?$AAB?$AAO?$AAX?$AA_?$AAR?$AAE?$AAG?$AAS?$AAH@ 004ae784     hd.obj
 0002:000057f4       ??_C@_1HM@DBBN@?$AAR?$AAe?$AAg?$AAi?$AAs?$AAt?$AAe?$AAr?$AA?5?$AAS?$AAh?$AAo?$AAw?$AA?5?$AAH?$AAi?$AAd?$AAe?$AAD?$AAr@ 004ae7f4     hd.obj
 0002:00005888       ??_C@_1EO@BDFD@?$AAI?$AAD?$AAS?$AA_?$AAM?$AAE?$AAS?$AAS?$AAA?$AAG?$AAE?$AAB?$AAO?$AAX?$AA_?$AAR?$AAE?$AAG?$AAH?$AAI@ 004ae888     hd.obj
 0002:000058e8       ??_C@_1HG@CPOE@?$AAR?$AAe?$AAg?$AAi?$AAs?$AAt?$AAe?$AAr?$AA?5?$AAh?$AAi?$AAd?$AAe?$AA?5?$AAw?$AAi?$AAn?$AAd?$AAo?$AAw@ 004ae8e8     hd.obj
 0002:00005978       ??_C@_1CG@OCHJ@?$AAD?$AAe?$AAl?$AAe?$AAt?$AAe?$AA?5?$AAA?$AAt?$AAo?$AAm?$AA?5?$AAE?$AAr?$AAr?$AAo?$AAr?$AA?4?$AA?$AA@ 004ae978     hd.obj
 0002:000059a8       ??_C@_1CO@MMEC@?$AAI?$AAD?$AAS?$AA_?$AAO?$AAP?$AAT?$AAI?$AAO?$AAN?$AAD?$AAI?$AAA?$AAL?$AAO?$AAG?$AA_?$AAT?$AAI?$AAT@ 004ae9a8     hd.obj
 0002:000059e0       ??_C@_1BA@HNBO@?$AAO?$AAp?$AAt?$AAi?$AAo?$AAn?$AAs?$AA?$AA@ 004ae9e0     hd.obj
 0002:000059f4       ??_C@_1CO@MJGP@?$AAI?$AAD?$AAS?$AA_?$AAO?$AAT?$AAH?$AAE?$AAR?$AAS?$AAE?$AAT?$AAT?$AAI?$AAN?$AAG?$AA_?$AAT?$AAI?$AAT@ 004ae9f4     hd.obj
 0002:00005a2c       ??_C@_1M@PIIK@?$AAO?$AAt?$AAh?$AAe?$AAr?$AA?$AA@ 004aea2c     hd.obj
 0002:00005a3c       ??_C@_1CK@MJAF@?$AAI?$AAD?$AAS?$AA_?$AAA?$AAU?$AAT?$AAO?$AAU?$AAP?$AAD?$AAA?$AAT?$AAE?$AA_?$AAT?$AAI?$AAT?$AAL?$AAE@ 004aea3c     hd.obj
 0002:00005a70       ??_C@_1CC@GGBL@?$AAA?$AAu?$AAt?$AAo?$AAm?$AAa?$AAt?$AAi?$AAc?$AA?5?$AAU?$AAp?$AAd?$AAa?$AAt?$AAe?$AA?$AA@ 004aea70     hd.obj
 0002:00005a98       ??_C@_1CI@CNMA@?$AAI?$AAD?$AAS?$AA_?$AAQ?$AAU?$AAI?$AAC?$AAK?$AAH?$AAI?$AAD?$AAE?$AA_?$AAT?$AAI?$AAT?$AAL?$AAE?$AA?$AA@ 004aea98     hd.obj
 0002:00005ac8       ??_C@_1CE@PAPO@?$AAQ?$AAu?$AAi?$AAc?$AAk?$AA?5?$AAH?$AAi?$AAd?$AAe?$AA?5?$AAW?$AAi?$AAn?$AAd?$AAo?$AAw?$AA?$AA@ 004aeac8     hd.obj
 0002:00005af4       ??_C@_1CK@JEIE@?$AAI?$AAD?$AAS?$AA_?$AAB?$AAA?$AAC?$AAK?$AAG?$AAR?$AAO?$AAU?$AAN?$AAD?$AA_?$AAT?$AAI?$AAT?$AAL?$AAE@ 004aeaf4     hd.obj
 0002:00005b28       ??_C@_1BM@NJBD@?$AAB?$AAa?$AAc?$AAk?$AAg?$AAr?$AAo?$AAu?$AAn?$AAd?$AAi?$AAn?$AAg?$AA?$AA@ 004aeb28     hd.obj
 0002:00005b4c       ??_C@_1CG@MAJB@?$AAI?$AAD?$AAS?$AA_?$AAP?$AAA?$AAS?$AAS?$AAW?$AAO?$AAR?$AAD?$AA_?$AAT?$AAI?$AAT?$AAL?$AAE?$AA?$AA@ 004aeb4c     hd.obj
 0002:00005b7c       ??_C@_1CI@NMAJ@?$AAP?$AAa?$AAs?$AAs?$AAw?$AAo?$AAr?$AAd?$AA?5?$AAP?$AAr?$AAo?$AAt?$AAe?$AAc?$AAt?$AAi?$AAo?$AAn?$AA?$AA@ 004aeb7c     hd.obj
 0002:00005bac       ??_C@_1CC@EANP@?$AAI?$AAD?$AAS?$AA_?$AAH?$AAO?$AAT?$AAK?$AAE?$AAY?$AA_?$AAT?$AAI?$AAT?$AAL?$AAE?$AA?$AA@ 004aebac     hd.obj
 0002:00005bd4       ??_C@_1O@GMFH@?$AAH?$AAo?$AAt?$AAk?$AAe?$AAy?$AA?$AA@ 004aebd4     hd.obj
 0002:00005be4       ??_C@_1BE@NBCH@?$JG?$JA?$IO?$KLN?$BD?$FL?$LG?$AA?5?$AA3?$AA?4?$AA2?$AA1?$AA?$AA@ 004aebe4     hd.obj
 0002:00005bfc       ??_C@_1FG@FPEO@?$AA?2?$AAM?$AAi?$AAc?$AAr?$AAo?$AAs?$AAo?$AAf?$AAt?$AA?2?$AAI?$AAn?$AAt?$AAe?$AAr?$AAn?$AAe?$AAt?$AA?5@ 004aebfc     hd.obj
 0002:00005c64       ??_C@_17CADI@?$AA?5?$AA?9?$AAA?$AA?$AA@ 004aec64     hd.obj
 0002:00005c70       ??_C@_1FM@OANA@?$AAS?$AAo?$AAf?$AAt?$AAw?$AAa?$AAr?$AAe?$AA?2?$AAM?$AAi?$AAc?$AAr?$AAo?$AAs?$AAo?$AAf?$AAt?$AA?2?$AAW@ 004aec70     hd.obj
 0002:00005ce0       ??_C@_1BK@NMGL@?$AAR?$AAI?$AAC?$AAH?$AAE?$AAD?$AA2?$AA0?$AA?4?$AAD?$AAL?$AAL?$AA?$AA@ 004aece0     hd.obj
 0002:00005d00       ??_C@_1CM@NNCG@?$AAI?$AAD?$AAS?$AA_?$AAA?$AAB?$AAO?$AAU?$AAT?$AAO?$AAP?$AAT?$AAI?$AAO?$AAN?$AA_?$AAT?$AAI?$AAT?$AAL@ 004aed00     hd.obj
 0002:00005d34       ??_C@_1BC@JIGC@?$AAA?$AAb?$AAo?$AAu?$AAt?$AA?4?$AA?4?$AA?4?$AA?$AA@ 004aed34     hd.obj
 0002:00005d4c       ??_C@_1CE@NMB@?$AAI?$AAD?$AAS?$AA_?$AAH?$AAI?$AAS?$AAT?$AAO?$AAR?$AAY?$AA_?$AAT?$AAI?$AAT?$AAL?$AAE?$AA?$AA@ 004aed4c     hd.obj
 0002:00005d78       ??_C@_1BA@CDNF@?$AAH?$AAi?$AAs?$AAt?$AAo?$AAr?$AAy?$AA?$AA@ 004aed78     hd.obj
 0002:00005d8c       ??_C@_1CC@HCBP@?$AAI?$AAD?$AAS?$AA_?$AAR?$AAE?$AAA?$AAD?$AAM?$AAE?$AA_?$AAT?$AAI?$AAT?$AAL?$AAE?$AA?$AA@ 004aed8c     hd.obj
 0002:00005db4       ??_C@_1O@HIFM@?$AAR?$AAe?$AAa?$AAd?$AAm?$AAe?$AA?$AA@ 004aedb4     hd.obj
 0002:00005dc4       ??_C@_1CA@JFIN@?$AAI?$AAD?$AAS?$AA_?$AAA?$AAB?$AAO?$AAU?$AAT?$AA_?$AAT?$AAI?$AAT?$AAL?$AAE?$AA?$AA@ 004aedc4     hd.obj
 0002:00005dec       ??_C@_1BG@KEHP@?$AAC?$AAo?$AAp?$AAy?$AAr?$AAi?$AAg?$AAh?$AAt?$AAs?$AA?$AA@ 004aedec     hd.obj
 0002:00005e08       ??_C@_1BI@EDFJ@?$AA?2?$AAr?$AAe?$AAa?$AAd?$AAm?$AAe?$AA?4?$AAr?$AAt?$AAf?$AA?$AA@ 004aee08     hd.obj
 0002:00005e24       ??_C@_1CA@DKAF@?$AA?2?$AAV?$AAe?$AAr?$AAH?$AAi?$AAs?$AAt?$AAo?$AAr?$AAy?$AA?4?$AAr?$AAt?$AAf?$AA?$AA@ 004aee24     hd.obj
 0002:00005e4c       ??_C@_01FDLN@?1?$AA@       004aee4c     hd.obj
 0002:00005e50       ??_C@_1CI@GENE@?$AAh?$AAN?$AAe?$AAt?$AAw?$AAo?$AAr?$AAk?$AAT?$AAh?$AAr?$AAe?$AAa?$AAd?$AA?5?$AAE?$AAN?$AAD?$AA?4?$AA?$AA@ 004aee50     hd.obj
 0002:00005e80       ??_C@_1EK@CDFF@?$AA?2?$AAS?$AAt?$AAr?$AAi?$AAn?$AAg?$AAF?$AAi?$AAl?$AAe?$AAI?$AAn?$AAf?$AAo?$AA?2?$AA?$CF?$AA0?$AA4?$AAx@ 004aee80     hd.obj
 0002:00005ed8       ??_C@_1DC@BEKB@?$AA?2?$AAV?$AAa?$AAr?$AAF?$AAi?$AAl?$AAe?$AAI?$AAn?$AAf?$AAo?$AA?2?$AAT?$AAr?$AAa?$AAn?$AAs?$AAl?$AAa@ 004aeed8     hd.obj
 0002:00005f14       ??_C@_1BO@PGBF@?$AAH?$AAi?$AAd?$AAe?$AAD?$AAr?$AAa?$AAg?$AAo?$AAn?$AA?4?$AAe?$AAx?$AAe?$AA?$AA@ 004aef14     hd.obj
 0002:00005f38       ??_C@_1BI@OOML@?$AA?2?$AAD?$AAo?$AAw?$AAn?$AAl?$AAo?$AAa?$AAd?$AAs?$AA?2?$AA?$AA@ 004aef38     hd.obj
 0002:00005f54       ??_C@_1CG@MIKD@?$AAv?$AAe?$AAr?$AAs?$AAi?$AAo?$AAn?$AAi?$AAn?$AAf?$AAo?$AA_?$AAe?$AAn?$AA?4?$AAh?$AAd?$AAv?$AA?$AA@ 004aef54     hd.obj
 0002:00005f84       ??_C@_0P@MJAN@Content?9Length?$AA@ 004aef84     hd.obj
 0002:00005f98       ??_C@_0BG@FBAE@en?1VersionInfo_en?4hdv?$AA@ 004aef98     hd.obj
 0002:00005fb4       ??_C@_0BD@HNCC@www?4hidedragon?4com?$AA@ 004aefb4     hd.obj
 0002:00005fcc       ??_C@_0BG@BGBN@Connection?3Keep?9Alive?$AA@ 004aefcc     hd.obj
 0002:00005fe8       ??_C@_0DL@GGCH@User?9Agent?3Mozilla?14?40?5?$CIcompatib@ 004aefe8     hd.obj
 0002:00006030       ??_C@_0L@GFJD@Accept?3?$CK?1?$CK?$AA@ 004af030     hd.obj
 0002:00006040       ??_C@_05IDEL@Host?3?$AA@   004af040     hd.obj
 0002:00006048       ??_C@_02PIMC@?$AN?6?$AA@   004af048     hd.obj
 0002:0000604c       ??_C@_09JHAB@?5HTTP?11?41?$AA@ 004af04c     hd.obj
 0002:00006058       ??_C@_04PJJL@GET?5?$AA@    004af058     hd.obj
 0002:00006060       ??_C@_1DG@LEAF@?$AAI?$AAD?$AAS?$AA_?$AAM?$AAE?$AAS?$AAS?$AAA?$AAG?$AAE?$AAB?$AAO?$AAX?$AA_?$AAS?$AAE?$AAR?$AAI?$AAA@ 004af060     hd.obj
 0002:000060a0       ??_C@_1GE@NCNN@?$AAR?$AAe?$AAg?$AAi?$AAs?$AAt?$AAe?$AAr?$AA?5?$AAc?$AAo?$AAd?$AAe?$AA?5?$AAi?$AAs?$AA?5?$AAe?$AAr?$AAr@ 004af0a0     hd.obj
 0002:00006118       ??_C@_1EE@CCPO@?$AAI?$AAD?$AAS?$AA_?$AAM?$AAE?$AAS?$AAS?$AAA?$AAG?$AAE?$AAB?$AAO?$AAX?$AA_?$AAR?$AAE?$AAG?$AAI?$AAS@ 004af118     hd.obj
 0002:0000616c       ??_C@_1JI@LOED@?$AAR?$AAe?$AAg?$AAi?$AAs?$AAt?$AAe?$AAr?$AA?5?$AAs?$AAu?$AAc?$AAc?$AAe?$AAs?$AAs?$AAf?$AAu?$AAl?$AA?$CB@ 004af16c     hd.obj
 0002:00006224       ??_C@_19FCCP@?$AAE?$AA1?$AAF?$AAA?$AA?$AA@ 004af224     hd.obj
 0002:00006230       ??_C@_19CKBK@?$AAA?$AA1?$AA0?$AAF?$AA?$AA@ 004af230     hd.obj
 0002:0000623c       ??_C@_13GMOM@?$AA?$HN?$AA?$AA@ 004af23c     hd.obj
 0002:00006240       ??_C@_13IAJL@?$AA?$HL?$AA?$AA@ 004af240     hd.obj
 0002:00006244       ??_C@_1DO@EJBL@?$AAI?$AAD?$AAS?$AA_?$AAM?$AAE?$AAS?$AAS?$AAA?$AAG?$AAE?$AAB?$AAO?$AAX?$AA_?$AAU?$AAS?$AAE?$AAR?$AAN@ 004af244     hd.obj
 0002:00006290       ??_C@_1EA@MKP@?$AAU?$AAs?$AAe?$AAr?$AA?5?$AAn?$AAa?$AAm?$AAe?$AA?5?$AAa?$AAt?$AA?5?$AAl?$AAe?$AAa?$AAs?$AAt?$AA?5?$AA3@ 004af290     hd.obj
 0002:000062dc       ??_C@_1BK@PNLC@?$AAI?$AAD?$AAM?$AA_?$AAL?$AAI?$AAN?$AAK?$AA_?$AAB?$AAU?$AAY?$AA?$AA@ 004af2dc     hd.obj
 0002:000062fc       ??_C@_1II@EJBI@?$AAL?$AAi?$AAc?$AAe?$AAn?$AAs?$AAe?$AA?5?$AAc?$AAo?$AAd?$AAe?$AA?5?$AAs?$AAe?$AAn?$AAt?$AA?5?$AAa?$AAu@ 004af2fc     hd.obj
 0002:000063a0       ??_C@_1CO@DFOB@?$AAI?$AAD?$AAS?$AA_?$AAT?$AAI?$AAP?$AA_?$AAR?$AAE?$AAG?$AAI?$AAS?$AAT?$AAE?$AAR?$AAB?$AAU?$AAY?$AAU@ 004af3a0     hd.obj
 0002:000063d8       ??_C@_1GC@NAOM@?$AAP?$AAl?$AAe?$AAa?$AAs?$AAe?$AA?5?$AAf?$AAe?$AAe?$AAl?$AA?5?$AAf?$AAr?$AAe?$AAe?$AA?5?$AAt?$AAo?$AA?5@ 004af3d8     hd.obj
 0002:00006450       ??_C@_1CM@JLBL@?$AAI?$AAD?$AAS?$AA_?$AAT?$AAI?$AAP?$AA_?$AAR?$AAE?$AAG?$AAI?$AAS?$AAT?$AAE?$AAR?$AAE?$AAM?$AAA?$AAI@ 004af450     hd.obj
 0002:00006484       ??_C@_1BC@NEOF@?$AAI?$AAD?$AAM?$AA_?$AAE?$AAX?$AAI?$AAT?$AA?$AA@ 004af484     hd.obj
 0002:0000649c       ??_C@_1M@JPCO@?$AA?$CG?$AAE?$AAx?$AAi?$AAt?$AA?$AA@ 004af49c     hd.obj
 0002:000064ac       ??_C@_1CM@DCIH@?$AAh?$AAN?$AAe?$AAt?$AAw?$AAo?$AAr?$AAk?$AAT?$AAh?$AAr?$AAe?$AAa?$AAd?$AA?5?$AAB?$AAE?$AAG?$AAI?$AAN@ 004af4ac     hd.obj
 0002:000064e0       ??_C@_1CG@NDPF@?$AAS?$AAc?$AAa?$AAn?$AAW?$AAe?$AAb?$AAP?$AAr?$AAo?$AAc?$AA?5?$AAE?$AAn?$AAt?$AAe?$AAr?$AA?4?$AA?$AA@ 004af4e0     hd.obj
 0002:00006510       ??_C@_1EA@DEFK@?$AAI?$AAD?$AAS?$AA_?$AAM?$AAE?$AAS?$AAS?$AAA?$AAG?$AAE?$AAB?$AAO?$AAX?$AA_?$AAP?$AAA?$AAS?$AAS?$AAW@ 004af510     hd.obj
 0002:0000655c       ??_C@_1DE@IPIB@?$AAP?$AAa?$AAs?$AAs?$AAw?$AAo?$AAr?$AAd?$AA?5?$AAi?$AAs?$AA?5?$AAn?$AAo?$AAt?$AA?5?$AAm?$AAa?$AAt?$AAc@ 004af55c     hd.obj
 0002:0000659c       ??_C@_1EA@HJGB@?$AAI?$AAD?$AAS?$AA_?$AAM?$AAE?$AAS?$AAS?$AAA?$AAG?$AAE?$AAB?$AAO?$AAX?$AA_?$AAI?$AAF?$AAE?$AAN?$AAA@ 004af59c     hd.obj
 0002:000065e8       ??_C@_1GA@JEGK@?$AAI?$AAf?$AA?5?$AAe?$AAn?$AAa?$AAb?$AAl?$AAe?$AA?5?$AAp?$AAa?$AAs?$AAs?$AAw?$AAo?$AAr?$AAd?$AA?5?$AAp@ 004af5e8     hd.obj
 0002:0000665c       ??_C@_1CA@IKCD@?$AAT?$AAo?$AAo?$AAl?$AAb?$AAa?$AAr?$AAW?$AAi?$AAn?$AAd?$AAo?$AAw?$AA3?$AA2?$AA?$AA@ 004af65c     hd.obj
 0002:00006684       ??_C@_1BC@HBA@?$AAS?$AAy?$AAs?$AAP?$AAa?$AAg?$AAe?$AAr?$AA?$AA@ 004af684     hd.obj
 0002:0000669c       ??_C@_1BM@EIFM@?$AAT?$AAr?$AAa?$AAy?$AAN?$AAo?$AAt?$AAi?$AAf?$AAy?$AAW?$AAn?$AAd?$AA?$AA@ 004af69c     hd.obj
 0002:000066c0       ??_C@_1BM@OIPI@?$AAS?$AAh?$AAe?$AAl?$AAl?$AA_?$AAT?$AAr?$AAa?$AAy?$AAW?$AAn?$AAd?$AA?$AA@ 004af6c0     hd.obj
 0002:000066e4       ??_C@_1BM@BLJB@?$AA?$FL?$AAH?$AAi?$AAd?$AAd?$AAe?$AAn?$AA?5?$AAI?$AAc?$AAo?$AAn?$AA?$FN?$AA?$AA@ 004af6e4     hd.obj
 0002:00006708       ??_C@_1FC@LDPH@?$AA?$FL?$AAT?$AAo?$AAo?$AAl?$AAT?$AAi?$AAp?$AA?5?$AAw?$AAa?$AAs?$AA?5?$AAe?$AAi?$AAt?$AAh?$AAe?$AAr?$AA?5@ 004af708     hd.obj
 0002:0000676c       ??_C@_1DI@JAJL@?$AAa?$AAr?$AAr?$AAT?$AAr?$AAa?$AAy?$AA?5?$AAa?$AAr?$AAr?$AAa?$AAy?$AA?5?$AAi?$AAs?$AA?5?$AAn?$AAo?$AAt@ 004af76c     hd.obj
 0002:000067b0       ??_C@_1EI@CNC@?$AAI?$AAD?$AAS?$AA_?$AAW?$AAI?$AAZ?$AAA?$AAR?$AAD?$AAB?$AAK?$AAF?$AAI?$AAN?$AAI?$AAS?$AAH?$AA_?$AAC@ 004af7b0     hd.obj
 0002:00006808       ??_C@_1DE@ODPI@?$AAI?$AAD?$AAS?$AA_?$AAW?$AAI?$AAZ?$AAA?$AAR?$AAD?$AAB?$AAK?$AAF?$AAI?$AAN?$AAS?$AAI?$AAH?$AA_?$AAF@ 004af808     hd.obj
 0002:00006848       ??_C@_1GI@ODNL@?$AAC?$AAl?$AAi?$AAc?$AAk?$AA?5?$AAF?$AAi?$AAn?$AAi?$AAs?$AAh?$AA?5?$AAt?$AAo?$AA?5?$AAh?$AAi?$AAd?$AAe@ 004af848     hd.obj
 0002:000068c4       ??_C@_1O@CBPK@?$AAF?$AAi?$AAn?$AAi?$AAs?$AAh?$AA?$AA@ 004af8c4     hd.obj
 0002:000068d4       ??_C@_1EG@LKCD@?$AAI?$AAD?$AAS?$AA_?$AAW?$AAI?$AAZ?$AAA?$AAR?$AAD?$AAB?$AAK?$AAS?$AAE?$AAL?$AAW?$AAN?$AAD?$AA_?$AAS@ 004af8d4     hd.obj
 0002:00006928       ??_C@_1DK@CLBD@?$AAI?$AAD?$AAS?$AA_?$AAW?$AAI?$AAZ?$AAA?$AAR?$AAD?$AAB?$AAK?$AAS?$AAE?$AAL?$AAW?$AAN?$AAD?$AA_?$AAF@ 004af928     hd.obj
 0002:00006970       ??_C@_1GA@FJOO@?$AAS?$AAe?$AAl?$AAe?$AAc?$AAt?$AA?5?$AAt?$AAh?$AAe?$AA?5?$AAp?$AAr?$AAo?$AAg?$AAr?$AAa?$AAm?$AAs?$AA?5@ 004af970     hd.obj
 0002:000069e4       ??_C@_1BG@OEGO@?$AAF?$AAi?$AAr?$AAs?$AAt?$AA?5?$AAS?$AAt?$AAe?$AAp?$AA?$AA@ 004af9e4     hd.obj
 0002:00006a00       ??_C@_1EK@PGHK@?$AAI?$AAD?$AAS?$AA_?$AAM?$AAE?$AAS?$AAS?$AAA?$AAG?$AAE?$AAB?$AAO?$AAX?$AA_?$AAP?$AAL?$AAE?$AAA?$AAS@ 004afa00     hd.obj
 0002:00006a58       ??_C@_1GC@GPJM@?$AAP?$AAl?$AAe?$AAa?$AAs?$AAe?$AA?5?$AAs?$AAe?$AAl?$AAe?$AAc?$AAt?$AA?5?$AAt?$AAh?$AAe?$AA?5?$AAi?$AAc@ 004afa58     hd.obj
 0002:00006ad0       ??_C@_1CM@BGIP@?$AAI?$AAD?$AAS?$AA_?$AAW?$AAI?$AAZ?$AAA?$AAR?$AAD?$AAB?$AAE?$AAG?$AAI?$AAN?$AA_?$AAT?$AAI?$AAT?$AAL@ 004afad0     hd.obj
 0002:00006b04       ??_C@_1FG@PGKF@?$AAT?$AAh?$AAe?$AA?5?$AAs?$AAp?$AAe?$AAc?$AAi?$AAf?$AAi?$AAe?$AAd?$AA?5?$AAb?$AAa?$AAc?$AAk?$AAg?$AAr@ 004afb04     hd.obj
 0002:00006b6c       ??_C@_1FC@GMHG@?$AAI?$AAD?$AAS?$AA_?$AAM?$AAE?$AAS?$AAS?$AAA?$AAG?$AAE?$AAB?$AAO?$AAX?$AA_?$AAS?$AAE?$AAL?$AAE?$AAC@ 004afb6c     hd.obj
 0002:00006bd0       ??_C@_1BAE@PCBB@?$AAY?$AAo?$AAu?$AA?5?$AAh?$AAa?$AAv?$AAe?$AA?5?$AAs?$AAe?$AAl?$AAe?$AAc?$AAt?$AAe?$AAd?$AA?5?$AAt?$AAh@ 004afbd0     hd.obj
 0002:00006d08       ??_C@_1DG@IAAM@?$AAI?$AAD?$AAS?$AA_?$AAW?$AAI?$AAZ?$AAA?$AAR?$AAD?$AAS?$AAE?$AAL?$AAW?$AAN?$AAD?$AA_?$AAP?$AAR?$AAO@ 004afd08     hd.obj
 0002:00006d48       ??_C@_1DK@GHC@?$AAI?$AAD?$AAS?$AA_?$AAW?$AAI?$AAZ?$AAA?$AAR?$AAD?$AAS?$AAE?$AAL?$AAW?$AAN?$AAD?$AA_?$AAR?$AAE?$AAL@ 004afd48     hd.obj
 0002:00006d90       ??_C@_1GI@MKMA@?$AAW?$AAi?$AAn?$AAd?$AAo?$AAw?$AA?5?$AAt?$AAi?$AAt?$AAl?$AAe?$AAs?$AA?5?$AAo?$AAr?$AA?5?$AAt?$AAo?$AAo@ 004afd90     hd.obj
 0002:00006e0c       ??_C@_1DE@HLAN@?$AAI?$AAD?$AAS?$AA_?$AAW?$AAI?$AAZ?$AAA?$AAR?$AAD?$AAS?$AAE?$AAL?$AAW?$AAN?$AAD?$AA_?$AAT?$AAR?$AAA@ 004afe0c     hd.obj
 0002:00006e4c       ??_C@_13A@?$AA?$AA?$AA?$AA@ 004afe4c     hd.obj
 0002:00006e50       ??_C@_1DG@DFCP@?$AAI?$AAD?$AAS?$AA_?$AAW?$AAI?$AAZ?$AAA?$AAR?$AAD?$AAF?$AAI?$AAN?$AAI?$AAS?$AAH?$AA_?$AAP?$AAR?$AAO@ 004afe50     hd.obj
 0002:00006e90       ??_C@_1DK@NIOC@?$AAI?$AAD?$AAS?$AA_?$AAW?$AAI?$AAZ?$AAA?$AAR?$AAD?$AAF?$AAI?$AAN?$AAI?$AAS?$AAH?$AA_?$AAR?$AAE?$AAL@ 004afe90     hd.obj
 0002:00006ed8       ??_C@_1DE@FDLD@?$AAI?$AAD?$AAS?$AA_?$AAW?$AAI?$AAZ?$AAA?$AAR?$AAD?$AAF?$AAI?$AAN?$AAI?$AAS?$AAH?$AA_?$AAT?$AAR?$AAA@ 004afed8     hd.obj
 0002:00006f18       ??_C@_1DC@FJPD@?$AAI?$AAD?$AAS?$AA_?$AAL?$AAI?$AAS?$AAT?$AAV?$AAI?$AAE?$AAW?$AAB?$AAK?$AA_?$AAP?$AAR?$AAO?$AAC?$AAE@ 004aff18     hd.obj
 0002:00006f54       ??_C@_1DI@CKNA@?$AAI?$AAD?$AAS?$AA_?$AAL?$AAI?$AAS?$AAT?$AAV?$AAI?$AAE?$AAW?$AAB?$AAK?$AA_?$AAR?$AAE?$AAL?$AAA?$AAT@ 004aff54     hd.obj
 0002:00006f98       ??_C@_1EI@PFKA@?$AAW?$AAi?$AAn?$AAd?$AAo?$AAw?$AA?5?$AAT?$AAi?$AAt?$AAl?$AAe?$AA?5?$AAo?$AAr?$AA?5?$AAT?$AAr?$AAa?$AAy@ 004aff98     hd.obj
 0002:00006ff0       ??_C@_1DA@OBHC@?$AAI?$AAD?$AAS?$AA_?$AAL?$AAI?$AAS?$AAT?$AAV?$AAI?$AAE?$AAW?$AAB?$AAK?$AA_?$AAT?$AAR?$AAA?$AAY?$AAI@ 004afff0     hd.obj
 0002:0000702c       ??_C@_1DE@LCAH@?$AAI?$AAD?$AAS?$AA_?$AAQ?$AAU?$AAI?$AAC?$AAK?$AAH?$AAI?$AAD?$AAE?$AA_?$AAD?$AAA?$AAI?$AAL?$AAO?$AAG@ 004b002c     hd.obj
 0002:0000706c       ??_C@_1DM@JKDE@?$AAP?$AAl?$AAe?$AAa?$AAs?$AAe?$AA?5?$AAS?$AAe?$AAl?$AAe?$AAc?$AAt?$AA?5?$AAE?$AAx?$AAe?$AAc?$AAu?$AAt@ 004b006c     hd.obj
 0002:000070b4       ??_C@_1DA@NPMI@?$AAI?$AAD?$AAS?$AA_?$AAQ?$AAU?$AAI?$AAC?$AAK?$AAH?$AAI?$AAD?$AAE?$AA_?$AAF?$AAI?$AAL?$AAE?$AAT?$AAY@ 004b00b4     hd.obj
 0002:000070f0       ??_C@_1DA@GBKJ@?$AAI?$AAD?$AAS?$AA_?$AAQ?$AAU?$AAI?$AAC?$AAK?$AAH?$AAI?$AAD?$AAE?$AA_?$AAF?$AAI?$AAL?$AAE?$AAT?$AAY@ 004b00f0     hd.obj
 0002:0000712c       ??_C@_1CA@JCLG@?$AAA?$AAl?$AAl?$AA?5?$AAF?$AAi?$AAl?$AAe?$AAs?$AA?5?$AA?$CI?$AA?$CK?$AA?4?$AA?$CK?$AA?$CJ?$AA?$AA@ 004b012c     hd.obj
 0002:00007154       ??_C@_1DA@DDLP@?$AAI?$AAD?$AAS?$AA_?$AAQ?$AAU?$AAI?$AAC?$AAK?$AAH?$AAI?$AAD?$AAE?$AA_?$AAF?$AAI?$AAL?$AAE?$AAT?$AAY@ 004b0154     hd.obj
 0002:00007190       ??_C@_1M@KCAL@?$AA?$CK?$AA?4?$AAE?$AAX?$AAE?$AA?$AA@ 004b0190     hd.obj
 0002:000071a0       ??_C@_1DA@MFIE@?$AAI?$AAD?$AAS?$AA_?$AAQ?$AAU?$AAI?$AAC?$AAK?$AAH?$AAI?$AAD?$AAE?$AA_?$AAF?$AAI?$AAL?$AAE?$AAT?$AAY@ 004b01a0     hd.obj
 0002:000071dc       ??_C@_1DC@LFHF@?$AAE?$AAx?$AAe?$AAc?$AAu?$AAt?$AAa?$AAb?$AAl?$AAe?$AA?5?$AAF?$AAi?$AAl?$AAe?$AAs?$AA?5?$AA?$CI?$AA?$CK?$AA?4@ 004b01dc     hd.obj
 0002:00007218       ??_C@_1GI@MMN@?$AAE?$AAx?$AAe?$AAc?$AAu?$AAt?$AAa?$AAb?$AAl?$AAe?$AA?5?$AAF?$AAi?$AAl?$AAe?$AAs?$AA?5?$AA?$CI?$AA?$CK?$AA?4@ 004b0218     hd.obj
 0002:00007294       ??_C@_19HCJC@?$AA?4?$AAE?$AAX?$AAE?$AA?$AA@ 004b0294     hd.obj
 0002:000072a0       ??_C@_1DM@FFLK@?$AAI?$AAD?$AAS?$AA_?$AAM?$AAE?$AAS?$AAS?$AAA?$AAG?$AAE?$AAB?$AAO?$AAX?$AA_?$AAN?$AAE?$AAE?$AAD?$AAS@ 004b02a0     hd.obj
 0002:000072e8       ??_C@_1IO@HDIF@?$AAI?$AAf?$AA?5?$AAe?$AAn?$AAa?$AAb?$AAl?$AAe?$AA?5?$AAr?$AAu?$AAn?$AA?5?$AAp?$AAr?$AAo?$AAg?$AAr?$AAa@ 004b02e8     hd.obj
 0002:00007394       ??_C@_1DE@PJHJ@?$AA?$CG?$AAC?$AAa?$AAn?$AAc?$AAe?$AAl?$AA?5?$AAC?$AAh?$AAe?$AAc?$AAk?$AA?5?$AAT?$AAh?$AAi?$AAs?$AA?5?$AAW@ 004b0394     hd.obj
 0002:000073d4       ??_C@_1CG@CMJO@?$AA?$CG?$AAC?$AAh?$AAe?$AAc?$AAk?$AA?5?$AAT?$AAh?$AAi?$AAs?$AA?5?$AAW?$AAi?$AAn?$AAd?$AAo?$AAw?$AA?$AA@ 004b03d4     hd.obj
 0002:00007404       ??_C@_1DK@BLKK@?$AA?$CG?$AAA?$AAu?$AAt?$AAo?$AAm?$AAa?$AAt?$AAi?$AAc?$AA?5?$AAC?$AAh?$AAe?$AAc?$AAk?$AA?5?$AAT?$AAh?$AAi@ 004b0404     hd.obj
 0002:0000744c       ??_C@_1EI@HLGO@?$AAC?$AAa?$AAn?$AAc?$AAe?$AA?$CG?$AAl?$AA?5?$AAA?$AAu?$AAt?$AAo?$AAm?$AAa?$AAt?$AAi?$AAc?$AA?5?$AAC?$AAh@ 004b044c     hd.obj
 0002:000074a4       ??_C@_19MFNE@?$AAV?$AAa?$AAl?$AA4?$AA?$AA@ 004b04a4     hd.obj
 0002:000074b0       ??_C@_19HLLF@?$AAV?$AAa?$AAl?$AA3?$AA?$AA@ 004b04b0     hd.obj
 0002:000074bc       ??_C@_19CJKD@?$AAV?$AAa?$AAl?$AA2?$AA?$AA@ 004b04bc     hd.obj
 0002:000074c8       ??_C@_19NPJI@?$AAV?$AAa?$AAl?$AA1?$AA?$AA@ 004b04c8     hd.obj
 0002:000074d4       ??_C@_19JHMC@?$AAV?$AAa?$AAl?$AA5?$AA?$AA@ 004b04d4     hd.obj
 0002:000074e0       ??_C@_1CI@EFNE@?$AAS?$AAo?$AAf?$AAt?$AAw?$AAa?$AAr?$AAe?$AA?2?$AAH?$AAi?$AAd?$AAe?$AAD?$AAr?$AAa?$AAg?$AAo?$AAn?$AA?$AA@ 004b04e0     hd.obj
 0002:00007510       ??_C@_1DI@IFPA@?$AAD?$AAe?$AAl?$AAe?$AAt?$AAe?$AA?5?$AAB?$AAi?$AAt?$AAm?$AAa?$AAp?$AA?5?$AAO?$AAb?$AAj?$AAe?$AAc?$AAt@ 004b0510     hd2.obj
 0002:00007554       ??_C@_1DE@BCDE@?$AAC?$AAr?$AAe?$AAa?$AAt?$AAe?$AAC?$AAo?$AAm?$AAp?$AAa?$AAt?$AAi?$AAb?$AAl?$AAe?$AAD?$AAC?$AA?5?$AAE@ 004b0554     hd2.obj
 0002:00007594       ??_C@_1CK@KGIF@?$AA?2?$AAA?$AAu?$AAt?$AAo?$AAR?$AAe?$AAs?$AAe?$AAr?$AAv?$AAe?$AAF?$AAi?$AAl?$AAe?$AA?4?$AAa?$AAr?$AAf@ 004b0594     hd2.obj
 0002:000075c8       ??_C@_0BF@DADG@Already?5In?5File?5List?$AA@ 004b05c8     hd2.obj
 0002:000075e4       ??_C@_0CD@ICGN@A?5Error?5Occur?0The?5ARFile?5Size?5Is@ 004b05e4     hd2.obj
 0002:00007610       ??_C@_0CB@IIIC@Create?5AutoReserveFileList?5Error@ 004b0610     hd2.obj
 0002:00007638       ??_C@_0BN@HKIE@The?5ARF?5File?5Records?5Is?5Zero?$AA@ 004b0638     hd2.obj
 0002:0000765c       ??_C@_1CE@NCLI@?$AA?2?$AAH?$AAa?$AAb?$AAi?$AAt?$AAM?$AAe?$AAm?$AAF?$AAi?$AAl?$AAe?$AA?4?$AAh?$AAm?$AAf?$AA?$AA@ 004b065c     hd2.obj
 0002:00007688       ??_C@_0BP@KGIP@Not?5Have?5This?5Item?5Between?5Del?$AA@ 004b0688     hd2.obj
 0002:000076b0       ??_C@_0CF@HKFD@Not?5Have?5This?5Item?5Between?5Add?5T@ 004b06b0     hd2.obj
 0002:000076dc       ??_C@_0CG@HGHL@Not?5Have?5This?5Item?5Between?5IsHav@ 004b06dc     hd2.obj
 0002:0000770c       ??_C@_1CE@LNFF@?$AAC?$AAu?$AAr?$AAr?$AAe?$AAn?$AAt?$AAL?$AAa?$AAn?$AAg?$AAu?$AAa?$AAg?$AAe?$AAI?$AAD?$AA?$AA@ 004b070c     hd2.obj
 0002:00007738       ??_C@_1M@FFPB@?$AAF?$AAi?$AAr?$AAs?$AAt?$AA?$AA@ 004b0738     hd2.obj
 0002:00007748       ??_C@_1CM@HBNE@?$AAW?$AAr?$AAi?$AAt?$AAe?$AA?5?$AAL?$AAa?$AAn?$AAg?$AAu?$AAa?$AAg?$AAe?$AA?5?$AAE?$AAr?$AAr?$AAo?$AAr@ 004b0748     hd2.obj
 0002:0000777c       ??_C@_1BA@DJHK@?$AAS?$AAe?$AAt?$AAt?$AAi?$AAn?$AAg?$AA?$AA@ 004b077c     hd2.obj
 0002:00007790       ??_C@_1CA@GBMO@?$AAC?$AAu?$AAr?$AAr?$AAe?$AAn?$AAt?$AAL?$AAa?$AAn?$AAg?$AAu?$AAa?$AAg?$AAe?$AA?$AA@ 004b0790     hd2.obj
 0002:000077b8       ??_C@_1BA@EIND@?$AAE?$AAn?$AAg?$AAl?$AAi?$AAs?$AAh?$AA?$AA@ 004b07b8     hd2.obj
 0002:000077cc       ??_C@_1DE@KPCP@?$AA?2?$AAL?$AAa?$AAn?$AAg?$AAu?$AAa?$AAg?$AAe?$AA?2?$AAL?$AAa?$AAn?$AAg?$AAS?$AAe?$AAt?$AAt?$AAi?$AAn@ 004b07cc     hd2.obj
 0002:0000780c       ??_C@_1CA@HFNK@?$AAL?$AAa?$AAn?$AAg?$AAS?$AAe?$AAt?$AAt?$AAi?$AAn?$AAg?$AA?4?$AAi?$AAn?$AAi?$AA?$AA@ 004b080c     hd2.obj
 0002:00007834       ??_C@_1BG@LAMC@?$AAL?$AAa?$AAn?$AAg?$AAu?$AAa?$AAg?$AAe?$AAI?$AAD?$AA?$AA@ 004b0834     hd2.obj
 0002:00007850       ??_C@_1BG@GIHA@?$AA?2?$AAL?$AAa?$AAn?$AAg?$AAu?$AAa?$AAg?$AAe?$AA?2?$AA?$AA@ 004b0850     hd2.obj
 0002:0000786c       ??_C@_1CA@FEGE@?$AA?2?$AAL?$AAa?$AAn?$AAg?$AAu?$AAa?$AAg?$AAe?$AA?2?$AA?$CK?$AA?4?$AAi?$AAn?$AAi?$AA?$AA@ 004b086c     hd2.obj
 0002:00007894       ??_C@_1BC@OHLO@?$AAL?$AAa?$AAn?$AAg?$AAu?$AAa?$AAg?$AAe?$AA?$AA@ 004b0894     hd2.obj
 0002:000078ac       ??_C@_1BI@NOCN@?$AAI?$AAD?$AAD?$AA?$CF?$AAd?$AA_?$AAT?$AAi?$AAt?$AAl?$AAe?$AA?$AA@ 004b08ac     hd2.obj
 0002:000078c8       ??_C@_1O@KNDE@?$AAS?$AAt?$AAr?$AAi?$AAn?$AAg?$AA?$AA@ 004b08c8     hd2.obj
 0002:000078d8       ??_C@_1BI@NONM@?$AAI?$AAD?$AAD?$AA1?$AA8?$AA1?$AA_?$AA1?$AA2?$AA2?$AA6?$AA?$AA@ 004b08d8     hd2.obj
 0002:000078f4       ??_C@_1BG@HEPG@?$AAI?$AAD?$AAD?$AA1?$AA0?$AA_?$AA1?$AA6?$AA6?$AA4?$AA?$AA@ 004b08f4     hd2.obj
 0002:00007910       ??_C@_1BG@FDFE@?$AAI?$AAD?$AAD?$AA1?$AA0?$AA_?$AA1?$AA0?$AA0?$AA4?$AA?$AA@ 004b0910     hd2.obj
 0002:0000792c       ??_C@_1BC@HICJ@?$AAI?$AAD?$AAD?$AA?$CF?$AAd?$AA_?$AA?$CF?$AAd?$AA?$AA@ 004b092c     hd2.obj
 0002:00007944       ??_C@_1CI@GBEB@?$AAI?$AAD?$AAM?$AA_?$AAA?$AAC?$AAQ?$AAU?$AAI?$AAR?$AAE?$AAL?$AAA?$AAN?$AAG?$AAU?$AAA?$AAG?$AAE?$AA?$AA@ 004b0944     hd2.obj
 0002:00007974       ??_C@_1CI@PCBF@?$AAI?$AAD?$AAM?$AA_?$AAP?$AAR?$AAO?$AAC?$AAE?$AAS?$AAS?$AAL?$AAI?$AAS?$AAT?$AA_?$AAE?$AAN?$AAD?$AA?$AA@ 004b0974     hd2.obj
 0002:000079a4       ??_C@_1CK@FAJA@?$AAI?$AAD?$AAM?$AA_?$AAP?$AAR?$AAO?$AAC?$AAE?$AAS?$AAS?$AAL?$AAI?$AAS?$AAT?$AA_?$AAH?$AAI?$AAD?$AAE@ 004b09a4     hd2.obj
 0002:000079d8       ??_C@_1CG@NJHH@?$AAI?$AAD?$AAM?$AA_?$AAB?$AAK?$AAT?$AAA?$AAB?$AA_?$AAB?$AAK?$AAW?$AAI?$AAZ?$AAA?$AAR?$AAD?$AA?$AA@ 004b09d8     hd2.obj
 0002:00007a08       ??_C@_1CA@KFMH@?$AAI?$AAD?$AAM?$AA_?$AAB?$AAK?$AAI?$AAT?$AAE?$AAM?$AA_?$AAS?$AAH?$AAO?$AAW?$AA?$AA@ 004b0a08     hd2.obj
 0002:00007a30       ??_C@_1CE@ILLM@?$AAI?$AAD?$AAM?$AA_?$AAT?$AAA?$AAB?$AA_?$AAT?$AAR?$AAA?$AAY?$AA_?$AAL?$AAI?$AAS?$AAT?$AA?$AA@ 004b0a30     hd2.obj
 0002:00007a5c       ??_C@_1CA@MFBP@?$AAI?$AAD?$AAM?$AA_?$AAH?$AAE?$AAL?$AAP?$AA_?$AAH?$AAI?$AAD?$AAE?$AAI?$AAP?$AA?$AA@ 004b0a5c     hd2.obj
 0002:00007a84       ??_C@_1BO@PEJJ@?$AAI?$AAD?$AAM?$AA_?$AAH?$AAE?$AAL?$AAP?$AA_?$AAC?$AAL?$AAE?$AAA?$AAN?$AA?$AA@ 004b0a84     hd2.obj
 0002:00007aa8       ??_C@_1BO@DBBE@?$AAI?$AAD?$AAM?$AA_?$AAX?$AAP?$AAD?$AAI?$AAS?$AAG?$AAU?$AAI?$AAS?$AAE?$AA?$AA@ 004b0aa8     hd2.obj
 0002:00007acc       ??_C@_1BC@LDBI@?$AAI?$AAD?$AAM?$AA_?$AAX?$AAP?$AAB?$AAK?$AA?$AA@ 004b0acc     hd2.obj
 0002:00007ae4       ??_C@_1BC@KHBJ@?$AAI?$AAD?$AAM?$AA_?$AAX?$AAP?$AAQ?$AAH?$AA?$AA@ 004b0ae4     hd2.obj
 0002:00007afc       ??_C@_1BM@IMP@?$AAI?$AAD?$AAM?$AA_?$AAB?$AAU?$AAY?$AAO?$AAN?$AAL?$AAI?$AAN?$AAE?$AA?$AA@ 004b0afc     hd2.obj
 0002:00007b20       ??_C@_1BO@MKCO@?$AAI?$AAD?$AAM?$AA_?$AAQ?$AAU?$AAI?$AAC?$AAK?$AAS?$AAT?$AAA?$AAR?$AAT?$AA?$AA@ 004b0b20     hd2.obj
 0002:00007b44       ??_C@_1CG@KOLF@?$AAI?$AAD?$AAM?$AA_?$AAC?$AAH?$AAA?$AAN?$AAG?$AAE?$AAL?$AAA?$AAN?$AAG?$AAU?$AAA?$AAG?$AAE?$AA?$AA@ 004b0b44     hd2.obj
 0002:00007b74       ??_C@_1CC@PDDD@?$AAI?$AAD?$AAM?$AA_?$AAU?$AAN?$AAR?$AAE?$AAG?$AAI?$AAS?$AAT?$AAE?$AAR?$AAH?$AAK?$AA?$AA@ 004b0b74     hd2.obj
 0002:00007b9c       ??_C@_1CA@MEHI@?$AAI?$AAD?$AAM?$AA_?$AAB?$AAK?$AAW?$AAN?$AAD?$AAH?$AAO?$AAT?$AAK?$AAE?$AAY?$AA?$AA@ 004b0b9c     hd2.obj
 0002:00007bc4       ??_C@_1BC@PMGG@?$AAI?$AAD?$AAM?$AA_?$AAT?$AAO?$AAB?$AAK?$AA?$AA@ 004b0bc4     hd2.obj
 0002:00007bdc       ??_C@_1BK@CFMG@?$AAI?$AAD?$AAM?$AA_?$AAR?$AAE?$AAM?$AAE?$AAM?$AAB?$AAE?$AAR?$AA?$AA@ 004b0bdc     hd2.obj
 0002:00007bfc       ??_C@_1CK@LKLH@?$AAI?$AAD?$AAM?$AA_?$AAR?$AAE?$AAS?$AAT?$AAO?$AAR?$AAE?$AAI?$AAC?$AAO?$AAN?$AAT?$AAI?$AAT?$AAL?$AAE@ 004b0bfc     hd2.obj
 0002:00007c30       ??_C@_1CA@JIDM@?$AAI?$AAD?$AAM?$AA_?$AAC?$AAH?$AAA?$AAN?$AAG?$AAE?$AAT?$AAI?$AAT?$AAL?$AAE?$AA?$AA@ 004b0c30     hd2.obj
 0002:00007c58       ??_C@_1BO@KLA@?$AAI?$AAD?$AAM?$AA_?$AAC?$AAH?$AAA?$AAN?$AAG?$AAE?$AAI?$AAC?$AAO?$AAN?$AA?$AA@ 004b0c58     hd2.obj
 0002:00007c7c       ??_C@_1DC@KOBC@?$AAI?$AAD?$AAM?$AA_?$AAT?$AAR?$AAA?$AAN?$AAS?$AAP?$AAA?$AAR?$AAE?$AAN?$AAT?$AA_?$AAM?$AAO?$AAS?$AAT@ 004b0c7c     hd2.obj
 0002:00007cb8       ??_C@_1DG@BEIN@?$AAI?$AAD?$AAM?$AA_?$AAT?$AAR?$AAA?$AAN?$AAS?$AAP?$AAA?$AAR?$AAE?$AAN?$AAT?$AA_?$AAM?$AAI?$AAD?$AAD@ 004b0cb8     hd2.obj
 0002:00007cf8       ??_C@_1CO@CGCJ@?$AAI?$AAD?$AAM?$AA_?$AAT?$AAR?$AAA?$AAN?$AAS?$AAP?$AAA?$AAR?$AAE?$AAN?$AAT?$AA_?$AAM?$AAI?$AAD?$AAD@ 004b0cf8     hd2.obj
 0002:00007d30       ??_C@_1DE@KKCJ@?$AAI?$AAD?$AAM?$AA_?$AAT?$AAR?$AAA?$AAN?$AAS?$AAP?$AAA?$AAR?$AAE?$AAN?$AAT?$AA_?$AAM?$AAI?$AAD?$AAD@ 004b0d30     hd2.obj
 0002:00007d70       ??_C@_1CI@KPGB@?$AAI?$AAD?$AAM?$AA_?$AAT?$AAR?$AAA?$AAN?$AAS?$AAP?$AAA?$AAR?$AAE?$AAN?$AAT?$AA_?$AAL?$AAO?$AAW?$AA?$AA@ 004b0d70     hd2.obj
 0002:00007da0       ??_C@_1DA@NMLN@?$AAI?$AAD?$AAM?$AA_?$AAT?$AAR?$AAA?$AAN?$AAS?$AAP?$AAA?$AAR?$AAE?$AAN?$AAT?$AA_?$AAR?$AAE?$AAS?$AAT@ 004b0da0     hd2.obj
 0002:00007ddc       ??_C@_1CA@NBJK@?$AAI?$AAD?$AAM?$AA_?$AAS?$AAE?$AAT?$AAW?$AAN?$AAD?$AAA?$AAL?$AAP?$AAH?$AAA?$AA?$AA@ 004b0ddc     hd2.obj
 0002:00007e04       ??_C@_1BK@NPJD@?$AAI?$AAD?$AAM?$AA_?$AAP?$AAR?$AAO?$AAP?$AAE?$AAR?$AAT?$AAY?$AA?$AA@ 004b0e04     hd2.obj
 0002:00007e24       ??_C@_1BI@CJKC@?$AAI?$AAD?$AAM?$AA_?$AAH?$AAI?$AAD?$AAE?$AAS?$AAE?$AAL?$AA?$AA@ 004b0e24     hd2.obj
 0002:00007e40       ??_C@_1BO@BCIC@?$AAI?$AAD?$AAM?$AA_?$AAR?$AAE?$AAS?$AAE?$AAR?$AAV?$AAE?$AAS?$AAE?$AAL?$AA?$AA@ 004b0e40     hd2.obj
 0002:00007e64       ??_C@_1CI@BKNG@?$AAI?$AAD?$AAM?$AA_?$AAE?$AAX?$AAP?$AAA?$AAN?$AAD?$AAI?$AAN?$AAF?$AAO?$AAP?$AAA?$AAN?$AAE?$AAL?$AA?$AA@ 004b0e64     hd2.obj
 0002:00007e94       ??_C@_1CG@JLJ@?$AAI?$AAD?$AAM?$AA_?$AAN?$AAE?$AAW?$AAC?$AAO?$AAM?$AAM?$AAE?$AAR?$AAM?$AAO?$AAD?$AAE?$AAL?$AA?$AA@ 004b0e94     hd2.obj
 0002:00007ec4       ??_C@_1CE@CDEF@?$AAI?$AAD?$AAM?$AA_?$AAH?$AAI?$AAD?$AAE?$AAH?$AAD?$AAP?$AAR?$AAO?$AAC?$AAE?$AAS?$AAS?$AA?$AA@ 004b0ec4     hd2.obj
 0002:00007ef0       ??_C@_1BE@DDG@?$AAI?$AAD?$AAM?$AA_?$AAO?$AAN?$AAT?$AAO?$AAP?$AA?$AA@ 004b0ef0     hd2.obj
 0002:00007f08       ??_C@_1BO@EHGP@?$AAA?$AAl?$AAw?$AAa?$AAy?$AAs?$AA?5?$AAO?$AAn?$AA?5?$AAT?$AAo?$AA?$CG?$AAp?$AA?$AA@ 004b0f08     hd2.obj
 0002:00007f2c       ??_C@_1BM@BFDO@?$AAI?$AAD?$AAM?$AA_?$AAM?$AAA?$AAI?$AAN?$AA_?$AAH?$AAE?$AAL?$AAP?$AA?$AA@ 004b0f2c     hd2.obj
 0002:00007f50       ??_C@_1M@CHNJ@?$AA?$CG?$AAH?$AAe?$AAl?$AAp?$AA?$AA@ 004b0f50     hd2.obj
 0002:00007f60       ??_C@_1BM@BKLB@?$AAI?$AAD?$AAM?$AA_?$AAM?$AAA?$AAI?$AAN?$AA_?$AAT?$AAO?$AAO?$AAL?$AA?$AA@ 004b0f60     hd2.obj
 0002:00007f84       ??_C@_1M@CIFG@?$AA?$CG?$AAT?$AAo?$AAo?$AAl?$AA?$AA@ 004b0f84     hd2.obj
 0002:00007f94       ??_C@_1CI@GKBL@?$AAI?$AAD?$AAM?$AA_?$AAM?$AAA?$AAI?$AAN?$AA_?$AAB?$AAA?$AAC?$AAK?$AAG?$AAR?$AAO?$AAU?$AAN?$AAD?$AA?$AA@ 004b0f94     hd2.obj
 0002:00007fc4       ??_C@_1CE@NGHD@?$AAI?$AAD?$AAM?$AA_?$AAM?$AAA?$AAI?$AAN?$AA_?$AAD?$AAI?$AAS?$AAG?$AAU?$AAI?$AAS?$AAE?$AA?$AA@ 004b0fc4     hd2.obj
 0002:00007ff0       ??_C@_1BE@OKHG@?$AA?$CG?$AAD?$AAi?$AAs?$AAg?$AAu?$AAi?$AAs?$AAe?$AA?$AA@ 004b0ff0     hd2.obj
 0002:00008008       ??_C@_1BK@JKFM@?$AAI?$AAD?$AAM?$AA_?$AAM?$AAA?$AAI?$AAN?$AA_?$AAJ?$AAO?$AAB?$AA?$AA@ 004b1008     hd2.obj
 0002:00008028       ??_C@_19EHCH@?$AA?$CG?$AAJ?$AAo?$AAb?$AA?$AA@ 004b1028     hd2.obj
 0002:00008034       ??_C@_1BM@HPBC@?$AAI?$AAD?$AAM?$AA_?$AAM?$AAA?$AAI?$AAN?$AA_?$AAF?$AAI?$AAL?$AAE?$AA?$AA@ 004b1034     hd2.obj
 0002:00008058       ??_C@_1M@ENPF@?$AA?$CG?$AAF?$AAi?$AAl?$AAe?$AA?$AA@ 004b1058     hd2.obj
 0002:00008068       ??_C@_1CE@HDB@?$AAI?$AAD?$AAM?$AA_?$AAV?$AAI?$AAD?$AAE?$AAO?$AAT?$AAU?$AAR?$AAO?$AAR?$AAI?$AAA?$AAL?$AA?$AA@ 004b1068     hd2.obj
 0002:00008094       ??_C@_1BO@DOEE@?$AAI?$AAD?$AAM?$AA_?$AAU?$AAS?$AAE?$AAR?$AAM?$AAA?$AAN?$AAU?$AAA?$AAL?$AA?$AA@ 004b1094     hd2.obj
 0002:000080b8       ??_C@_1BG@HOPF@?$AAI?$AAD?$AAM?$AA_?$AAU?$AAP?$AAD?$AAA?$AAT?$AAE?$AA?$AA@ 004b10b8     hd2.obj
 0002:000080d4       ??_C@_1BC@NPJP@?$AAI?$AAD?$AAM?$AA_?$AAB?$AAL?$AAO?$AAG?$AA?$AA@ 004b10d4     hd2.obj
 0002:000080ec       ??_C@_1BI@EPDB@?$AAI?$AAD?$AAM?$AA_?$AAS?$AAU?$AAG?$AAG?$AAE?$AAS?$AAT?$AA?$AA@ 004b10ec     hd2.obj
 0002:00008108       ??_C@_1BK@EHGH@?$AAI?$AAD?$AAM?$AA_?$AAR?$AAE?$AAG?$AAI?$AAS?$AAT?$AAE?$AAR?$AA?$AA@ 004b1108     hd2.obj
 0002:00008128       ??_C@_1BE@NGCP@?$AAI?$AAD?$AAM?$AA_?$AAA?$AAB?$AAO?$AAU?$AAT?$AA?$AA@ 004b1128     hd2.obj
 0002:00008140       ??_C@_1BG@LILC@?$AAI?$AAD?$AAM?$AA_?$AAS?$AAP?$AAE?$AAC?$AAB?$AAK?$AA?$AA@ 004b1140     hd2.obj
 0002:0000815c       ??_C@_1BG@JECO@?$AAI?$AAD?$AAM?$AA_?$AAO?$AAP?$AAT?$AAI?$AAO?$AAN?$AA?$AA@ 004b115c     hd2.obj
 0002:00008178       ??_C@_1BI@JIHA@?$AAI?$AAD?$AAM?$AA_?$AAH?$AAI?$AAD?$AAE?$AAT?$AAI?$AAP?$AA?$AA@ 004b1178     hd2.obj
 0002:00008194       ??_C@_1DO@PJBM@?$AA?$CG?$AAG?$AAe?$AAt?$AA?5?$AAM?$AAo?$AAr?$AAe?$AA?5?$AAL?$AAa?$AAn?$AAg?$AAu?$AAa?$AAg?$AAe?$AA?5?$AAp@ 004b1194     hd2.obj
 0002:000081e0       ??_C@_1CK@KBDA@?$AAI?$AAD?$AAS?$AA_?$AAM?$AAA?$AAI?$AAN?$AAD?$AAI?$AAA?$AAL?$AAO?$AAG?$AA_?$AAT?$AAI?$AAT?$AAL?$AAE@ 004b11e0     hd2.obj
 0002:00008214       ??_C@_19LJM@?$AA?$CF?$AA0?$AA4?$AAX?$AA?$AA@ 004b1214     hd2.obj
 0002:00008220       ??_C@_1EA@GBO@?$AAI?$AAD?$AAS?$AA_?$AAM?$AAE?$AAS?$AAS?$AAA?$AAG?$AAE?$AAB?$AAO?$AAX?$AA_?$AAU?$AAP?$AAD?$AAA?$AAT@ 004b1220     hd2.obj
 0002:0000826c       ??_C@_1EC@BIPO@?$AAU?$AAp?$AAd?$AAa?$AAt?$AAe?$AA?5?$AAL?$AAa?$AAn?$AAg?$AAu?$AAa?$AAg?$AAe?$AA?5?$AAP?$AAa?$AAc?$AAk@ 004b126c     hd2.obj
 0002:000082bc       ??_C@_1BM@BCJG@?$AA?1?$AAe?$AAn?$AA?1?$AAL?$AAa?$AAn?$AAg?$AAu?$AAa?$AAg?$AAe?$AA?1?$AA?$AA@ 004b12bc     hd2.obj
 0002:000082e0       ??_C@_0O@PKL@?1en?1Language?1?$AA@ 004b12e0     hd2.obj
 0002:000082f0       ??_C@_1BA@KDAF@?$AAV?$AAe?$AAr?$AAs?$AAi?$AAo?$AAn?$AA?$AA@ 004b12f0     hd2.obj
 0002:00008304       ??_C@_1BK@MHOK@?$AAL?$AAa?$AAn?$AAg?$AAu?$AAa?$AAg?$AAe?$AAF?$AAi?$AAl?$AAe?$AA?$AA@ 004b1304     hd2.obj
 0002:00008324       ??_C@_1BG@JLGL@?$AAF?$AAi?$AAl?$AAe?$AAN?$AAu?$AAm?$AAb?$AAe?$AAr?$AA?$AA@ 004b1324     hd2.obj
 0002:00008340       ??_C@_1CC@LCLM@?$AAL?$AAa?$AAn?$AAg?$AAu?$AAa?$AAg?$AAe?$AAL?$AAi?$AAs?$AAt?$AA?4?$AAi?$AAn?$AAi?$AA?$AA@ 004b1340     hd2.obj
 0002:00008368       ??_C@_0BO@LEOK@?1en?1Language?1LanguageList?4ini?$AA@ 004b1368     hd2.obj
 0002:0000838c       ??_C@_1CK@HCAE@?$AAg?$AA_?$AAh?$AAU?$AAp?$AAd?$AAa?$AAt?$AAe?$AAH?$AAa?$AAn?$AAd?$AAl?$AAe?$AA?5?$AAE?$AAN?$AAD?$AA?4@ 004b138c     hd2.obj
 0002:000083c0       ??_C@_1CA@LFKF@?$AAD?$AAo?$AAw?$AAn?$AAl?$AAo?$AAa?$AAd?$AAs?$AA?2?$AAt?$AAe?$AAm?$AAp?$AA?2?$AA?$AA@ 004b13c0     hd2.obj
 0002:000083e8       ??_C@_1CG@KIJI@?$AA?1?$AAe?$AAn?$AA?1?$AAH?$AAi?$AAd?$AAe?$AAD?$AAr?$AAa?$AAg?$AAo?$AAn?$AA?4?$AAr?$AAa?$AAr?$AA?$AA@ 004b13e8     hd2.obj
 0002:00008418       ??_C@_1BO@BMAJ@?$AAh?$AAi?$AAd?$AAe?$AAd?$AAr?$AAa?$AAg?$AAo?$AAn?$AA?4?$AAr?$AAa?$AAr?$AA?$AA@ 004b1418     hd2.obj
 0002:0000843c       ??_C@_1CO@OACO@?$AAg?$AA_?$AAh?$AAU?$AAp?$AAd?$AAa?$AAt?$AAe?$AAH?$AAa?$AAn?$AAd?$AAl?$AAe?$AA?5?$AAB?$AAE?$AAG?$AAI@ 004b143c     hd2.obj
 0002:00008474       ??_C@_15NMFI@?$AA?9?$AAN?$AA?$AA@ 004b1474     hd2.obj
 0002:0000847c       ??_C@_15JLLM@?$AA?9?$AAU?$AA?$AA@ 004b147c     hd2.obj
 0002:00008484       ??_C@_1BM@MCFC@?$AA?2?$AAH?$AAD?$AAU?$AAp?$AAd?$AAa?$AAt?$AAe?$AA?4?$AAe?$AAx?$AAe?$AA?$AA@ 004b1484     hd2.obj
 0002:000084a8       ??_C@_1DO@OEK@?$AA?2?$AAD?$AAo?$AAw?$AAn?$AAl?$AAo?$AAa?$AAd?$AAs?$AA?2?$AAt?$AAe?$AAm?$AAp?$AA?2?$AAH?$AAi?$AAd?$AAe@ 004b14a8     hd2.obj
 0002:000084f4       ??_C@_1DE@CKHI@?$AA?2?$AAD?$AAo?$AAw?$AAn?$AAl?$AAo?$AAa?$AAd?$AAs?$AA?2?$AAH?$AAi?$AAd?$AAe?$AAD?$AAr?$AAa?$AAg?$AAo@ 004b14f4     hd2.obj
 0002:00008534       ??_C@_1BK@KDMN@?$AAH?$AAD?$AAU?$AAP?$AAD?$AAA?$AAT?$AAE?$AA?4?$AAE?$AAX?$AAE?$AA?$AA@ 004b1534     hd2.obj
 0002:00008554       ??_C@_1CC@PKMF@?$AA?2?$AAD?$AAo?$AAw?$AAn?$AAl?$AAo?$AAa?$AAd?$AAs?$AA?2?$AAT?$AAe?$AAm?$AAp?$AA?2?$AA?$AA@ 004b1554     hd2.obj
 0002:0000857c       ??_C@_0BL@PKGO@GetLayeredWindowAttributes?$AA@ 004b157c     hd2.obj
 0002:0000859c       ??_C@_1BG@POIF@?$AAu?$AAs?$AAe?$AAr?$AA3?$AA2?$AA?4?$AAd?$AAl?$AAl?$AA?$AA@ 004b159c     hd2.obj
 0002:000085b8       ??_C@_1DO@PGJA@?$AAI?$AAD?$AAS?$AA_?$AAM?$AAE?$AAS?$AAS?$AAA?$AAG?$AAE?$AAB?$AAO?$AAX?$AA_?$AAR?$AAE?$AAG?$AAB?$AAK@ 004b15b8     hd2.obj
 0002:00008604       ??_C@_1IE@NNFC@?$AAR?$AAe?$AAg?$AAi?$AAs?$AAt?$AAe?$AAr?$AA?5?$AAC?$AAu?$AAs?$AAt?$AAo?$AAm?$AA?5?$AAB?$AAa?$AAc?$AAk@ 004b1604     hd2.obj
 0002:000086a4       ??_C@_1BE@LBML@?$AAR?$AAE?$AAG?$AAH?$AAO?$AAT?$AAK?$AAE?$AAY?$AA?$AA@ 004b16a4     hd2.obj
 0002:000086bc       ??_C@_1DK@IECI@?$AAI?$AAD?$AAS?$AA_?$AAC?$AAH?$AAA?$AAN?$AAG?$AAE?$AAI?$AAC?$AAO?$AAN?$AA_?$AAP?$AAL?$AAE?$AAA?$AAS@ 004b16bc     hd2.obj
 0002:00008704       ??_C@_1DO@MPAJ@?$AAP?$AAl?$AAe?$AAa?$AAs?$AAe?$AA?5?$AAS?$AAe?$AAl?$AAe?$AAc?$AAt?$AAe?$AA?5?$AAI?$AAc?$AAo?$AAn?$AA?5@ 004b1704     hd2.obj
 0002:00008750       ??_C@_1FO@MHMG@?$AAI?$AAc?$AAo?$AAn?$AA?5?$AAF?$AAi?$AAl?$AAe?$AAs?$AA?5?$AA?$CI?$AA?$CK?$AA?4?$AAI?$AAC?$AAO?$AA?$CJ?$AA?$AA?$AA?$CK@ 004b1750     hd2.obj
 0002:000087c0       ??_C@_1DC@OAMJ@?$AAI?$AAD?$AAS?$AA_?$AAC?$AAH?$AAA?$AAN?$AAG?$AAE?$AAI?$AAC?$AAO?$AAN?$AA_?$AAF?$AAI?$AAL?$AAE?$AAT@ 004b17c0     hd2.obj
 0002:000087fc       ??_C@_1DC@FOKI@?$AAI?$AAD?$AAS?$AA_?$AAC?$AAH?$AAA?$AAN?$AAG?$AAE?$AAI?$AAC?$AAO?$AAN?$AA_?$AAF?$AAI?$AAL?$AAE?$AAT@ 004b17fc     hd2.obj
 0002:00008838       ??_C@_1BM@MLFN@?$AAA?$AAl?$AAl?$AAF?$AAi?$AAl?$AAe?$AA?5?$AA?$CI?$AA?$CK?$AA?4?$AA?$CK?$AA?$CJ?$AA?$AA@ 004b1838     hd2.obj
 0002:0000885c       ??_C@_1DC@MLO@?$AAI?$AAD?$AAS?$AA_?$AAC?$AAH?$AAA?$AAN?$AAG?$AAE?$AAI?$AAC?$AAO?$AAN?$AA_?$AAF?$AAI?$AAL?$AAE?$AAT@ 004b185c     hd2.obj
 0002:00008898       ??_C@_1M@LLHI@?$AA?$CK?$AA?4?$AAI?$AAC?$AAO?$AA?$AA@ 004b1898     hd2.obj
 0002:000088a8       ??_C@_1DC@PKIF@?$AAI?$AAD?$AAS?$AA_?$AAC?$AAH?$AAA?$AAN?$AAG?$AAE?$AAI?$AAC?$AAO?$AAN?$AA_?$AAF?$AAI?$AAL?$AAE?$AAT@ 004b18a8     hd2.obj
 0002:000088e4       ??_C@_1CG@DAAA@?$AAI?$AAc?$AAo?$AAn?$AA?5?$AAF?$AAi?$AAl?$AAe?$AAs?$AA?5?$AA?$CI?$AA?$CK?$AA?4?$AAI?$AAC?$AAO?$AA?$CJ?$AA?$AA@ 004b18e4     hd2.obj
 0002:00008914       ??_C@_1M@GELO@?$AA?2?$AAI?$AAc?$AAo?$AAn?$AA?$AA@ 004b1914     hd2.obj
 0002:00008924       ??_C@_19GLOB@?$AA?4?$AAI?$AAC?$AAO?$AA?$AA@ 004b1924     hd2.obj
 0002:00008930       ??_C@_1DE@NHBM@?$AAI?$AAD?$AAS?$AA_?$AAM?$AAE?$AAS?$AAS?$AAA?$AAG?$AAE?$AAB?$AAO?$AAX?$AA_?$AAE?$AAX?$AAP?$AAL?$AAC@ 004b1930     hd2.obj
 0002:00008970       ??_C@_1EE@NIFG@?$AAE?$AAx?$AAp?$AAl?$AAo?$AAr?$AAe?$AAr?$AA?4?$AAe?$AAx?$AAe?$AA?5?$AAC?$AAa?$AAn?$AA?5?$AAN?$AAO?$AAT@ 004b1970     hd2.obj
 0002:000089c4       ??_C@_1CK@HEHN@?$AAI?$AAD?$AAS?$AA_?$AAT?$AAI?$AAT?$AAL?$AAE?$AA_?$AAW?$AAI?$AAN?$AAD?$AAO?$AAW?$AAH?$AAE?$AAL?$AAP@ 004b19c4     hd2.obj
 0002:000089f8       ??_C@_1BK@FBJO@?$AAW?$AAi?$AAn?$AAd?$AAo?$AAw?$AAs?$AA?5?$AAH?$AAe?$AAl?$AAp?$AA?$AA@ 004b19f8     hd2.obj
 0002:00008a18       ??_C@_1CM@IOJB@?$AAI?$AAD?$AAS?$AA_?$AAT?$AAI?$AAT?$AAL?$AAE?$AA_?$AAA?$AAD?$AAO?$AAB?$AAE?$AAR?$AAE?$AAA?$AAD?$AAE@ 004b1a18     hd2.obj
 0002:00008a4c       ??_C@_1BK@DCJD@?$AAA?$AAd?$AAo?$AAb?$AAe?$AA?5?$AAR?$AAe?$AAa?$AAd?$AAe?$AAr?$AA?$AA@ 004b1a4c     hd2.obj
 0002:00008a6c       ??_C@_1CI@BIAA@?$AAI?$AAD?$AAS?$AA_?$AAT?$AAI?$AAT?$AAL?$AAE?$AA_?$AAU?$AAL?$AAT?$AAR?$AAA?$AAE?$AAD?$AAI?$AAT?$AA?$AA@ 004b1a6c     hd2.obj
 0002:00008a9c       ??_C@_1CK@FAPN@?$AAU?$AAl?$AAt?$AAr?$AAa?$AAE?$AAd?$AAi?$AAt?$AA?9?$AA3?$AA2?$AA?5?$AA?9?$AA?5?$AA?$FL?$HP?$BG?$IP?$JB?$AA1?$AA?$FN@ 004b1a9c     hd2.obj
 0002:00008ad0       ??_C@_1BM@BIAP@?$AAI?$AAD?$AAS?$AA_?$AAT?$AAI?$AAT?$AAL?$AAE?$AA_?$AAC?$AAA?$AAL?$AA?$AA@ 004b1ad0     hd2.obj
 0002:00008af4       ??_C@_17LLN@?$IL?$KB?$HL?$JHVh?$AA?$AA@ 004b1af4     hd2.obj
 0002:00008b00       ??_C@_1CI@JFFM@?$AAI?$AAD?$AAS?$AA_?$AAT?$AAI?$AAT?$AAL?$AAE?$AA_?$AAP?$AAH?$AAO?$AAT?$AAO?$AAS?$AAH?$AAO?$AAP?$AA?$AA@ 004b1b00     hd2.obj
 0002:00008b30       ??_C@_1CA@KALL@?$AAA?$AAd?$AAo?$AAb?$AAe?$AA?5?$AAP?$AAh?$AAo?$AAt?$AAo?$AAs?$AAh?$AAo?$AAp?$AA?$AA@ 004b1b30     hd2.obj
 0002:00008b58       ??_C@_1CE@KIPO@?$AAI?$AAD?$AAS?$AA_?$AAT?$AAI?$AAT?$AAL?$AAE?$AA_?$AAO?$AAU?$AAT?$AAL?$AAO?$AAO?$AAK?$AA?$AA@ 004b1b58     hd2.obj
 0002:00008b84       ??_C@_1DA@GKID@e6N?v?$HL?$LB?$AA?5?$AA?9?$AA?5?$AAM?$AAi?$AAc?$AAr?$AAo?$AAs?$AAo?$AAf?$AAt?$AA?5?$AAO?$AAu?$AAt?$AAl@ 004b1b84     hd2.obj
 0002:00008bc0       ??_C@_1BK@DGBI@?$AAI?$AAD?$AAS?$AA_?$AAT?$AAI?$AAT?$AAL?$AAE?$AA_?$AAD?$AAW?$AA?$AA@ 004b1bc0     hd2.obj
 0002:00008be0       ??_C@_1GM@NFKC@?$AAM?$AAa?$AAc?$AAr?$AAo?$AAm?$AAe?$AAd?$AAi?$AAa?$AA?5?$AAD?$AAr?$AAe?$AAa?$AAm?$AAw?$AAe?$AAa?$AAv@ 004b1be0     hd2.obj
 0002:00008c64       ??_C@_1BO@NBOF@?$AAI?$AAD?$AAS?$AA_?$AAT?$AAI?$AAT?$AAL?$AAE?$AA_?$AAW?$AAO?$AAR?$AAD?$AA?$AA@ 004b1c64     hd2.obj
 0002:00008c88       ??_C@_1CM@LCKI@e?$IHhc?$AA?5?$AA1?$AA?5?$AA?9?$AA?5?$AAM?$AAi?$AAc?$AAr?$AAo?$AAs?$AAo?$AAf?$AAt?$AA?5?$AAW?$AAo?$AAr@ 004b1c88     hd2.obj
 0002:00008cbc       ??_C@_1CA@PNLA@?$AAI?$AAD?$AAS?$AA_?$AAT?$AAI?$AAT?$AAL?$AAE?$AA_?$AAE?$AAX?$AAC?$AAE?$AAL?$AA?$AA@ 004b1cbc     hd2.obj
 0002:00008ce4       ??_C@_1DA@LIC@?$AAM?$AAi?$AAc?$AAr?$AAo?$AAs?$AAo?$AAf?$AAt?$AA?5?$AAE?$AAx?$AAc?$AAe?$AAl?$AA?5?$AA?9?$AA?5?$AAB?$AAo@ 004b1ce4     hd2.obj
 0002:00008d20       ??_C@_1CE@DOAD@?$AAI?$AAD?$AAS?$AA_?$AAT?$AAI?$AAT?$AAL?$AAE?$AA_?$AAN?$AAO?$AAT?$AAE?$AAP?$AAA?$AAD?$AA?$AA@ 004b1d20     hd2.obj
 0002:00008d4c       ??_C@_1BE@EDFH@e?$OAh?$AH?$JI?$JI?$AA?5?$AA?9?$AA?5?$IL?$LAN?$ILg?0?$AA?$AA@ 004b1d4c     hd2.obj
 0002:00008d64       ??_C@_1CK@OMPN@?$AAI?$AAD?$AAS?$AA_?$AAT?$AAI?$AAT?$AAL?$AAE?$AA_?$AAM?$AAY?$AAC?$AAO?$AAM?$AAP?$AAU?$AAT?$AAE?$AAR@ 004b1d64     hd2.obj
 0002:00008d98       ??_C@_1BI@DEDG@?$AAM?$AAy?$AA?5?$AAC?$AAo?$AAm?$AAp?$AAu?$AAt?$AAe?$AAr?$AA?$AA@ 004b1d98     hd2.obj
 0002:00008db4       ??_C@_1CK@CBEG@?$AAI?$AAD?$AAS?$AA_?$AAT?$AAI?$AAT?$AAL?$AAE?$AA_?$AAM?$AAA?$AAC?$AAR?$AAO?$AAF?$AAL?$AAA?$AAS?$AAH@ 004b1db4     hd2.obj
 0002:00008de8       ??_C@_1GA@FGOO@?$AAM?$AAa?$AAc?$AAr?$AAo?$AAm?$AAe?$AAd?$AAi?$AAa?$AA?5?$AAF?$AAl?$AAa?$AAs?$AAh?$AA?5?$AAM?$AAX?$AA?5@ 004b1de8     hd2.obj
 0002:00008e5c       ??_C@_1CM@FHAF@?$AAI?$AAD?$AAS?$AA_?$AAA?$AAU?$AAT?$AAO?$AAH?$AAI?$AAD?$AAE?$AAT?$AAY?$AAP?$AAE?$AA_?$AAT?$AAR?$AAA@ 004b1e5c     hd2.obj
 0002:00008e90       ??_C@_19PFGJ@?$AAT?$AAr?$AAa?$AAy?$AA?$AA@ 004b1e90     hd2.obj
 0002:00008e9c       ??_C@_1DA@NJLK@?$AAI?$AAD?$AAS?$AA_?$AAA?$AAU?$AAT?$AAO?$AAH?$AAI?$AAD?$AAE?$AAT?$AAY?$AAP?$AAE?$AA_?$AAW?$AAI?$AAN@ 004b1e9c     hd2.obj
 0002:00008ed8       ??_C@_1O@KHD@?$AAW?$AAi?$AAn?$AAd?$AAo?$AAw?$AA?$AA@ 004b1ed8     hd2.obj
 0002:00008ee8       ??_C@_15KLDP@?$AA?$CF?$AAd?$AA?$AA@ 004b1ee8     hd2.obj
 0002:00008ef0       ??_C@_1DG@GNLI@?$AAI?$AAD?$AAS?$AA_?$AAP?$AAR?$AAO?$AAP?$AAE?$AAR?$AAT?$AAY?$AAL?$AAI?$AAS?$AAT?$AA_?$AAW?$AAN?$AAD@ 004b1ef0     hd2.obj
 0002:00008f30       ??_C@_1BM@NMAI@?$AAW?$AAi?$AAn?$AAd?$AAo?$AAw?$AA?5?$AAH?$AAa?$AAn?$AAd?$AAl?$AAe?$AA?$AA@ 004b1f30     hd2.obj
 0002:00008f54       ??_C@_1DE@LAE@?$AAI?$AAD?$AAS?$AA_?$AAP?$AAR?$AAO?$AAP?$AAE?$AAR?$AAT?$AAY?$AAL?$AAI?$AAS?$AAT?$AA_?$AAW?$AAN?$AAD@ 004b1f54     hd2.obj
 0002:00008f94       ??_C@_1CG@FDPG@?$AAI?$AAD?$AAS?$AA_?$AAP?$AAR?$AAO?$AAP?$AAE?$AAR?$AAT?$AAY?$AA_?$AAT?$AAI?$AAT?$AAL?$AAE?$AA?$AA@ 004b1f94     hd2.obj
 0002:00008fc4       ??_C@_1BC@HACJ@?$AAP?$AAr?$AAo?$AAp?$AAe?$AAr?$AAt?$AAy?$AA?$AA@ 004b1fc4     hd2.obj
 0002:00008fdc       ??_C@_1DA@DOOC@?$AAI?$AAD?$AAS?$AA_?$AAP?$AAR?$AAO?$AAP?$AAE?$AAR?$AAT?$AAY?$AAO?$AAT?$AAH?$AAE?$AAR?$AA_?$AAT?$AAI@ 004b1fdc     hd2.obj
 0002:00009018       ??_C@_1CE@OLJM@?$AAI?$AAD?$AAS?$AA_?$AAG?$AAE?$AAN?$AAE?$AAR?$AAA?$AAL?$AA_?$AAT?$AAI?$AAT?$AAL?$AAE?$AA?$AA@ 004b2018     hd2.obj
 0002:00009044       ??_C@_1BA@DPLO@?$AAG?$AAe?$AAn?$AAe?$AAr?$AAa?$AAl?$AA?$AA@ 004b2044     hd2.obj
 0002:00009058       ??_C@_19IKCD@?$AA?$CF?$AA0?$AA8?$AAX?$AA?$AA@ 004b2058     hd2.obj
 0002:00009064       ??_C@_1CG@JFKN@?$AAI?$AAD?$AAS?$AA_?$AAA?$AAU?$AAT?$AAO?$AAR?$AAE?$AAS?$AAE?$AAR?$AAV?$AAE?$AA_?$AAN?$AAO?$AA?$AA@ 004b2064     hd2.obj
 0002:00009094       ??_C@_15CBAK@?$AAN?$AAo?$AA?$AA@ 004b2094     hd2.obj
 0002:0000909c       ??_C@_1CI@HKJB@?$AAI?$AAD?$AAS?$AA_?$AAA?$AAU?$AAT?$AAO?$AAR?$AAE?$AAS?$AAE?$AAR?$AAV?$AAE?$AA_?$AAY?$AAE?$AAS?$AA?$AA@ 004b209c     hd2.obj
 0002:000090cc       ??_C@_17CLGK@?$AAY?$AAe?$AAs?$AA?$AA@ 004b20cc     hd2.obj
 0002:000090d8       ??_C@_1BK@HIFC@?$AA?2?$AAW?$AAn?$AAd?$AAI?$AAn?$AAf?$AAo?$AA?4?$AAw?$AAi?$AAf?$AA?$AA@ 004b20d8     hd2.obj
 0002:000090f8       ??_C@_1BK@EKHD@?$AAP?$AAr?$AAo?$AAc?$AAe?$AAs?$AAs?$AA?5?$AAN?$AAa?$AAm?$AAe?$AA?$AA@ 004b20f8     hd2.obj
 0002:00009118       ??_C@_1DA@LBBJ@?$AAI?$AAD?$AAS?$AA_?$AAP?$AAR?$AAO?$AAC?$AAE?$AAS?$AAS?$AAL?$AAI?$AAS?$AAT?$AAV?$AAI?$AAE?$AAW?$AA_@ 004b2118     hd2.obj
 0002:00009154       ??_C@_17CJJJ@?$AAP?$AAI?$AAD?$AA?$AA@ 004b2154     hd2.obj
 0002:00009160       ??_C@_1DM@GCOL@?$AAI?$AAD?$AAS?$AA_?$AAP?$AAR?$AAO?$AAC?$AAE?$AAS?$AAS?$AAL?$AAI?$AAS?$AAT?$AAV?$AAI?$AAE?$AAW?$AA_@ 004b2160     hd2.obj
 0002:000091a8       ??_C@_1BG@OMJK@?$AAI?$AAm?$AAa?$AAg?$AAe?$AA?5?$AAN?$AAa?$AAm?$AAe?$AA?$AA@ 004b21a8     hd2.obj
 0002:000091c4       ??_C@_1CM@ECOI@?$AAI?$AAD?$AAS?$AA_?$AAM?$AAE?$AAS?$AAS?$AAA?$AAG?$AAE?$AAB?$AAO?$AAX?$AA_?$AAI?$AAF?$AAE?$AAX?$AAI@ 004b21c4     hd2.obj
 0002:000091f8       ??_C@_1M@OBDM@?$AAE?$AAx?$AAi?$AAt?$AA?$DP?$AA?$AA@ 004b21f8     hd2.obj
 0002:00009208       ??_C@_19NPMC@?$AAt?$AAe?$AAm?$AAp?$AA?$AA@ 004b2208     hd2.obj
 0002:00009214       ??_C@_1CE@GJMM@?$AAt?$AAe?$AAm?$AAp?$AA?2?$AAH?$AAD?$AAU?$AAp?$AAd?$AAa?$AAt?$AAe?$AA?4?$AAe?$AAx?$AAe?$AA?$AA@ 004b2214     hd2.obj
 0002:00009240       ??_C@_1BO@GFGE@?$AAM?$AAS?$AAT?$AAa?$AAs?$AAk?$AAS?$AAw?$AAW?$AAC?$AAl?$AAa?$AAs?$AAs?$AA?$AA@ 004b2240     hd2.obj
 0002:00009264       ??_C@_1BM@CPLN@?$AAR?$AAe?$AAB?$AAa?$AAr?$AAW?$AAi?$AAn?$AAd?$AAo?$AAw?$AA3?$AA2?$AA?$AA@ 004b2264     hd2.obj
 0002:00009288       ??_C@_1CK@GLHI@?$AAI?$AAD?$AAC?$AA_?$AAT?$AAA?$AAB?$AAN?$AAA?$AAM?$AAE?$AA_?$AAA?$AAU?$AAT?$AAO?$AAH?$AAI?$AAD?$AAE@ 004b2288     hd2.obj
 0002:000092bc       ??_C@_1BE@KKKH@?$AAA?$AAu?$AAt?$AAo?$AA?5?$AAH?$AAi?$AAd?$AAe?$AA?$AA@ 004b22bc     hd2.obj
 0002:000092d4       ??_C@_1CG@DANH@?$AAI?$AAD?$AAC?$AA_?$AAT?$AAA?$AAB?$AAN?$AAA?$AAM?$AAE?$AA_?$AAH?$AAI?$AAD?$AAE?$AAI?$AAP?$AA?$AA@ 004b22d4     hd2.obj
 0002:00009304       ??_C@_1BA@IHKN@?$AAH?$AAi?$AAd?$AAe?$AA?5?$AAI?$AAP?$AA?$AA@ 004b2304     hd2.obj
 0002:00009318       ??_C@_1DC@BFGG@?$AAI?$AAD?$AAC?$AA_?$AAT?$AAA?$AAB?$AAN?$AAA?$AAM?$AAE?$AA_?$AAC?$AAL?$AAE?$AAA?$AAN?$AAP?$AAR?$AAI@ 004b2318     hd2.obj
 0002:00009354       ??_C@_1BM@OAHN@?$AAC?$AAl?$AAe?$AAa?$AAn?$AA?5?$AAP?$AAr?$AAi?$AAv?$AAa?$AAc?$AAy?$AA?$AA@ 004b2354     hd2.obj
 0002:00009378       ??_C@_1CI@CJHM@?$AAI?$AAD?$AAC?$AA_?$AAT?$AAA?$AAB?$AAN?$AAA?$AAM?$AAE?$AA_?$AAW?$AAE?$AAB?$AAP?$AAA?$AAG?$AAE?$AA?$AA@ 004b2378     hd2.obj
 0002:000093a8       ??_C@_1BC@GIKF@?$AAW?$AAe?$AAb?$AA?5?$AAP?$AAa?$AAg?$AAe?$AA?$AA@ 004b23a8     hd2.obj
 0002:000093c0       ??_C@_1CG@BLKJ@?$AAI?$AAD?$AAC?$AA_?$AAT?$AAA?$AAB?$AAN?$AAA?$AAM?$AAE?$AA_?$AAB?$AAK?$AAL?$AAI?$AAS?$AAT?$AA?$AA@ 004b23c0     hd2.obj
 0002:000093f0       ??_C@_1DE@JCHK@?$AAB?$AAa?$AAc?$AAk?$AAg?$AAr?$AAo?$AAu?$AAn?$AAd?$AAe?$AAd?$AA?5?$AAP?$AAr?$AAo?$AAg?$AAr?$AAa?$AAm@ 004b23f0     hd2.obj
 0002:00009430       ??_C@_1CK@PJHO@?$AAI?$AAD?$AAC?$AA_?$AAT?$AAA?$AAB?$AAN?$AAA?$AAM?$AAE?$AA_?$AAT?$AAR?$AAA?$AAY?$AAI?$AAC?$AAO?$AAN@ 004b2430     hd2.obj
 0002:00009464       ??_C@_1BO@PHDC@?$AAT?$AAr?$AAa?$AAy?$AA?5?$AAI?$AAc?$AAo?$AAn?$AA?5?$AAL?$AAi?$AAs?$AAt?$AA?$AA@ 004b2464     hd2.obj
 0002:00009488       ??_C@_1CI@JEHH@?$AAI?$AAD?$AAC?$AA_?$AAT?$AAA?$AAB?$AAN?$AAA?$AAM?$AAE?$AA_?$AAW?$AAN?$AAD?$AAL?$AAI?$AAS?$AAT?$AA?$AA@ 004b2488     hd2.obj
 0002:000094b8       ??_C@_1BI@EDJD@?$AAW?$AAi?$AAn?$AAd?$AAo?$AAw?$AA?5?$AAL?$AAi?$AAs?$AAt?$AA?$AA@ 004b24b8     hd2.obj
 0002:000094d4       ??_C@_1CA@OIHL@?$AAS?$AAy?$AAs?$AAT?$AAa?$AAb?$AAC?$AAo?$AAn?$AAt?$AAr?$AAo?$AAl?$AA3?$AA2?$AA?$AA@ 004b24d4     hd2.obj
 0002:000094fc       ??_C@_19LKNI@?$AAT?$AAA?$AAB?$AA2?$AA?$AA@ 004b24fc     hd2.obj
 0002:00009508       ??_C@_1CG@PKJO@?$AAI?$AAD?$AAC?$AA_?$AAT?$AAA?$AAB?$AAN?$AAA?$AAM?$AAE?$AA_?$AAH?$AAi?$AAd?$AAe?$AAI?$AAP?$AA?$AA@ 004b2508     hd2.obj
 0002:00009538       ??_C@_1BI@JMOI@?$AAW?$AAe?$AAb?$AA?5?$AAC?$AAo?$AAn?$AAt?$AAe?$AAn?$AAt?$AA?$AA@ 004b2538     hd2.obj
 0002:00009554       ??_C@_1O@GCMM@?$AAS?$AAT?$AAA?$AAT?$AAI?$AAC?$AA?$AA@ 004b2554     hd2.obj
 0002:00009564       ??_C@_1CA@JEPL@?$AAT?$AAH?$AAI?$AAS?$AA?5?$AAI?$AAS?$AA?5?$AAA?$AA?5?$AAT?$AAE?$AAS?$AAT?$AA?4?$AA?$AA@ 004b2564     hd2.obj
 0002:0000958c       ??_C@_1FM@EDAD@?$AAh?$AAt?$AAt?$AAp?$AA?3?$AA?1?$AA?1?$AAw?$AAw?$AAw?$AA?4?$AAh?$AAi?$AAd?$AAe?$AAd?$AAr?$AAa?$AAg?$AAo@ 004b258c     hd2.obj
 0002:000095fc       ??_C@_1BO@OGOO@?$AAI?$AAD?$AAS?$AA_?$AAT?$AAI?$AAP?$AA_?$AAS?$AAW?$AAI?$AAT?$AAC?$AAH?$AA?$AA@ 004b25fc     hd2.obj
 0002:00009620       ??_C@_1DM@JMKJ@?$AAS?$AAw?$AAi?$AAt?$AAc?$AAh?$AA?5?$AAW?$AAh?$AAa?$AAt?$AA?5?$AAW?$AAi?$AAn?$AAd?$AAo?$AAw?$AA?5?$AAW@ 004b2620     hd2.obj
 0002:00009668       ??_C@_1GG@JMGJ@?$AAC?$AAl?$AAi?$AAc?$AAk?$AA?5?$AAm?$AAo?$AAu?$AAs?$AAe?$AA?5?$AAr?$AAi?$AAg?$AAh?$AAt?$AA?5?$AAb?$AAu@ 004b2668     hd2.obj
 0002:000096e4       ??_C@_1CA@EMHA@?$JG?$JA?$IO?$KLN?$BD?$FL?$LG?$FO?$HPTJ?$IATv?$NP?$PP?$AM?$IL?$KJO?$BJO4f?t_?3?$PP?$AB?$AA?$AA@ 004b26e4     hd2.obj
 0002:0000970c       ??_C@_1FA@CJEH@?$AAh?$AAt?$AAt?$AAp?$AA?3?$AA?1?$AA?1?$AAw?$AAw?$AAw?$AA?4?$AAh?$AAi?$AAd?$AAe?$AAd?$AAr?$AAa?$AAg?$AAo@ 004b270c     hd2.obj
 0002:0000976c       ??_C@_1DC@CLNF@?$AAI?$AAn?$AAt?$AAe?$AAr?$AAn?$AAe?$AAt?$AA?5?$AAE?$AAx?$AAp?$AAl?$AAo?$AAr?$AAe?$AAr?$AA_?$AAS?$AAe@ 004b276c     hd2.obj
 0002:000097a8       ??_C@_1CK@GHND@?$AAS?$AAh?$AAe?$AAl?$AAl?$AA?5?$AAD?$AAo?$AAc?$AAO?$AAb?$AAj?$AAe?$AAc?$AAt?$AA?5?$AAV?$AAi?$AAe?$AAw@ 004b27a8     hd2.obj
 0002:000097dc       ??_C@_1CA@POPC@?$AAS?$AAh?$AAe?$AAl?$AAl?$AA?5?$AAE?$AAm?$AAb?$AAe?$AAd?$AAd?$AAi?$AAn?$AAg?$AA?$AA@ 004b27dc     hd2.obj
 0002:00009804       ??_C@_1DG@LJKD@?$AAI?$AAD?$AAS?$AA_?$AAT?$AAR?$AAA?$AAY?$AAL?$AAI?$AAS?$AAT?$AA_?$AAP?$AAL?$AAE?$AAA?$AAS?$AAE?$AAS@ 004b2804     hd2.obj
 0002:00009844       ??_C@_1BM@LLLF@?$AAP?$AAL?$AAE?$AAA?$AAS?$AAE?$AAS?$AAE?$AAL?$AAI?$AAT?$AAE?$AAM?$AA?$AA@ 004b2844     hd2.obj
 0002:00009868       ??_C@_1DM@CLAJ@?$AAI?$AAD?$AAS?$AA_?$AAH?$AAI?$AAD?$AAE?$AAP?$AAR?$AAO?$AAC?$AAE?$AAS?$AAS?$AA_?$AAP?$AAL?$AAE?$AAA@ 004b2868     hd2.obj
 0002:000098b0       ??_C@_1CI@OLJJ@?$AAI?$AAD?$AAS?$AA_?$AAL?$AAI?$AAS?$AAT?$AAV?$AAI?$AAE?$AAW?$AAA?$AAH?$AA_?$AAT?$AAY?$AAP?$AAE?$AA?$AA@ 004b28b0     hd2.obj
 0002:000098e0       ??_C@_19KJIP@?$AAT?$AAy?$AAp?$AAe?$AA?$AA@ 004b28e0     hd2.obj
 0002:000098ec       ??_C@_1DG@CCCC@?$AAI?$AAD?$AAS?$AA_?$AAL?$AAI?$AAS?$AAT?$AAV?$AAI?$AAE?$AAW?$AAA?$AAH?$AA_?$AAP?$AAR?$AAO?$AAC?$AAE@ 004b28ec     hd2.obj
 0002:0000992c       ??_C@_1CE@PGPJ@?$AAI?$AAD?$AAS?$AA_?$AAL?$AAI?$AAS?$AAT?$AAV?$AAI?$AAE?$AAW?$AAA?$AAH?$AA_?$AAI?$AAD?$AA?$AA@ 004b292c     hd2.obj
 0002:00009958       ??_C@_15GFKL@?$AAI?$AAD?$AA?$AA@ 004b2958     hd2.obj
 0002:00009960       __real@4@40008000000000000000 004b2960     hd2.obj
 0002:00009964       ??_C@_1O@MDEH@?$AAs?$AAt?$AAa?$AAt?$AAi?$AAc?$AA?$AA@ 004b2964     hd2.obj
 0002:00009974       ??_C@_1CE@KABJ@?$AAt?$AAt?$AAt?$AAt?$AAt?$AAt?$AAt?$AAt?$AAt?$AAt?$AAt?$AAt?$AAt?$AAt?$AAt?$AAt?$AAt?$AA?$AA@ 004b2974     hd2.obj
 0002:000099a0       ??_C@_1CG@LDD@?$AAm?$AAs?$AAc?$AAt?$AAl?$AAs?$AA_?$AAs?$AAt?$AAa?$AAt?$AAu?$AAs?$AAb?$AAa?$AAr?$AA3?$AA2?$AA?$AA@ 004b29a0     hd2.obj
 0002:000099d0       ??_C@_1CM@BNLG@?$AAI?$AAD?$AAS?$AA_?$AAS?$AAT?$AAA?$AAT?$AAU?$AAS?$AAB?$AAA?$AAR?$AA_?$AAW?$AAE?$AAL?$AAC?$AAO?$AAM@ 004b29d0     hd2.obj
 0002:00009a04       ??_C@_1DG@PGCP@?$AAW?$AAe?$AAl?$AAc?$AAo?$AAm?$AAe?$AA?5?$AAt?$AAo?$AA?5?$AAu?$AAs?$AAe?$AA?5?$AAH?$AAi?$AAd?$AAe?$AAD@ 004b2a04     hd2.obj
 0002:00009a44       ??_C@_1BO@IPPJ@?$AA?2?$AAh?$AAd?$AA_?$AAs?$AAy?$AAs?$AAl?$AAo?$AAg?$AA?4?$AAa?$AAr?$AAf?$AA?$AA@ 004b2a44     hd2.obj
 0002:00009a68       ??_C@_01A@?$AA?$AA@        004b2a68     hd2.obj
 0002:00009a6c       ??_C@_0BI@EIMC@?1en?1statustxt?1wndads?4db?$AA@ 004b2a6c     hd2.obj
 0002:00009a88       ??_C@_0BL@OHIK@?1en?1statustxt?1webstatus?4db?$AA@ 004b2a88     hd2.obj
 0002:00009aa8       ??_C@_09DLII@wndads?4db?$AA@ 004b2aa8     hd2.obj
 0002:00009ab4       ??_C@_1CC@DABD@?$AAp?$AAr?$AAo?$AAt?$AAe?$AAc?$AAt?$AAo?$AAr?$AAs?$AAe?$AAr?$AAv?$AAi?$AAc?$AAe?$AA?$AA@ 004b2ab4     hd3.obj
 0002:00009adc       ??_C@_1BM@NIGE@?$AAp?$AAr?$AAo?$AAt?$AAe?$AAc?$AAt?$AAo?$AAr?$AA?4?$AAs?$AAy?$AAs?$AA?$AA@ 004b2adc     hd3.obj
 0002:00009b00       ??_C@_1BA@BKLE@?$AAW?$AAA?$AAR?$AAN?$AAI?$AAN?$AAG?$AA?$AA@ 004b2b00     hd3.obj
 0002:00009b14       ??_C@_1CI@BPOM@?$AAD?$AAo?$AA?5?$AAy?$AAo?$AAu?$AA?5?$AAw?$AAa?$AAn?$AAt?$AA?5?$AAt?$AAo?$AA?5?$AAr?$AAu?$AAn?$AA?5?$AA?$AA@ 004b2b14     hd3.obj
 0002:00009b44       ??_C@_1BE@GHKF@?$AAn?$AAt?$AAd?$AAl?$AAl?$AA?4?$AAd?$AAl?$AAl?$AA?$AA@ 004b2b44     hd3.obj
 0002:00009b5c       ??_C@_0BA@GGAB@NtCreateSection?$AA@ 004b2b5c     hd3.obj
 0002:00009b70       ??_C@_1BM@DFKJ@?$AA?2?$AA?2?$AA?4?$AA?2?$AAP?$AAR?$AAO?$AAT?$AAE?$AAC?$AAT?$AAO?$AAR?$AA?$AA@ 004b2b70     hd3.obj
 0002:00009b94       ??_7CHyperLink@@6B@        004b2b94     HyperLink.obj
 0002:00009b98       ??_7UseProxyDlg@@6B@       004b2b98     UseProxyDlg.obj
 0002:00009b9c       ??_C@_1DG@MBBD@?$AAI?$AAD?$AAS?$AA_?$AAH?$AAI?$AAD?$AAE?$AAI?$AAP?$AA_?$AAS?$AAT?$AAA?$AAT?$AAE?$AAS?$AAT?$AAO?$AAP@ 004b2b9c     UseProxyDlg.obj
 0002:00009bdc       ??_C@_1CE@PHDE@?$AAS?$AAt?$AAa?$AAt?$AAe?$AA?3?$AAS?$AAt?$AAo?$AAp?$AA?5?$AAS?$AAe?$AAa?$AAr?$AAc?$AAh?$AA?$AA@ 004b2bdc     UseProxyDlg.obj
 0002:00009c08       ??_C@_1DG@NON@?$AAI?$AAD?$AAS?$AA_?$AAH?$AAI?$AAD?$AAE?$AAI?$AAP?$AA_?$AAS?$AAE?$AAT?$AAP?$AAR?$AAO?$AAX?$AAY?$AAS@ 004b2c08     UseProxyDlg.obj
 0002:00009c48       ??_C@_1DA@GECD@?$AAS?$AAt?$AAa?$AAt?$AAe?$AA?3?$AAS?$AAe?$AAt?$AA?5?$AAP?$AAr?$AAo?$AAx?$AAy?$AA?5?$AAS?$AAu?$AAc?$AAe@ 004b2c48     UseProxyDlg.obj
 0002:00009c84       ??_C@_1CA@FHBK@?$AAI?$AAD?$AAS?$AA_?$AAH?$AAI?$AAD?$AAE?$AAI?$AAP?$AA_?$AAA?$AAR?$AAE?$AAA?$AA?$AA@ 004b2c84     UseProxyDlg.obj
 0002:00009cac       ??_C@_1O@FHMF@?$AA?5?$AAa?$AAr?$AAe?$AAa?$AA?3?$AA?$AA@ 004b2cac     UseProxyDlg.obj
 0002:00009cbc       ??_C@_13ECNF@?$AA?5?$AA?$AA@ 004b2cbc     UseProxyDlg.obj
 0002:00009cc0       ??_C@_17NHPO@?$AA?5?$AA?3?$AA?5?$AA?$AA@ 004b2cc0     UseProxyDlg.obj
 0002:00009ccc       ??_C@_19LHK@?$AAI?$AAP?$AA?3?$AA?5?$AA?$AA@ 004b2ccc     UseProxyDlg.obj
 0002:00009cd8       ??_C@_1O@DIAG@?$AAS?$AAO?$AAC?$AAK?$AAS?$AA5?$AA?$AA@ 004b2cd8     UseProxyDlg.obj
 0002:00009ce8       ??_C@_1O@GKBA@?$AAS?$AAO?$AAC?$AAK?$AAS?$AA4?$AA?$AA@ 004b2ce8     UseProxyDlg.obj
 0002:00009cf8       ??_C@_0BL@DLKE@200?5Connection?5established?$AA@ 004b2cf8     UseProxyDlg.obj
 0002:00009d18       ??_C@_19FJHK@?$AAH?$AAT?$AAT?$AAP?$AA?$AA@ 004b2d18     UseProxyDlg.obj
 0002:00009d24       ??_C@_15EGHP@?$AA?5?$AA?5?$AA?$AA@ 004b2d24     UseProxyDlg.obj
 0002:00009d2c       ??_C@_1DK@HDDH@?$AAI?$AAD?$AAS?$AA_?$AAH?$AAI?$AAD?$AAE?$AAI?$AAP?$AA_?$AAA?$AAL?$AAR?$AAE?$AAA?$AAD?$AAY?$AAF?$AAO@ 004b2d2c     UseProxyDlg.obj
 0002:00009d74       ??_C@_1DC@ONFN@?$AAS?$AAt?$AAa?$AAt?$AAe?$AA?3?$AAA?$AAL?$AAR?$AAE?$AAA?$AAD?$AAY?$AAF?$AAO?$AAU?$AAN?$AAD?$AAP?$AAR@ 004b2d74     UseProxyDlg.obj
 0002:00009db0       ??_C@_1DC@ONLE@?$AAI?$AAD?$AAS?$AA_?$AAH?$AAI?$AAD?$AAE?$AAI?$AAP?$AA_?$AAS?$AAE?$AAA?$AAR?$AAC?$AAH?$AAS?$AAU?$AAC@ 004b2db0     UseProxyDlg.obj
 0002:00009dec       ??_C@_1DO@JDGP@?$AAS?$AAt?$AAa?$AAt?$AAe?$AA?3?$AAI?$AAD?$AAS?$AA_?$AAH?$AAI?$AAD?$AAE?$AAI?$AAP?$AA_?$AAS?$AAE?$AAA@ 004b2dec     UseProxyDlg.obj
 0002:00009e38       ??_C@_1DA@PKL@?$AAI?$AAD?$AAS?$AA_?$AAH?$AAI?$AAD?$AAE?$AAI?$AAP?$AA_?$AAS?$AAE?$AAT?$AAT?$AAI?$AAN?$AAG?$AAP?$AAR@ 004b2e38     UseProxyDlg.obj
 0002:00009e74       ??_C@_1EI@FJIN@?$AAS?$AAt?$AAa?$AAt?$AAe?$AA?3?$AAA?$AAL?$AAR?$AAE?$AAA?$AAD?$AAY?$AAF?$AAO?$AAU?$AAN?$AAD?$AAP?$AAR@ 004b2e74     UseProxyDlg.obj
 0002:00009ecc       ??_C@_13IBOG@?$PP?$BK?$AA?$AA@ 004b2ecc     UseProxyDlg.obj
 0002:00009ed0       ??_C@_1DM@OOCP@?$AAI?$AAD?$AAS?$AA_?$AAH?$AAI?$AAD?$AAE?$AAI?$AAP?$AA_?$AAS?$AAT?$AAA?$AAT?$AAE?$AAT?$AAE?$AAS?$AAT@ 004b2ed0     UseProxyDlg.obj
 0002:00009f18       ??_C@_1CK@HM@?$AAS?$AAt?$AAa?$AAt?$AAe?$AA?3?$AAT?$AAe?$AAs?$AAt?$AAi?$AAn?$AAg?$AA?5?$AAS?$AAe?$AAr?$AAv?$AAe?$AAr@ 004b2f18     UseProxyDlg.obj
 0002:00009f4c       ??_C@_0IB@FNMH@CONNECT?5http?4tencent?4com?3443?5HTT@ 004b2f4c     UseProxyDlg.obj
 0002:00009fe8       ??_C@_0L@DDLD@?$AF?$AD?$AA?$AB?$AA?$AA?$AA?$AA?A?$BL?$AA@ 004b2fe8     UseProxyDlg.obj
 0002:00009ff8       ??_C@_01ML@?$AF?$AA@       004b2ff8     UseProxyDlg.obj
 0002:00009ffc       ??_C@_02OGJH@?$AF?$AB?$AA@ 004b2ffc     UseProxyDlg.obj
 0002:0000a000       ??_C@_04FGNA@?$AN?6?$AN?6?$AA@ 004b3000     UseProxyDlg.obj
 0002:0000a008       ??_C@_0CBC@PIB@?5HTTP?11?41?$AN?6Accept?3?5image?1gif?0?5im@ 004b3008     UseProxyDlg.obj
 0002:0000a284       ??_C@_05OHEE@GET?5?1?$AA@  004b3284     UseProxyDlg.obj
 0002:0000a28c       ??_C@_1M@MDIJ@?$AAD?$AAD?$AAD?$AAD?$AA2?$AA?$AA@ 004b328c     UseProxyDlg.obj
 0002:0000a29c       ??_C@_19MKEG@?$AAD?$AAD?$AAD?$AA2?$AA?$AA@ 004b329c     UseProxyDlg.obj
 0002:0000a2a8       ??_C@_03IHFE@udp?$AA@      004b32a8     UseProxyDlg.obj
 0002:0000a2ac       ??_C@_03LEBH@tcp?$AA@      004b32ac     UseProxyDlg.obj
 0002:0000a2b0       ??_C@_1CO@OFMO@?$AAI?$AAD?$AAS?$AA_?$AAH?$AAI?$AAD?$AAE?$AAI?$AAP?$AA_?$AAR?$AAE?$AAA?$AAD?$AAI?$AAN?$AAG?$AAD?$AAA@ 004b32b0     UseProxyDlg.obj
 0002:0000a2e8       ??_C@_1CE@KCFN@?$AAS?$AAt?$AAa?$AAt?$AAe?$AA?3?$AAR?$AAE?$AAA?$AAD?$AAI?$AAN?$AAG?$AAD?$AAA?$AAT?$AAA?$AA?$AA@ 004b32e8     UseProxyDlg.obj
 0002:0000a314       ??_C@_1DG@JEGA@?$AAI?$AAD?$AAS?$AA_?$AAH?$AAI?$AAD?$AAE?$AAI?$AAP?$AA_?$AAQ?$AAU?$AAE?$AAR?$AAY?$AAF?$AAI?$AAL?$AAE@ 004b3314     UseProxyDlg.obj
 0002:0000a354       ??_C@_1EC@EAGA@?$AAS?$AAt?$AAa?$AAt?$AAe?$AA?3?$AAI?$AAD?$AAS?$AA_?$AAH?$AAI?$AAD?$AAE?$AAI?$AAP?$AA_?$AAQ?$AAU?$AAE@ 004b3354     UseProxyDlg.obj
 0002:0000a3a4       ??_C@_1DG@HOND@?$AAI?$AAD?$AAS?$AA_?$AAH?$AAI?$AAD?$AAE?$AAI?$AAP?$AA_?$AAC?$AAO?$AAN?$AAN?$AAE?$AAC?$AAT?$AAE?$AAD@ 004b33a4     UseProxyDlg.obj
 0002:0000a3e4       ??_C@_1CM@GLBH@?$AAS?$AAt?$AAa?$AAt?$AAe?$AA?3?$AAC?$AAO?$AAN?$AAN?$AAE?$AAC?$AAT?$AAE?$AAD?$AAS?$AAE?$AAR?$AAV?$AAE@ 004b33e4     UseProxyDlg.obj
 0002:0000a418       ??_C@_1BI@BJOH@?$AAh?$AAt?$AAt?$AAp?$AA?9?$AA1?$AA?4?$AAh?$AAt?$AAm?$AAl?$AA?$AA@ 004b3418     UseProxyDlg.obj
 0002:0000a434       ??_C@_1CG@DHJL@?$AA3?$AA0?$AAf?$AAa?$AAs?$AAt?$AAp?$AAr?$AAo?$AAx?$AAy?$AA?9?$AA1?$AA?4?$AAh?$AAt?$AAm?$AAl?$AA?$AA@ 004b3434     UseProxyDlg.obj
 0002:0000a464       ??_C@_1BM@LJEI@?$AAs?$AAo?$AAc?$AAk?$AAs?$AA4?$AA?9?$AA1?$AA?4?$AAh?$AAt?$AAm?$AAl?$AA?$AA@ 004b3464     UseProxyDlg.obj
 0002:0000a488       ??_C@_1BM@ENGJ@?$AAs?$AAo?$AAc?$AAk?$AAs?$AA5?$AA?9?$AA1?$AA?4?$AAh?$AAt?$AAm?$AAl?$AA?$AA@ 004b3488     UseProxyDlg.obj
 0002:0000a4ac       ??_C@_1BI@BJME@?$AAh?$AAt?$AAm?$AAl?$AA_?$AAp?$AAr?$AAo?$AAx?$AAy?$AA?1?$AA?$AA@ 004b34ac     UseProxyDlg.obj
 0002:0000a4c8       ??_C@_1DO@MCDA@?$AAI?$AAD?$AAS?$AA_?$AAH?$AAI?$AAD?$AAE?$AAI?$AAP?$AA_?$AAC?$AAA?$AAN?$AAN?$AAO?$AAT?$AAC?$AAO?$AAN@ 004b34c8     UseProxyDlg.obj
 0002:0000a514       ??_C@_1DE@DOAK@?$AAS?$AAt?$AAa?$AAt?$AAe?$AA?3?$AAC?$AAA?$AAN?$AAN?$AAO?$AAT?$AAC?$AAO?$AAN?$AAN?$AAE?$AAC?$AAT?$AAS@ 004b3514     UseProxyDlg.obj
 0002:0000a554       ??_C@_0BA@HPJL@www?4proxycn?4com?$AA@ 004b3554     UseProxyDlg.obj
 0002:0000a568       ??_C@_02PBDP@80?$AA@       004b3568     UseProxyDlg.obj
 0002:0000a56c       ??_C@_1DI@ICIE@?$AAI?$AAD?$AAS?$AA_?$AAH?$AAI?$AAD?$AAE?$AAI?$AAP?$AA_?$AAC?$AAO?$AAN?$AAN?$AAE?$AAC?$AAT?$AAI?$AAN@ 004b356c     UseProxyDlg.obj
 0002:0000a5b0       ??_C@_1EE@GOAM@?$AAS?$AAt?$AAa?$AAt?$AAe?$AA?3?$AAC?$AAO?$AAN?$AAN?$AAE?$AAC?$AAT?$AAI?$AAN?$AAG?$AAS?$AAE?$AAR?$AAV@ 004b35b0     UseProxyDlg.obj
 0002:0000a604       ??_C@_01FAFK@?$DO?$AA@     004b3604     UseProxyDlg.obj
 0002:0000a608       ??_C@_03MAMF@?$CC?$CJ?$DL?$AA@ 004b3608     UseProxyDlg.obj
 0002:0000a60c       ??_C@_0BB@KHLP@document?4write?$CI?$CC?$AA@ 004b360c     UseProxyDlg.obj
 0002:0000a620       ??_C@_05CGGE@?$DM?1td?$DO?$AA@ 004b3620     UseProxyDlg.obj
 0002:0000a628       ??_C@_03KJNI@?$DMtd?$AA@   004b3628     UseProxyDlg.obj
 0002:0000a62c       ??_C@_05DLDC@?$DM?1tr?$DO?$AA@ 004b362c     UseProxyDlg.obj
 0002:0000a634       ??_C@_03PPNK@?$DMtr?$AA@   004b3634     UseProxyDlg.obj
 0002:0000a638       ??_C@_08DMAO@?$DM?1table?$DO?$AA@ 004b3638     UseProxyDlg.obj
 0002:0000a644       ??_C@_0BBM@EDI@?$DMtr?5align?$DN?$CCcenter?$CC?$DO?$DMtd?5class?$DN?$CCli@ 004b3644     UseProxyDlg.obj
 0002:0000a798       ??_C@_1EA@MODF@?$AAI?$AAD?$AAS?$AA_?$AAH?$AAI?$AAD?$AAE?$AAI?$AAP?$AA_?$AAC?$AAA?$AAN?$AAN?$AAO?$AAT?$AAC?$AAO?$AAN@ 004b3798     UseProxyDlg.obj
 0002:0000a7e4       ??_C@_1DG@OMMD@?$AAS?$AAt?$AAa?$AAt?$AAe?$AA?3?$AAC?$AAA?$AAN?$AAN?$AAO?$AAT?$AAC?$AAO?$AAN?$AAN?$AAE?$AAC?$AAT?$AAN@ 004b37e4     UseProxyDlg.obj
 0002:0000a824       ??_C@_1DA@DBMH@?$AAI?$AAD?$AAS?$AA_?$AAH?$AAI?$AAD?$AAE?$AAI?$AAP?$AAL?$AAI?$AAS?$AAT?$AA_?$AAR?$AAE?$AAS?$AAP?$AAO@ 004b3824     UseProxyDlg.obj
 0002:0000a860       ??_C@_1BC@PAH@?$AAR?$AAe?$AAs?$AAp?$AAo?$AAn?$AAs?$AAe?$AA?$AA@ 004b3860     UseProxyDlg.obj
 0002:0000a878       ??_C@_1CK@GCMA@?$AAI?$AAD?$AAS?$AA_?$AAH?$AAI?$AAD?$AAE?$AAI?$AAP?$AAL?$AAI?$AAS?$AAT?$AA_?$AAB?$AAE?$AAG?$AAI?$AAN@ 004b3878     UseProxyDlg.obj
 0002:0000a8ac       ??_C@_19GDBK@?$AAT?$AAi?$AAm?$AAe?$AA?$AA@ 004b38ac     UseProxyDlg.obj
 0002:0000a8b8       ??_C@_1CO@GAGA@?$AAI?$AAD?$AAS?$AA_?$AAH?$AAI?$AAD?$AAE?$AAI?$AAP?$AAL?$AAI?$AAS?$AAT?$AA_?$AAA?$AAD?$AAD?$AAR?$AAE@ 004b38b8     UseProxyDlg.obj
 0002:0000a8f0       ??_C@_1CI@GJBN@?$AAI?$AAD?$AAS?$AA_?$AAH?$AAI?$AAD?$AAE?$AAI?$AAP?$AAL?$AAI?$AAS?$AAT?$AA_?$AAT?$AAY?$AAP?$AAE?$AA?$AA@ 004b38f0     UseProxyDlg.obj
 0002:0000a920       ??_C@_1CI@FNCM@?$AAI?$AAD?$AAS?$AA_?$AAH?$AAI?$AAD?$AAE?$AAI?$AAP?$AAL?$AAI?$AAS?$AAT?$AA_?$AAP?$AAO?$AAR?$AAT?$AA?$AA@ 004b3920     UseProxyDlg.obj
 0002:0000a950       ??_C@_19JNLO@?$AAP?$AAo?$AAr?$AAt?$AA?$AA@ 004b3950     UseProxyDlg.obj
 0002:0000a95c       ??_C@_1CE@IEDJ@?$AAI?$AAD?$AAS?$AA_?$AAH?$AAI?$AAD?$AAE?$AAI?$AAP?$AAL?$AAI?$AAS?$AAT?$AA_?$AAI?$AAP?$AA?$AA@ 004b395c     UseProxyDlg.obj
 0002:0000a988       ??_C@_15MJL@?$AAI?$AAP?$AA?$AA@ 004b3988     UseProxyDlg.obj
 0002:0000a990       ??_C@_1CE@ONAJ@?$AAI?$AAD?$AAS?$AA_?$AAH?$AAI?$AAD?$AAE?$AAI?$AAP?$AAL?$AAI?$AAS?$AAT?$AA_?$AAI?$AAD?$AA?$AA@ 004b3990     UseProxyDlg.obj
 0002:0000a9bc       ??_C@_19CLMJ@?$AAA?$AAr?$AAe?$AAa?$AA?$AA@ 004b39bc     UseProxyDlg.obj
 0002:0000a9c8       ??_C@_1DE@BMEK@?$AAI?$AAD?$AAS?$AA_?$AAH?$AAI?$AAD?$AAE?$AAI?$AAP?$AA_?$AAU?$AAN?$AAK?$AAN?$AAO?$AAW?$AAN?$AAA?$AAD@ 004b39c8     UseProxyDlg.obj
 0002:0000aa08       ??_C@_1CK@IFGK@?$AAS?$AAt?$AAa?$AAt?$AAe?$AA?3?$AAU?$AAN?$AAK?$AAN?$AAO?$AAW?$AAN?$AAA?$AAD?$AAD?$AAR?$AAE?$AAS?$AAS@ 004b3a08     UseProxyDlg.obj
 0002:0000aa3c       ??_C@_1BA@KNNO@?$AAP?$AAR?$AAO?$AAX?$AAY?$AAC?$AAN?$AA?$AA@ 004b3a3c     UseProxyDlg.obj
 0002:0000aa50       ??_C@_1DC@GCEO@?$AAI?$AAD?$AAS?$AA_?$AAH?$AAI?$AAD?$AAE?$AAI?$AAP?$AA_?$AAS?$AAY?$AAS?$AAT?$AAE?$AAM?$AAR?$AAE?$AAS@ 004b3a50     UseProxyDlg.obj
 0002:0000aa8c       ??_C@_1CI@PPJG@?$AAS?$AAt?$AAa?$AAt?$AAe?$AA?3?$AAS?$AAY?$AAS?$AAT?$AAE?$AAM?$AAR?$AAE?$AAS?$AAT?$AAO?$AAR?$AAE?$AA?$AA@ 004b3a8c     UseProxyDlg.obj
 0002:0000aabc       ??_C@_1BI@CAOG@?$AAP?$AAr?$AAo?$AAx?$AAy?$AAE?$AAn?$AAa?$AAb?$AAl?$AAe?$AA?$AA@ 004b3abc     UseProxyDlg.obj
 0002:0000aad8       ??_C@_1BI@LFOI@?$AAP?$AAr?$AAo?$AAx?$AAy?$AAS?$AAe?$AAr?$AAv?$AAe?$AAr?$AA?$AA@ 004b3ad8     UseProxyDlg.obj
 0002:0000aaf4       ??_C@_1HI@PIIO@?$AAS?$AAo?$AAf?$AAt?$AAw?$AAa?$AAr?$AAe?$AA?2?$AAM?$AAi?$AAc?$AAr?$AAo?$AAs?$AAo?$AAf?$AAt?$AA?2?$AAW@ 004b3af4     UseProxyDlg.obj
 0002:0000ab84       ??_C@_01FAJB@?$DL?$AA@     004b3b84     UseProxyDlg.obj
 0002:0000ab88       ??_C@_0M@NHJD@ProxyEnable?$AA@ 004b3b88     UseProxyDlg.obj
 0002:0000ab98       ??_C@_0M@BNJI@ProxyServer?$AA@ 004b3b98     UseProxyDlg.obj
 0002:0000aba8       ??_C@_0DM@NIGE@Software?2Microsoft?2Windows?2Curre@ 004b3ba8     UseProxyDlg.obj
 0002:0000abf0       ??_C@_01PKAG@?3?$AA@       004b3bf0     UseProxyDlg.obj
 0002:0000abf4       ??_C@_01KPOD@?$DN?$AA@     004b3bf4     UseProxyDlg.obj
 0002:0000abf8       ??_C@_05KANM@socks?$AA@    004b3bf8     UseProxyDlg.obj
 0002:0000ac00       ??_C@_06DMJA@SOCKS5?$AA@   004b3c00     UseProxyDlg.obj
 0002:0000ac08       ??_C@_06JGAH@SOCKS4?$AA@   004b3c08     UseProxyDlg.obj
 0002:0000ac10       ??_C@_1DK@HPPJ@?$AAI?$AAD?$AAS?$AA_?$AAH?$AAI?$AAD?$AAE?$AAI?$AAP?$AA_?$AAC?$AAU?$AAR?$AAR?$AAE?$AAN?$AAT?$AAP?$AAR@ 004b3c10     UseProxyDlg.obj
 0002:0000ac58       ??_C@_1CK@MPML@?$AAC?$AAu?$AAr?$AAr?$AAe?$AAn?$AAt?$AA?5?$AAP?$AAr?$AAo?$AAx?$AAy?$AA?5?$AAS?$AAt?$AAa?$AAt?$AAe?$AA?3@ 004b3c58     UseProxyDlg.obj
 0002:0000ac8c       ??_C@_1BE@LNJK@v?nRMN?ct?$AGO?$HPu?$CI?$GA?EQ?$LF?$PP?$BK?$AA?$AA@ 004b3c8c     UseProxyDlg.obj
 0002:0000aca4       ??_C@_1CO@EPCO@?$AAI?$AAD?$AAS?$AA_?$AAH?$AAI?$AAD?$AAE?$AAI?$AAP?$AA_?$AAN?$AAO?$AAT?$AAU?$AAS?$AAE?$AAP?$AAR?$AAO@ 004b3ca4     UseProxyDlg.obj
 0002:0000acdc       ??_C@_1EA@MGLA@?$AAC?$AAu?$AAr?$AAr?$AAe?$AAn?$AAt?$AA?5?$AAP?$AAr?$AAo?$AAx?$AAy?$AA?5?$AAS?$AAt?$AAa?$AAt?$AAe?$AA?3@ 004b3cdc     UseProxyDlg.obj
 0002:0000ad28       ??_C@_1EA@FFKE@?$AAI?$AAD?$AAS?$AA_?$AAH?$AAI?$AAD?$AAE?$AAI?$AAP?$AA_?$AAC?$AAA?$AAN?$AAN?$AAO?$AAT?$AAR?$AAE?$AAA@ 004b3d28     UseProxyDlg.obj
 0002:0000ad74       ??_C@_1FC@KLHD@?$AAC?$AAu?$AAr?$AAr?$AAe?$AAn?$AAt?$AA?5?$AAP?$AAr?$AAo?$AAx?$AAy?$AA?5?$AAS?$AAt?$AAa?$AAt?$AAe?$AA?3@ 004b3d74     UseProxyDlg.obj
 0002:0000add8       ??_C@_0N@HDNB@webstatus?4db?$AA@ 004b3dd8     WebDB.obj
 0002:0000ade8       ??_7CWebDB@@6B@            004b3de8     WebDB.obj
 0002:0000adec       ??_C@_0M@BHJE@?2downloads?2?$AA@ 004b3dec     WebDB.obj
 0002:0000adfc       ??_C@_0CD@BICJ@select?5?$CK?5from?5web?5where?5ID?5?$DN?5?8?$CFd@ 004b3dfc     WebDB.obj
 0002:0000ae28       ??_C@_0BF@EIJI@select?5ID?5from?5web?5?$DL?$AA@ 004b3e28     WebDB.obj
 0002:0000ae44       ??_7CWINButton@@6B@        004b3e44     WINButton.obj
 0002:0000ae48       ??_C@_1BM@BCBG@?$AAS?$AAe?$AAt?$AAP?$AAr?$AAo?$AAp?$AA?5?$AAE?$AAR?$AAR?$AAO?$AAR?$AA?$AA@ 004b3e48     WINButton.obj
 0002:0000ae6c       ??_C@_1BG@DLME@?$AAC?$AAW?$AAI?$AAN?$AAB?$AAU?$AAT?$AAT?$AAO?$AAN?$AA?$AA@ 004b3e6c     WINButton.obj
 0002:0000ae88       ??_C@_1CI@BIBC@?$AAS?$AAe?$AAl?$AAe?$AAc?$AAt?$AAC?$AAl?$AAi?$AAp?$AAR?$AAg?$AAn?$AA?5?$AAE?$AAR?$AAR?$AAO?$AAR?$AA?$AA@ 004b3e88     WINButton.obj
 0002:0000aeb8       ??_C@_1BM@KDG@?$AAW?$AAM?$AA_?$AAS?$AAY?$AAS?$AAK?$AAE?$AAY?$AAD?$AAO?$AAW?$AAN?$AA?$AA@ 004b3eb8     WINButton.obj
 0002:0000aedc       ??_C@_1BA@GNOI@?$AAW?$AAM?$AA_?$AAC?$AAH?$AAA?$AAR?$AA?$AA@ 004b3edc     WINButton.obj
 0002:0000aef0       ??_C@_1BI@JEID@?$AAW?$AAM?$AA_?$AAD?$AAR?$AAA?$AAW?$AAI?$AAT?$AAE?$AAM?$AA?$AA@ 004b3ef0     WINButton.obj
 0002:0000af0c       ??_C@_1DA@ECDI@?$AAD?$AAe?$AAl?$AAe?$AAt?$AAe?$AAO?$AAb?$AAj?$AAe?$AAc?$AAt?$AA?$CI?$AAb?$AAm?$AAp?$AA?$CJ?$AA?5?$AAE?$AAR@ 004b3f0c     WINButton.obj
 0002:0000af48       ??_C@_1CO@JFAI@?$AAD?$AAe?$AAl?$AAe?$AAt?$AAe?$AAD?$AAC?$AA?$CI?$AAh?$AAd?$AAc?$AAM?$AAe?$AAm?$AA?$CJ?$AA?5?$AAE?$AAR?$AAR@ 004b3f48     WINButton.obj
 0002:0000af80       ??_C@_1CG@FPP@?$AAC?$AAr?$AAe?$AAa?$AAt?$AAe?$AA?5?$AAM?$AAe?$AAm?$AAD?$AAc?$AA?5?$AAE?$AAR?$AAR?$AAO?$AAR?$AA?$AA@ 004b3f80     WINButton.obj
 0002:0000afb0       ??_C@_1CC@HIKN@?$AAC?$AAo?$AAm?$AAb?$AAi?$AAn?$AAe?$AAR?$AAg?$AAn?$AA?5?$AAE?$AAR?$AAR?$AAO?$AAR?$AA?$AA@ 004b3fb0     WINButton.obj
 0002:0000afd8       ??_C@_1DC@BHP@?$AAC?$AAr?$AAe?$AAa?$AAt?$AAe?$AAR?$AAe?$AAc?$AAt?$AAR?$AAg?$AAn?$AA?5?$AAt?$AAe?$AAm?$AAp?$AA?5?$AAE@ 004b3fd8     WINButton.obj
 0002:0000b014       ??_C@_1DG@OBOF@?$AAC?$AAr?$AAe?$AAa?$AAt?$AAe?$AAR?$AAe?$AAc?$AAt?$AAR?$AAg?$AAn?$AA?5?$AAw?$AAn?$AAd?$AAR?$AAg?$AAn@ 004b4014     WINButton.obj
 0002:0000b054       ??_C@_1CI@PDLL@?$AAS?$AAe?$AAt?$AA?5?$AAT?$AAo?$AAo?$AAl?$AAT?$AAi?$AAp?$AA?5?$AAA?$AAl?$AAr?$AAe?$AAa?$AAd?$AAy?$AA?$AA@ 004b4054     WINButton.obj
 0002:0000b084       ??_C@_1CM@IFFL@?$AAC?$AAl?$AAe?$AAa?$AAr?$AA?5?$AAT?$AAo?$AAo?$AAl?$AAT?$AAi?$AAp?$AA?5?$AAA?$AAl?$AAr?$AAe?$AAa?$AAd@ 004b4084     WINButton.obj
 0002:0000b0b8       _SID_CtxQueryAssociations  004b40b8     shell32:shguid.obj
 0002:0000b0c8       _BHID_StorageEnum          004b40c8     shell32:shguid.obj
 0002:0000b0d8       _BHID_LinkTargetItem       004b40d8     shell32:shguid.obj
 0002:0000b0e8       _BHID_Stream               004b40e8     shell32:shguid.obj
 0002:0000b0f8       _BHID_Storage              004b40f8     shell32:shguid.obj
 0002:0000b108       _BHID_SFViewObject         004b4108     shell32:shguid.obj
 0002:0000b118       _BHID_SFUIObject           004b4118     shell32:shguid.obj
 0002:0000b128       _BHID_SFObject             004b4128     shell32:shguid.obj
 0002:0000b138       _SID_SGetViewFromViewDual  004b4138     shell32:shguid.obj
 0002:0000b148       _SID_STopWindow            004b4148     shell32:shguid.obj
 0002:0000b158       _IID_IFileSystemBindData   004b4158     shell32:shguid.obj
 0002:0000b168       _CLSID_CDocBrowsePropertyPage 004b4168     shell32:shguid.obj
 0002:0000b178       _CLSID_CImageBrowsePropertyPage 004b4178     shell32:shguid.obj
 0002:0000b188       _CLSID_CAnchorBrowsePropertyPage 004b4188     shell32:shguid.obj
 0002:0000b198       _IID_IDragSourceHelper     004b4198     shell32:shguid.obj
 0002:0000b1a8       _IID_IDropTargetHelper     004b41a8     shell32:shguid.obj
 0002:0000b1b8       _CLSID_DragDropHelper      004b41b8     shell32:shguid.obj
 0002:0000b1c8       _IID_IMountedVolume        004b41c8     shell32:shguid.obj
 0002:0000b1d8       _CLSID_HWShellExecute      004b41d8     shell32:shguid.obj
 0002:0000b1e8       _CLSID_MountedVolume       004b41e8     shell32:shguid.obj
 0002:0000b1f8       _IID_IEnumExtraSearch      004b41f8     shell32:shguid.obj
 0002:0000b208       _FMTID_Query               004b4208     shell32:shguid.obj
 0002:0000b218       _FMTID_Volume              004b4218     shell32:shguid.obj
 0002:0000b228       _FMTID_DRM                 004b4228     shell32:shguid.obj
 0002:0000b238       _FMTID_MUSIC               004b4238     shell32:shguid.obj
 0002:0000b248       _FMTID_WebView             004b4248     shell32:shguid.obj
 0002:0000b258       _FMTID_Misc                004b4258     shell32:shguid.obj
 0002:0000b268       _FMTID_Briefcase           004b4268     shell32:shguid.obj
 0002:0000b278       _FMTID_Displaced           004b4278     shell32:shguid.obj
 0002:0000b288       _FMTID_ImageProperties     004b4288     shell32:shguid.obj
 0002:0000b298       _FMTID_Storage             004b4298     shell32:shguid.obj
 0002:0000b2a8       _FMTID_ShellDetails        004b42a8     shell32:shguid.obj
 0002:0000b2b8       _IID_IShellFolder2         004b42b8     shell32:shguid.obj
 0002:0000b2c8       _CLSID_DocHostUIHandler    004b42c8     shell32:shguid.obj
 0002:0000b2d8       _CLSID_DarwinAppPublisher  004b42d8     shell32:shguid.obj
 0002:0000b2e8       _CLSID_ToolbarExtButtons   004b42e8     shell32:shguid.obj
 0002:0000b2f8       _CLSID_MSOButtons          004b42f8     shell32:shguid.obj
 0002:0000b308       _CLSID_InternetButtons     004b4308     shell32:shguid.obj
 0002:0000b318       _IID_INamedPropertyBag     004b4318     shell32:shguid.obj
 0002:0000b328       _CGID_ShortCut             004b4328     shell32:shguid.obj
 0002:0000b338       _CLSID_FileSysColumnProvider 004b4338     shell32:shguid.obj
 0002:0000b348       _CLSID_LinkColumnProvider  004b4348     shell32:shguid.obj
 0002:0000b358       _CLSID_DocFileColumnProvider 004b4358     shell32:shguid.obj
 0002:0000b368       _IID_IColumnProvider       004b4368     shell32:shguid.obj
 0002:0000b378       _CLSID_QueryAssociations   004b4378     shell32:shguid.obj
 0002:0000b388       _IID_IQueryAssociations    004b4388     shell32:shguid.obj
 0002:0000b398       _IID_IShellDetails3        004b4398     shell32:shguid.obj
 0002:0000b3a8       _IID_ISynchronizedCallBack 004b43a8     shell32:shguid.obj
 0002:0000b3b8       _IID_IActiveDesktop        004b43b8     shell32:shguid.obj
 0002:0000b3c8       _CLSID_ActiveDesktop       004b43c8     shell32:shguid.obj
 0002:0000b3d8       _SID_STopLevelBrowser      004b43d8     shell32:shguid.obj
 0002:0000b3e8       _IID_IProgressDialog       004b43e8     shell32:shguid.obj
 0002:0000b3f8       _CLSID_ProgressDialog      004b43f8     shell32:shguid.obj
 0002:0000b408       _CLSID_ACLCustomMRU        004b4408     shell32:shguid.obj
 0002:0000b418       _CLSID_ACLMulti            004b4418     shell32:shguid.obj
 0002:0000b428       _CLSID_ACLMRU              004b4428     shell32:shguid.obj
 0002:0000b438       _CLSID_ACListISF           004b4438     shell32:shguid.obj
 0002:0000b448       _CLSID_ACLHistory          004b4448     shell32:shguid.obj
 0002:0000b458       _CLSID_AutoComplete        004b4458     shell32:shguid.obj
 0002:0000b468       _IID_ICurrentWorkingDirectory 004b4468     shell32:shguid.obj
 0002:0000b478       _IID_IACList2              004b4478     shell32:shguid.obj
 0002:0000b488       _IID_IACList               004b4488     shell32:shguid.obj
 0002:0000b498       _IID_IObjMgr               004b4498     shell32:shguid.obj
 0002:0000b4a8       _IID_IAutoCompList         004b44a8     shell32:shguid.obj
 0002:0000b4b8       _CLSID_CURLSearchHook      004b44b8     shell32:shguid.obj
 0002:0000b4c8       _CLSID_CUrlHistory         004b44c8     shell32:shguid.obj
 0002:0000b4d8       _IID_IUniformResourceLocatorW 004b44d8     shell32:shguid.obj
 0002:0000b4e8       _IID_IUniformResourceLocatorA 004b44e8     shell32:shguid.obj
 0002:0000b4f8       _CLSID_InternetShortcut    004b44f8     shell32:shguid.obj
 0002:0000b508       _IID_IShellChangeNotify    004b4508     shell32:shguid.obj
 0002:0000b518       _IID_IDiscardableBrowserProperty 004b4518     shell32:shguid.obj
 0002:0000b528       _IID_IContextMenu3         004b4528     shell32:shguid.obj
 0002:0000b538       _IID_IThumbnailCapture     004b4538     shell32:shguid.obj
 0002:0000b548       _IID_IRunnableTask         004b4548     shell32:shguid.obj
 0002:0000b558       _CLSID_CFSIconOverlayManager 004b4558     shell32:shguid.obj
 0002:0000b568       _IID_IPersistFolder3       004b4568     shell32:shguid.obj
 0002:0000b578       _IID_IShellFolderViewCB    004b4578     shell32:shguid.obj
 0002:0000b588       _IID_ICommDlgBrowser2      004b4588     shell32:shguid.obj
 0002:0000b598       _IID_IShellIconOverlayIdentifier 004b4598     shell32:shguid.obj
 0002:0000b5a8       _IID_IShellIconOverlay     004b45a8     shell32:shguid.obj
 0002:0000b5b8       _IID_IDockingWindowFrame   004b45b8     shell32:shguid.obj
 0002:0000b5c8       _IID_IDockingWindowSite    004b45c8     shell32:shguid.obj
 0002:0000b5d8       _IID_IInputObjectSite      004b45d8     shell32:shguid.obj
 0002:0000b5e8       _IID_IInputObject          004b45e8     shell32:shguid.obj
 0002:0000b5f8       _CLSID_StgFolder           004b45f8     shell32:shguid.obj
 0002:0000b608       _CLSID_FolderShortcut      004b4608     shell32:shguid.obj
 0002:0000b618       _IID_IDelegateFolder       004b4618     shell32:shguid.obj
 0002:0000b628       _IID_IURLSearchHook2       004b4628     shell32:shguid.obj
 0002:0000b638       _IID_ISearchContext        004b4638     shell32:shguid.obj
 0002:0000b648       _IID_IURLSearchHook        004b4648     shell32:shguid.obj
 0002:0000b658       _IID_IResolveShellLink     004b4658     shell32:shguid.obj
 0002:0000b668       _IID_IShellLinkDataList    004b4668     shell32:shguid.obj
 0002:0000b678       _IID_IShellView2           004b4678     shell32:shguid.obj
 0002:0000b688       _IID_IBriefcaseStg         004b4688     shell32:shguid.obj
 0002:0000b698       _IID_IQueryInfo            004b4698     shell32:shguid.obj
 0002:0000b6a8       _IID_IRemoteComputer       004b46a8     shell32:shguid.obj
 0002:0000b6b8       _IID_IShellCopyHookW       004b46b8     shell32:shguid.obj
 0002:0000b6c8       _IID_IShellExecuteHookW    004b46c8     shell32:shguid.obj
 0002:0000b6d8       _IID_IExtractIconW         004b46d8     shell32:shguid.obj
 0002:0000b6e8       _IID_IShellLinkW           004b46e8     shell32:shguid.obj
 0002:0000b6f8       _IID_IFileViewerW          004b46f8     shell32:shguid.obj
 0002:0000b708       _IID_INewShortcutHookW     004b4708     shell32:shguid.obj
 0002:0000b718       _IID_IPropSheetPage        004b4718     shell32:shguid.obj
 0002:0000b728       _IID_IShellExecuteHookA    004b4728     shell32:shguid.obj
 0002:0000b738       _IID_IContextMenu2         004b4738     shell32:shguid.obj
 0002:0000b748       _IID_IFileViewerSite       004b4748     shell32:shguid.obj
 0002:0000b758       _IID_IEnumIDList           004b4758     shell32:shguid.obj
 0002:0000b768       _IID_ICommDlgBrowser       004b4768     shell32:shguid.obj
 0002:0000b778       _IID_IFileViewerA          004b4778     shell32:shguid.obj
 0002:0000b788       _IID_IShellCopyHookA       004b4788     shell32:shguid.obj
 0002:0000b798       _IID_IShellLinkA           004b4798     shell32:shguid.obj
 0002:0000b7a8       _IID_IDelayedRelease       004b47a8     shell32:shguid.obj
 0002:0000b7b8       _IID_IShellDetails         004b47b8     shell32:shguid.obj
 0002:0000b7c8       _IID_IExtractIconA         004b47c8     shell32:shguid.obj
 0002:0000b7d8       _IID_IPersistFolder        004b47d8     shell32:shguid.obj
 0002:0000b7e8       _IID_IShellPropSheetExt    004b47e8     shell32:shguid.obj
 0002:0000b7f8       _IID_IShellExtInit         004b47f8     shell32:shguid.obj
 0002:0000b808       _IID_IShellFolder          004b4808     shell32:shguid.obj
 0002:0000b818       _IID_IShellIcon            004b4818     shell32:shguid.obj
 0002:0000b828       _IID_IContextMenu          004b4828     shell32:shguid.obj
 0002:0000b838       _IID_IShellView            004b4838     shell32:shguid.obj
 0002:0000b848       _IID_IShellBrowser         004b4848     shell32:shguid.obj
 0002:0000b858       _IID_INewShortcutHookA     004b4858     shell32:shguid.obj
 0002:0000b868       _CGID_ExplorerBarDoc       004b4868     shell32:shguid.obj
 0002:0000b878       _CGID_ShellServiceObject   004b4878     shell32:shguid.obj
 0002:0000b888       _CGID_ShellDocView         004b4888     shell32:shguid.obj
 0002:0000b898       _CGID_Explorer             004b4898     shell32:shguid.obj
 0002:0000b8a8       _FMTID_InternetSite        004b48a8     shell32:shguid.obj
 0002:0000b8b8       _FMTID_Intshcut            004b48b8     shell32:shguid.obj
 0002:0000b8c8       _CATID_CommBand            004b48c8     shell32:shguid.obj
 0002:0000b8d8       _CATID_InfoBand            004b48d8     shell32:shguid.obj
 0002:0000b8e8       _CATID_DeskBand            004b48e8     shell32:shguid.obj
 0002:0000b8f8       _CATID_BrowseInPlace       004b48f8     shell32:shguid.obj
 0002:0000b908       _CATID_BrowsableShellExt   004b4908     shell32:shguid.obj
 0002:0000b918       _CLSID_MyDocuments         004b4918     shell32:shguid.obj
 0002:0000b928       _CLSID_Printers            004b4928     shell32:shguid.obj
 0002:0000b938       _CLSID_ControlPanel        004b4938     shell32:shguid.obj
 0002:0000b948       _CLSID_RecycleBin          004b4948     shell32:shguid.obj
 0002:0000b958       _CLSID_ShellFSFolder       004b4958     shell32:shguid.obj
 0002:0000b968       _CLSID_Internet            004b4968     shell32:shguid.obj
 0002:0000b978       _CLSID_MyComputer          004b4978     shell32:shguid.obj
 0002:0000b988       _CLSID_NetworkShare        004b4988     shell32:shguid.obj
 0002:0000b998       _CLSID_NetworkServer       004b4998     shell32:shguid.obj
 0002:0000b9a8       _CLSID_NetworkDomain       004b49a8     shell32:shguid.obj
 0002:0000b9b8       _CLSID_NetworkPlaces       004b49b8     shell32:shguid.obj
 0002:0000b9c8       _CLSID_ShellLink           004b49c8     shell32:shguid.obj
 0002:0000b9d8       _CLSID_ShellDesktop        004b49d8     shell32:shguid.obj
 0002:0000b9e8       _IID_IUrlHistoryNotify     004b49e8     uuid:urlhist_i.obj
 0002:0000b9f8       _IID_IUrlHistoryStg2       004b49f8     uuid:urlhist_i.obj
 0002:0000ba08       _IID_IUrlHistoryStg        004b4a08     uuid:urlhist_i.obj
 0002:0000ba18       _IID_IEnumSTATURL          004b4a18     uuid:urlhist_i.obj
 0002:0000ba28       _IID_IEnumOLEVERB          004b4a28     uuid:oleidl_i.obj
 0002:0000ba38       _IID_IDropTarget           004b4a38     uuid:oleidl_i.obj
 0002:0000ba48       _IID_IDropSource           004b4a48     uuid:oleidl_i.obj
 0002:0000ba58       _IID_IViewObject2          004b4a58     uuid:oleidl_i.obj
 0002:0000ba68       _IID_IViewObject           004b4a68     uuid:oleidl_i.obj
 0002:0000ba78       _IID_IContinue             004b4a78     uuid:oleidl_i.obj
 0002:0000ba88       _IID_IOleInPlaceSite       004b4a88     uuid:oleidl_i.obj
 0002:0000ba98       _IID_IOleInPlaceObject     004b4a98     uuid:oleidl_i.obj
 0002:0000baa8       _IID_IOleInPlaceFrame      004b4aa8     uuid:oleidl_i.obj
 0002:0000bab8       _IID_IOleInPlaceActiveObject 004b4ab8     uuid:oleidl_i.obj
 0002:0000bac8       _IID_IOleInPlaceUIWindow   004b4ac8     uuid:oleidl_i.obj
 0002:0000bad8       _IID_IOleItemContainer     004b4ad8     uuid:oleidl_i.obj
 0002:0000bae8       _IID_IOleLink              004b4ae8     uuid:oleidl_i.obj
 0002:0000baf8       _IID_IOleWindow            004b4af8     uuid:oleidl_i.obj
 0002:0000bb08       _IID_IOleObject            004b4b08     uuid:oleidl_i.obj
 0002:0000bb18       _IID_IOleClientSite        004b4b18     uuid:oleidl_i.obj
 0002:0000bb28       _IID_IOleContainer         004b4b28     uuid:oleidl_i.obj
 0002:0000bb38       _IID_IParseDisplayName     004b4b38     uuid:oleidl_i.obj
 0002:0000bb48       _IID_IOleCacheControl      004b4b48     uuid:oleidl_i.obj
 0002:0000bb58       _IID_IOleCache2            004b4b58     uuid:oleidl_i.obj
 0002:0000bb68       _IID_IOleCache             004b4b68     uuid:oleidl_i.obj
 0002:0000bb78       _IID_IOleAdviseHolder      004b4b78     uuid:oleidl_i.obj
 0002:0000bb88       _IID_IClassFactory         004b4b88     uuid:unknwn_i.obj
 0002:0000bb98       _IID_AsyncIUnknown         004b4b98     uuid:unknwn_i.obj
 0002:0000bba8       _IID_IUnknown              004b4ba8     uuid:unknwn_i.obj
 0002:0000bbb8       _IID_IHostBehaviorInit     004b4bb8     uuid:mshtml_i.obj
 0002:0000bbc8       _IID_IElementBehaviorSiteLayout2 004b4bc8     uuid:mshtml_i.obj
 0002:0000bbd8       _IID_IElementBehaviorSiteLayout 004b4bd8     uuid:mshtml_i.obj
 0002:0000bbe8       _IID_IElementBehaviorLayout2 004b4be8     uuid:mshtml_i.obj
 0002:0000bbf8       _IID_IElementBehaviorLayout 004b4bf8     uuid:mshtml_i.obj
 0002:0000bc08       _IID_IElementBehaviorFocus 004b4c08     uuid:mshtml_i.obj
 0002:0000bc18       _IID_IElementBehaviorSubmit 004b4c18     uuid:mshtml_i.obj
 0002:0000bc28       _IID_IElementBehaviorSiteCategory 004b4c28     uuid:mshtml_i.obj
 0002:0000bc38       _IID_IElementBehaviorCategory 004b4c38     uuid:mshtml_i.obj
 0002:0000bc48       _IID_IElementBehaviorSiteOM2 004b4c48     uuid:mshtml_i.obj
 0002:0000bc58       _IID_IElementNamespaceFactoryCallback 004b4c58     uuid:mshtml_i.obj
 0002:0000bc68       _IID_IElementNamespaceFactory2 004b4c68     uuid:mshtml_i.obj
 0002:0000bc78       _IID_IElementNamespaceFactory 004b4c78     uuid:mshtml_i.obj
 0002:0000bc88       _IID_IElementNamespaceTable 004b4c88     uuid:mshtml_i.obj
 0002:0000bc98       _IID_IElementNamespace     004b4c98     uuid:mshtml_i.obj
 0002:0000bca8       _CLSID_HTMLInputImage      004b4ca8     uuid:mshtml_i.obj
 0002:0000bcb8       _DIID_DispIHTMLInputImage  004b4cb8     uuid:mshtml_i.obj
 0002:0000bcc8       _CLSID_HTMLOptionButtonElement 004b4cc8     uuid:mshtml_i.obj
 0002:0000bcd8       _DIID_DispIHTMLOptionButtonElement 004b4cd8     uuid:mshtml_i.obj
 0002:0000bce8       _CLSID_HTMLInputFileElement 004b4ce8     uuid:mshtml_i.obj
 0002:0000bcf8       _DIID_DispIHTMLInputFileElement 004b4cf8     uuid:mshtml_i.obj
 0002:0000bd08       _CLSID_HTMLInputTextElement 004b4d08     uuid:mshtml_i.obj
 0002:0000bd18       _DIID_DispIHTMLInputTextElement 004b4d18     uuid:mshtml_i.obj
 0002:0000bd28       _CLSID_HTMLInputButtonElement 004b4d28     uuid:mshtml_i.obj
 0002:0000bd38       _DIID_DispIHTMLInputButtonElement 004b4d38     uuid:mshtml_i.obj
 0002:0000bd48       _CLSID_OldHTMLFormElement  004b4d48     uuid:mshtml_i.obj
 0002:0000bd58       _CLSID_OldHTMLDocument     004b4d58     uuid:mshtml_i.obj
 0002:0000bd68       _CLSID_HTMLAppBehavior     004b4d68     uuid:mshtml_i.obj
 0002:0000bd78       _DIID_DispHTMLAppBehavior  004b4d78     uuid:mshtml_i.obj
 0002:0000bd88       _IID_IHTMLAppBehavior3     004b4d88     uuid:mshtml_i.obj
 0002:0000bd98       _IID_IHTMLAppBehavior2     004b4d98     uuid:mshtml_i.obj
 0002:0000bda8       _IID_IHTMLAppBehavior      004b4da8     uuid:mshtml_i.obj
 0002:0000bdb8       _CLSID_HTMLPopup           004b4db8     uuid:mshtml_i.obj
 0002:0000bdc8       _DIID_DispHTMLPopup        004b4dc8     uuid:mshtml_i.obj
 0002:0000bdd8       _IID_IHTMLPopup            004b4dd8     uuid:mshtml_i.obj
 0002:0000bde8       _CLSID_HTMLDialog          004b4de8     uuid:mshtml_i.obj
 0002:0000bdf8       _CLSID_ThreadDialogProcParam 004b4df8     uuid:mshtml_i.obj
 0002:0000be08       _IID_IHTMLModelessInit     004b4e08     uuid:mshtml_i.obj
 0002:0000be18       _IID_IHTMLDialog3          004b4e18     uuid:mshtml_i.obj
 0002:0000be28       _IID_IHTMLDialog2          004b4e28     uuid:mshtml_i.obj
 0002:0000be38       _IID_IHTMLDialog           004b4e38     uuid:mshtml_i.obj
 0002:0000be48       _IID_IEnumPrivacyRecords   004b4e48     uuid:mshtml_i.obj
 0002:0000be58       _IID_IHTMLIPrintCollection 004b4e58     uuid:mshtml_i.obj
 0002:0000be68       _IID_IHTMLPainterOverlay   004b4e68     uuid:mshtml_i.obj
 0002:0000be78       _IID_IHTMLPainterEventInfo 004b4e78     uuid:mshtml_i.obj
 0002:0000be88       _IID_IHTMLPaintSite        004b4e88     uuid:mshtml_i.obj
 0002:0000be98       _IID_IHTMLPainter          004b4e98     uuid:mshtml_i.obj
 0002:0000bea8       _CLSID_HTMLNamespaceCollection 004b4ea8     uuid:mshtml_i.obj
 0002:0000beb8       _CLSID_HTMLNamespace       004b4eb8     uuid:mshtml_i.obj
 0002:0000bec8       _IID_IHTMLNamespaceCollection 004b4ec8     uuid:mshtml_i.obj
 0002:0000bed8       _IID_IHTMLNamespace        004b4ed8     uuid:mshtml_i.obj
 0002:0000bee8       _DIID_HTMLNamespaceEvents  004b4ee8     uuid:mshtml_i.obj
 0002:0000bef8       _CLSID_FontNames           004b4ef8     uuid:mshtml_i.obj
 0002:0000bf08       _CLSID_BlockFormats        004b4f08     uuid:mshtml_i.obj
 0002:0000bf18       _CLSID_HtmlDlgSafeHelper   004b4f18     uuid:mshtml_i.obj
 0002:0000bf28       _IID_IHTMLComputedStyle    004b4f28     uuid:mshtml_i.obj
 0002:0000bf38       _IID_IHTMLEditServices2    004b4f38     uuid:mshtml_i.obj
 0002:0000bf48       _IID_IHTMLEditServices     004b4f48     uuid:mshtml_i.obj
 0002:0000bf58       _IID_IHTMLEditDesigner     004b4f58     uuid:mshtml_i.obj
 0002:0000bf68       _IID_ISelectionServices    004b4f68     uuid:mshtml_i.obj
 0002:0000bf78       _IID_ISelectionServicesListener 004b4f78     uuid:mshtml_i.obj
 0002:0000bf88       _IID_IIMEServices          004b4f88     uuid:mshtml_i.obj
 0002:0000bf98       _IID_ISequenceNumber       004b4f98     uuid:mshtml_i.obj
 0002:0000bfa8       _IID_IHTMLEditHost2        004b4fa8     uuid:mshtml_i.obj
 0002:0000bfb8       _IID_IHTMLEditHost         004b4fb8     uuid:mshtml_i.obj
 0002:0000bfc8       _IID_IXMLGenericParse      004b4fc8     uuid:mshtml_i.obj
 0002:0000bfd8       _IID_IMarkupTextFrags      004b4fd8     uuid:mshtml_i.obj
 0002:0000bfe8       _IID_IMarkupPointer2       004b4fe8     uuid:mshtml_i.obj
 0002:0000bff8       _IID_IHTMLChangePlayback   004b4ff8     uuid:mshtml_i.obj
 0002:0000c008       _IID_IMarkupServices2      004b5008     uuid:mshtml_i.obj
 0002:0000c018       _IID_IMarkupServices       004b5018     uuid:mshtml_i.obj
 0002:0000c028       _IID_ISecureUrlHost        004b5028     uuid:mshtml_i.obj
 0002:0000c038       _IID_ICSSFilter            004b5038     uuid:mshtml_i.obj
 0002:0000c048       _IID_IFontNames            004b5048     uuid:mshtml_i.obj
 0002:0000c058       _IID_IBlockFormats         004b5058     uuid:mshtml_i.obj
 0002:0000c068       _IID_IHtmlDlgSafeHelper    004b5068     uuid:mshtml_i.obj
 0002:0000c078       _IID_IDisplayServices      004b5078     uuid:mshtml_i.obj
 0002:0000c088       _IID_IDisplayPointer       004b5088     uuid:mshtml_i.obj
 0002:0000c098       _IID_ILineInfo             004b5098     uuid:mshtml_i.obj
 0002:0000c0a8       _IID_IHighlightRenderingServices 004b50a8     uuid:mshtml_i.obj
 0002:0000c0b8       _IID_IHighlightSegment     004b50b8     uuid:mshtml_i.obj
 0002:0000c0c8       _IID_IElementSegment       004b50c8     uuid:mshtml_i.obj
 0002:0000c0d8       _IID_ISegment              004b50d8     uuid:mshtml_i.obj
 0002:0000c0e8       _IID_IHTMLCaret            004b50e8     uuid:mshtml_i.obj
 0002:0000c0f8       _IID_ISegmentListIterator  004b50f8     uuid:mshtml_i.obj
 0002:0000c108       _IID_ISegmentList          004b5108     uuid:mshtml_i.obj
 0002:0000c118       _IID_IActiveIMMApp         004b5118     uuid:mshtml_i.obj
 0002:0000c128       _IID_IHTMLChangeSink       004b5128     uuid:mshtml_i.obj
 0002:0000c138       _IID_IHTMLChangeLog        004b5138     uuid:mshtml_i.obj
 0002:0000c148       _IID_IMarkupContainer2     004b5148     uuid:mshtml_i.obj
 0002:0000c158       _IID_IMarkupContainer      004b5158     uuid:mshtml_i.obj
 0002:0000c168       _IID_IMarkupPointer        004b5168     uuid:mshtml_i.obj
 0002:0000c178       _IID_ICSSFilterSite        004b5178     uuid:mshtml_i.obj
 0002:0000c188       _CLSID_HTMLStyleFontFace   004b5188     uuid:mshtml_i.obj
 0002:0000c198       _IID_IHTMLStyleFontFace    004b5198     uuid:mshtml_i.obj
 0002:0000c1a8       _CLSID_HTMLStyleElement    004b51a8     uuid:mshtml_i.obj
 0002:0000c1b8       _DIID_DispHTMLStyleElement 004b51b8     uuid:mshtml_i.obj
 0002:0000c1c8       _IID_IHTMLStyleElement     004b51c8     uuid:mshtml_i.obj
 0002:0000c1d8       _DIID_HTMLStyleElementEvents 004b51d8     uuid:mshtml_i.obj
 0002:0000c1e8       _DIID_HTMLStyleElementEvents2 004b51e8     uuid:mshtml_i.obj
 0002:0000c1f8       _IID_IHTMLOptionsHolder    004b51f8     uuid:mshtml_i.obj
 0002:0000c208       _IID_IHTMLFontSizesCollection 004b5208     uuid:mshtml_i.obj
 0002:0000c218       _IID_IHTMLFontNamesCollection 004b5218     uuid:mshtml_i.obj
 0002:0000c228       _CLSID_HTMLBGsound         004b5228     uuid:mshtml_i.obj
 0002:0000c238       _DIID_DispHTMLBGsound      004b5238     uuid:mshtml_i.obj
 0002:0000c248       _IID_IHTMLBGsound          004b5248     uuid:mshtml_i.obj
 0002:0000c258       _CLSID_HTMLFrameSetSite    004b5258     uuid:mshtml_i.obj
 0002:0000c268       _DIID_DispHTMLFrameSetSite 004b5268     uuid:mshtml_i.obj
 0002:0000c278       _IID_IHTMLFrameSetElement2 004b5278     uuid:mshtml_i.obj
 0002:0000c288       _IID_IHTMLFrameSetElement  004b5288     uuid:mshtml_i.obj
 0002:0000c298       _CLSID_HTMLSpanFlow        004b5298     uuid:mshtml_i.obj
 0002:0000c2a8       _DIID_DispHTMLSpanFlow     004b52a8     uuid:mshtml_i.obj
 0002:0000c2b8       _IID_IHTMLSpanFlow         004b52b8     uuid:mshtml_i.obj
 0002:0000c2c8       _CLSID_HTMLLegendElement   004b52c8     uuid:mshtml_i.obj
 0002:0000c2d8       _DIID_DispHTMLLegendElement 004b52d8     uuid:mshtml_i.obj
 0002:0000c2e8       _CLSID_HTMLFieldSetElement 004b52e8     uuid:mshtml_i.obj
 0002:0000c2f8       _DIID_DispHTMLFieldSetElement 004b52f8     uuid:mshtml_i.obj
 0002:0000c308       _CLSID_HTMLDivPosition     004b5308     uuid:mshtml_i.obj
 0002:0000c318       _DIID_DispHTMLDivPosition  004b5318     uuid:mshtml_i.obj
 0002:0000c328       _IID_IHTMLLegendElement2   004b5328     uuid:mshtml_i.obj
 0002:0000c338       _IID_IHTMLLegendElement    004b5338     uuid:mshtml_i.obj
 0002:0000c348       _IID_IHTMLFieldSetElement2 004b5348     uuid:mshtml_i.obj
 0002:0000c358       _IID_IHTMLFieldSetElement  004b5358     uuid:mshtml_i.obj
 0002:0000c368       _IID_IHTMLDivPosition      004b5368     uuid:mshtml_i.obj
 0002:0000c378       _CLSID_HTMLIFrame          004b5378     uuid:mshtml_i.obj
 0002:0000c388       _DIID_DispHTMLIFrame       004b5388     uuid:mshtml_i.obj
 0002:0000c398       _IID_IHTMLIFrameElement2   004b5398     uuid:mshtml_i.obj
 0002:0000c3a8       _IID_IHTMLIFrameElement    004b53a8     uuid:mshtml_i.obj
 0002:0000c3b8       _CLSID_HTMLFrameElement    004b53b8     uuid:mshtml_i.obj
 0002:0000c3c8       _DIID_DispHTMLFrameElement 004b53c8     uuid:mshtml_i.obj
 0002:0000c3d8       _IID_IHTMLFrameElement2    004b53d8     uuid:mshtml_i.obj
 0002:0000c3e8       _IID_IHTMLFrameElement     004b53e8     uuid:mshtml_i.obj
 0002:0000c3f8       _CLSID_HTMLFrameBase       004b53f8     uuid:mshtml_i.obj
 0002:0000c408       _DIID_DispHTMLFrameBase    004b5408     uuid:mshtml_i.obj
 0002:0000c418       _IID_IHTMLFrameBase3       004b5418     uuid:mshtml_i.obj
 0002:0000c428       _IID_IHTMLFrameBase2       004b5428     uuid:mshtml_i.obj
 0002:0000c438       _DIID_HTMLFrameSiteEvents  004b5438     uuid:mshtml_i.obj
 0002:0000c448       _DIID_HTMLFrameSiteEvents2 004b5448     uuid:mshtml_i.obj
 0002:0000c458       _CLSID_HTMLParamElement    004b5458     uuid:mshtml_i.obj
 0002:0000c468       _DIID_DispHTMLParamElement 004b5468     uuid:mshtml_i.obj
 0002:0000c478       _CLSID_HTMLObjectElement   004b5478     uuid:mshtml_i.obj
 0002:0000c488       _DIID_DispHTMLObjectElement 004b5488     uuid:mshtml_i.obj
 0002:0000c498       _IID_IHTMLParamElement     004b5498     uuid:mshtml_i.obj
 0002:0000c4a8       _IID_IHTMLObjectElement3   004b54a8     uuid:mshtml_i.obj
 0002:0000c4b8       _IID_IHTMLObjectElement2   004b54b8     uuid:mshtml_i.obj
 0002:0000c4c8       _IID_IHTMLObjectElement    004b54c8     uuid:mshtml_i.obj
 0002:0000c4d8       _DIID_HTMLObjectElementEvents 004b54d8     uuid:mshtml_i.obj
 0002:0000c4e8       _DIID_HTMLObjectElementEvents2 004b54e8     uuid:mshtml_i.obj
 0002:0000c4f8       _CLSID_HTMLNoShowElement   004b54f8     uuid:mshtml_i.obj
 0002:0000c508       _DIID_DispHTMLNoShowElement 004b5508     uuid:mshtml_i.obj
 0002:0000c518       _IID_IHTMLNoShowElement    004b5518     uuid:mshtml_i.obj
 0002:0000c528       _CLSID_HTMLScriptElement   004b5528     uuid:mshtml_i.obj
 0002:0000c538       _DIID_DispHTMLScriptElement 004b5538     uuid:mshtml_i.obj
 0002:0000c548       _IID_IHTMLScriptElement2   004b5548     uuid:mshtml_i.obj
 0002:0000c558       _IID_IHTMLScriptElement    004b5558     uuid:mshtml_i.obj
 0002:0000c568       _DIID_HTMLScriptEvents     004b5568     uuid:mshtml_i.obj
 0002:0000c578       _DIID_HTMLScriptEvents2    004b5578     uuid:mshtml_i.obj
 0002:0000c588       _CLSID_HTMLTableCell       004b5588     uuid:mshtml_i.obj
 0002:0000c598       _DIID_DispHTMLTableCell    004b5598     uuid:mshtml_i.obj
 0002:0000c5a8       _CLSID_HTMLTableRow        004b55a8     uuid:mshtml_i.obj
 0002:0000c5b8       _DIID_DispHTMLTableRow     004b55b8     uuid:mshtml_i.obj
 0002:0000c5c8       _CLSID_HTMLTableSection    004b55c8     uuid:mshtml_i.obj
 0002:0000c5d8       _DIID_DispHTMLTableSection 004b55d8     uuid:mshtml_i.obj
 0002:0000c5e8       _CLSID_HTMLTableCol        004b55e8     uuid:mshtml_i.obj
 0002:0000c5f8       _DIID_DispHTMLTableCol     004b55f8     uuid:mshtml_i.obj
 0002:0000c608       _CLSID_HTMLTable           004b5608     uuid:mshtml_i.obj
 0002:0000c618       _DIID_DispHTMLTable        004b5618     uuid:mshtml_i.obj
 0002:0000c628       _IID_IHTMLTableCell2       004b5628     uuid:mshtml_i.obj
 0002:0000c638       _IID_IHTMLTableCell        004b5638     uuid:mshtml_i.obj
 0002:0000c648       _IID_IHTMLTableRowMetrics  004b5648     uuid:mshtml_i.obj
 0002:0000c658       _IID_IHTMLTableRow3        004b5658     uuid:mshtml_i.obj
 0002:0000c668       _IID_IHTMLTableRow2        004b5668     uuid:mshtml_i.obj
 0002:0000c678       _IID_IHTMLTableRow         004b5678     uuid:mshtml_i.obj
 0002:0000c688       _IID_IHTMLTableSection3    004b5688     uuid:mshtml_i.obj
 0002:0000c698       _IID_IHTMLTableSection2    004b5698     uuid:mshtml_i.obj
 0002:0000c6a8       _IID_IHTMLTableCol2        004b56a8     uuid:mshtml_i.obj
 0002:0000c6b8       _IID_IHTMLTableCol         004b56b8     uuid:mshtml_i.obj
 0002:0000c6c8       _IID_IHTMLTable3           004b56c8     uuid:mshtml_i.obj
 0002:0000c6d8       _IID_IHTMLTable2           004b56d8     uuid:mshtml_i.obj
 0002:0000c6e8       _IID_IHTMLTable            004b56e8     uuid:mshtml_i.obj
 0002:0000c6f8       _IID_IHTMLTableSection     004b56f8     uuid:mshtml_i.obj
 0002:0000c708       _DIID_HTMLTableEvents      004b5708     uuid:mshtml_i.obj
 0002:0000c718       _DIID_HTMLTableEvents2     004b5718     uuid:mshtml_i.obj
 0002:0000c728       _CLSID_HTMLSpanElement     004b5728     uuid:mshtml_i.obj
 0002:0000c738       _DIID_DispHTMLSpanElement  004b5738     uuid:mshtml_i.obj
 0002:0000c748       _CLSID_HTMLPhraseElement   004b5748     uuid:mshtml_i.obj
 0002:0000c758       _DIID_DispHTMLPhraseElement 004b5758     uuid:mshtml_i.obj
 0002:0000c768       _IID_IHTMLSpanElement      004b5768     uuid:mshtml_i.obj
 0002:0000c778       _IID_IHTMLPhraseElement2   004b5778     uuid:mshtml_i.obj
 0002:0000c788       _IID_IHTMLPhraseElement    004b5788     uuid:mshtml_i.obj
 0002:0000c798       _CLSID_HTMLCommentElement  004b5798     uuid:mshtml_i.obj
 0002:0000c7a8       _DIID_DispHTMLCommentElement 004b57a8     uuid:mshtml_i.obj
 0002:0000c7b8       _IID_IHTMLCommentElement2  004b57b8     uuid:mshtml_i.obj
 0002:0000c7c8       _IID_IHTMLCommentElement   004b57c8     uuid:mshtml_i.obj
 0002:0000c7d8       _CLSID_HTMLTableCaption    004b57d8     uuid:mshtml_i.obj
 0002:0000c7e8       _DIID_DispHTMLTableCaption 004b57e8     uuid:mshtml_i.obj
 0002:0000c7f8       _IID_IHTMLTableCaption     004b57f8     uuid:mshtml_i.obj
 0002:0000c808       _CLSID_HTMLAreaElement     004b5808     uuid:mshtml_i.obj
 0002:0000c818       _DIID_DispHTMLAreaElement  004b5818     uuid:mshtml_i.obj
 0002:0000c828       _IID_IHTMLAreaElement      004b5828     uuid:mshtml_i.obj
 0002:0000c838       _DIID_HTMLAreaEvents       004b5838     uuid:mshtml_i.obj
 0002:0000c848       _DIID_HTMLAreaEvents2      004b5848     uuid:mshtml_i.obj
 0002:0000c858       _CLSID_HTMLMapElement      004b5858     uuid:mshtml_i.obj
 0002:0000c868       _DIID_DispHTMLMapElement   004b5868     uuid:mshtml_i.obj
 0002:0000c878       _CLSID_HTMLAreasCollection 004b5878     uuid:mshtml_i.obj
 0002:0000c888       _DIID_DispHTMLAreasCollection 004b5888     uuid:mshtml_i.obj
 0002:0000c898       _IID_IHTMLMapElement       004b5898     uuid:mshtml_i.obj
 0002:0000c8a8       _IID_IHTMLAreasCollection3 004b58a8     uuid:mshtml_i.obj
 0002:0000c8b8       _IID_IHTMLAreasCollection2 004b58b8     uuid:mshtml_i.obj
 0002:0000c8c8       _IID_IHTMLAreasCollection  004b58c8     uuid:mshtml_i.obj
 0002:0000c8d8       _DIID_HTMLMapEvents        004b58d8     uuid:mshtml_i.obj
 0002:0000c8e8       _DIID_HTMLMapEvents2       004b58e8     uuid:mshtml_i.obj
 0002:0000c8f8       _CLSID_HTMLEmbed           004b58f8     uuid:mshtml_i.obj
 0002:0000c908       _DIID_DispHTMLEmbed        004b5908     uuid:mshtml_i.obj
 0002:0000c918       _IID_IHTMLEmbedElement     004b5918     uuid:mshtml_i.obj
 0002:0000c928       _CLSID_Scriptlet           004b5928     uuid:mshtml_i.obj
 0002:0000c938       _IID_IWBScriptControl      004b5938     uuid:mshtml_i.obj
 0002:0000c948       _IID_IWebBridge            004b5948     uuid:mshtml_i.obj
 0002:0000c958       _DIID_DWebBridgeEvents     004b5958     uuid:mshtml_i.obj
 0002:0000c968       _CLSID_HTMLDocument        004b5968     uuid:mshtml_i.obj
 0002:0000c978       _DIID_DispHTMLDocument     004b5978     uuid:mshtml_i.obj
 0002:0000c988       _IID_IHTMLDocument5        004b5988     uuid:mshtml_i.obj
 0002:0000c998       _IID_IHTMLDocument4        004b5998     uuid:mshtml_i.obj
 0002:0000c9a8       _IID_IHTMLDocument3        004b59a8     uuid:mshtml_i.obj
 0002:0000c9b8       _DIID_HTMLDocumentEvents   004b59b8     uuid:mshtml_i.obj
 0002:0000c9c8       _DIID_HTMLDocumentEvents2  004b59c8     uuid:mshtml_i.obj
 0002:0000c9d8       _CLSID_HTMLWindowProxy     004b59d8     uuid:mshtml_i.obj
 0002:0000c9e8       _DIID_DispHTMLWindowProxy  004b59e8     uuid:mshtml_i.obj
 0002:0000c9f8       _CLSID_HTMLWindow2         004b59f8     uuid:mshtml_i.obj
 0002:0000ca08       _DIID_DispHTMLWindow2      004b5a08     uuid:mshtml_i.obj
 0002:0000ca18       _CLSID_HTMLScreen          004b5a18     uuid:mshtml_i.obj
 0002:0000ca28       _DIID_DispHTMLScreen       004b5a28     uuid:mshtml_i.obj
 0002:0000ca38       _CLSID_FramesCollection    004b5a38     uuid:mshtml_i.obj
 0002:0000ca48       _IID_IHTMLWindow4          004b5a48     uuid:mshtml_i.obj
 0002:0000ca58       _IID_IHTMLScreen2          004b5a58     uuid:mshtml_i.obj
 0002:0000ca68       _IID_IHTMLScreen           004b5a68     uuid:mshtml_i.obj
 0002:0000ca78       _IID_IHTMLFrameBase        004b5a78     uuid:mshtml_i.obj
 0002:0000ca88       _IID_IHTMLWindow3          004b5a88     uuid:mshtml_i.obj
 0002:0000ca98       _IID_IHTMLWindow2          004b5a98     uuid:mshtml_i.obj
 0002:0000caa8       _IID_IHTMLFramesCollection2 004b5aa8     uuid:mshtml_i.obj
 0002:0000cab8       _IID_IHTMLDocument2        004b5ab8     uuid:mshtml_i.obj
 0002:0000cac8       _DIID_HTMLWindowEvents     004b5ac8     uuid:mshtml_i.obj
 0002:0000cad8       _DIID_HTMLWindowEvents2    004b5ad8     uuid:mshtml_i.obj
 0002:0000cae8       _CLSID_CEventObj           004b5ae8     uuid:mshtml_i.obj
 0002:0000caf8       _DIID_DispCEventObj        004b5af8     uuid:mshtml_i.obj
 0002:0000cb08       _IID_IHTMLEventObj4        004b5b08     uuid:mshtml_i.obj
 0002:0000cb18       _IID_IHTMLEventObj3        004b5b18     uuid:mshtml_i.obj
 0002:0000cb28       _IID_IHTMLEventObj2        004b5b28     uuid:mshtml_i.obj
 0002:0000cb38       _IID_IHTMLDataTransfer     004b5b38     uuid:mshtml_i.obj
 0002:0000cb48       _IID_IHTMLBookmarkCollection 004b5b48     uuid:mshtml_i.obj
 0002:0000cb58       _CLSID_HTMLLocation        004b5b58     uuid:mshtml_i.obj
 0002:0000cb68       _CLSID_HTMLNavigator       004b5b68     uuid:mshtml_i.obj
 0002:0000cb78       _CLSID_COpsProfile         004b5b78     uuid:mshtml_i.obj
 0002:0000cb88       _CLSID_CPlugins            004b5b88     uuid:mshtml_i.obj
 0002:0000cb98       _CLSID_CMimeTypes          004b5b98     uuid:mshtml_i.obj
 0002:0000cba8       _CLSID_HTMLHistory         004b5ba8     uuid:mshtml_i.obj
 0002:0000cbb8       _IID_IHTMLLocation         004b5bb8     uuid:mshtml_i.obj
 0002:0000cbc8       _IID_IOmNavigator          004b5bc8     uuid:mshtml_i.obj
 0002:0000cbd8       _IID_IHTMLOpsProfile       004b5bd8     uuid:mshtml_i.obj
 0002:0000cbe8       _IID_IHTMLPluginsCollection 004b5be8     uuid:mshtml_i.obj
 0002:0000cbf8       _IID_IHTMLMimeTypesCollection 004b5bf8     uuid:mshtml_i.obj
 0002:0000cc08       _IID_IOmHistory            004b5c08     uuid:mshtml_i.obj
 0002:0000cc18       _CLSID_HTMLUnknownElement  004b5c18     uuid:mshtml_i.obj
 0002:0000cc28       _DIID_DispHTMLUnknownElement 004b5c28     uuid:mshtml_i.obj
 0002:0000cc38       _IID_IHTMLUnknownElement   004b5c38     uuid:mshtml_i.obj
 0002:0000cc48       _CLSID_HTMLBaseFontElement 004b5c48     uuid:mshtml_i.obj
 0002:0000cc58       _DIID_DispHTMLBaseFontElement 004b5c58     uuid:mshtml_i.obj
 0002:0000cc68       _IID_IHTMLBaseFontElement  004b5c68     uuid:mshtml_i.obj
 0002:0000cc78       _CLSID_HTMLNextIdElement   004b5c78     uuid:mshtml_i.obj
 0002:0000cc88       _DIID_DispHTMLNextIdElement 004b5c88     uuid:mshtml_i.obj
 0002:0000cc98       _CLSID_HTMLIsIndexElement  004b5c98     uuid:mshtml_i.obj
 0002:0000cca8       _DIID_DispHTMLIsIndexElement 004b5ca8     uuid:mshtml_i.obj
 0002:0000ccb8       _CLSID_HTMLBaseElement     004b5cb8     uuid:mshtml_i.obj
 0002:0000ccc8       _DIID_DispHTMLBaseElement  004b5cc8     uuid:mshtml_i.obj
 0002:0000ccd8       _CLSID_HTMLMetaElement     004b5cd8     uuid:mshtml_i.obj
 0002:0000cce8       _DIID_DispHTMLMetaElement  004b5ce8     uuid:mshtml_i.obj
 0002:0000ccf8       _CLSID_HTMLTitleElement    004b5cf8     uuid:mshtml_i.obj
 0002:0000cd08       _DIID_DispHTMLTitleElement 004b5d08     uuid:mshtml_i.obj
 0002:0000cd18       _CLSID_HTMLHeadElement     004b5d18     uuid:mshtml_i.obj
 0002:0000cd28       _DIID_DispHTMLHeadElement  004b5d28     uuid:mshtml_i.obj
 0002:0000cd38       _CLSID_HTMLHtmlElement     004b5d38     uuid:mshtml_i.obj
 0002:0000cd48       _DIID_DispHTMLHtmlElement  004b5d48     uuid:mshtml_i.obj
 0002:0000cd58       _IID_IHTMLNextIdElement    004b5d58     uuid:mshtml_i.obj
 0002:0000cd68       _IID_IHTMLIsIndexElement2  004b5d68     uuid:mshtml_i.obj
 0002:0000cd78       _IID_IHTMLIsIndexElement   004b5d78     uuid:mshtml_i.obj
 0002:0000cd88       _IID_IHTMLBaseElement      004b5d88     uuid:mshtml_i.obj
 0002:0000cd98       _IID_IHTMLMetaElement2     004b5d98     uuid:mshtml_i.obj
 0002:0000cda8       _IID_IHTMLMetaElement      004b5da8     uuid:mshtml_i.obj
 0002:0000cdb8       _IID_IHTMLTitleElement     004b5db8     uuid:mshtml_i.obj
 0002:0000cdc8       _IID_IHTMLHeadElement      004b5dc8     uuid:mshtml_i.obj
 0002:0000cdd8       _IID_IHTMLHtmlElement      004b5dd8     uuid:mshtml_i.obj
 0002:0000cde8       _CLSID_HTMLMarqueeElement  004b5de8     uuid:mshtml_i.obj
 0002:0000cdf8       _DIID_DispHTMLMarqueeElement 004b5df8     uuid:mshtml_i.obj
 0002:0000ce08       _IID_IHTMLMarqueeElement   004b5e08     uuid:mshtml_i.obj
 0002:0000ce18       _DIID_HTMLMarqueeElementEvents 004b5e18     uuid:mshtml_i.obj
 0002:0000ce28       _DIID_HTMLMarqueeElementEvents2 004b5e28     uuid:mshtml_i.obj
 0002:0000ce38       _CLSID_HTMLButtonElement   004b5e38     uuid:mshtml_i.obj
 0002:0000ce48       _DIID_DispHTMLButtonElement 004b5e48     uuid:mshtml_i.obj
 0002:0000ce58       _IID_IHTMLButtonElement    004b5e58     uuid:mshtml_i.obj
 0002:0000ce68       _CLSID_HTMLRichtextElement 004b5e68     uuid:mshtml_i.obj
 0002:0000ce78       _DIID_DispHTMLRichtextElement 004b5e78     uuid:mshtml_i.obj
 0002:0000ce88       _CLSID_HTMLTextAreaElement 004b5e88     uuid:mshtml_i.obj
 0002:0000ce98       _DIID_DispHTMLTextAreaElement 004b5e98     uuid:mshtml_i.obj
 0002:0000cea8       _IID_IHTMLTextAreaElement  004b5ea8     uuid:mshtml_i.obj
 0002:0000ceb8       _CLSID_HTMLInputElement    004b5eb8     uuid:mshtml_i.obj
 0002:0000cec8       _DIID_DispHTMLInputElement 004b5ec8     uuid:mshtml_i.obj
 0002:0000ced8       _IID_IHTMLInputImage       004b5ed8     uuid:mshtml_i.obj
 0002:0000cee8       _IID_IHTMLOptionButtonElement 004b5ee8     uuid:mshtml_i.obj
 0002:0000cef8       _IID_IHTMLInputFileElement 004b5ef8     uuid:mshtml_i.obj
 0002:0000cf08       _IID_IHTMLInputTextElement 004b5f08     uuid:mshtml_i.obj
 0002:0000cf18       _IID_IHTMLInputHiddenElement 004b5f18     uuid:mshtml_i.obj
 0002:0000cf28       _IID_IHTMLInputButtonElement 004b5f28     uuid:mshtml_i.obj
 0002:0000cf38       _IID_IHTMLInputElement2    004b5f38     uuid:mshtml_i.obj
 0002:0000cf48       _IID_IHTMLInputElement     004b5f48     uuid:mshtml_i.obj
 0002:0000cf58       _DIID_HTMLInputImageEvents 004b5f58     uuid:mshtml_i.obj
 0002:0000cf68       _DIID_HTMLInputFileElementEvents 004b5f68     uuid:mshtml_i.obj
 0002:0000cf78       _DIID_HTMLOptionButtonElementEvents 004b5f78     uuid:mshtml_i.obj
 0002:0000cf88       _DIID_HTMLInputTextElementEvents 004b5f88     uuid:mshtml_i.obj
 0002:0000cf98       _DIID_HTMLInputImageEvents2 004b5f98     uuid:mshtml_i.obj
 0002:0000cfa8       _DIID_HTMLInputFileElementEvents2 004b5fa8     uuid:mshtml_i.obj
 0002:0000cfb8       _DIID_HTMLOptionButtonElementEvents2 004b5fb8     uuid:mshtml_i.obj
 0002:0000cfc8       _DIID_HTMLInputTextElementEvents2 004b5fc8     uuid:mshtml_i.obj
 0002:0000cfd8       _DIID_HTMLButtonElementEvents 004b5fd8     uuid:mshtml_i.obj
 0002:0000cfe8       _DIID_HTMLButtonElementEvents2 004b5fe8     uuid:mshtml_i.obj
 0002:0000cff8       _CLSID_HTMLOptionElementFactory 004b5ff8     uuid:mshtml_i.obj
 0002:0000d008       _CLSID_HTMLOptionElement   004b6008     uuid:mshtml_i.obj
 0002:0000d018       _DIID_DispHTMLOptionElement 004b6018     uuid:mshtml_i.obj
 0002:0000d028       _IID_IHTMLOptionElementFactory 004b6028     uuid:mshtml_i.obj
 0002:0000d038       _IID_IHTMLOptionElement3   004b6038     uuid:mshtml_i.obj
 0002:0000d048       _IID_IHTMLOptionElement    004b6048     uuid:mshtml_i.obj
 0002:0000d058       _IID_IHTMLSelectionObject2 004b6058     uuid:mshtml_i.obj
 0002:0000d068       _IID_IHTMLSelectionObject  004b6068     uuid:mshtml_i.obj
 0002:0000d078       _CLSID_HTMLSelectElement   004b6078     uuid:mshtml_i.obj
 0002:0000d088       _DIID_DispHTMLSelectElement 004b6088     uuid:mshtml_i.obj
 0002:0000d098       _IID_IHTMLSelectElement4   004b6098     uuid:mshtml_i.obj
 0002:0000d0a8       _IID_IHTMLSelectElement2   004b60a8     uuid:mshtml_i.obj
 0002:0000d0b8       _IID_IHTMLSelectElement    004b60b8     uuid:mshtml_i.obj
 0002:0000d0c8       _DIID_HTMLSelectElementEvents 004b60c8     uuid:mshtml_i.obj
 0002:0000d0d8       _DIID_HTMLSelectElementEvents2 004b60d8     uuid:mshtml_i.obj
 0002:0000d0e8       _CLSID_HTMLHeaderElement   004b60e8     uuid:mshtml_i.obj
 0002:0000d0f8       _DIID_DispHTMLHeaderElement 004b60f8     uuid:mshtml_i.obj
 0002:0000d108       _IID_IHTMLHeaderElement    004b6108     uuid:mshtml_i.obj
 0002:0000d118       _CLSID_HTMLElementCollection 004b6118     uuid:mshtml_i.obj
 0002:0000d128       _DIID_DispHTMLElementCollection 004b6128     uuid:mshtml_i.obj
 0002:0000d138       _IID_IHTMLElementCollection3 004b6138     uuid:mshtml_i.obj
 0002:0000d148       _IID_IHTMLElementCollection2 004b6148     uuid:mshtml_i.obj
 0002:0000d158       _CLSID_HTMLParaElement     004b6158     uuid:mshtml_i.obj
 0002:0000d168       _DIID_DispHTMLParaElement  004b6168     uuid:mshtml_i.obj
 0002:0000d178       _IID_IHTMLParaElement      004b6178     uuid:mshtml_i.obj
 0002:0000d188       _CLSID_HTMLHRElement       004b6188     uuid:mshtml_i.obj
 0002:0000d198       _DIID_DispHTMLHRElement    004b6198     uuid:mshtml_i.obj
 0002:0000d1a8       _IID_IHTMLHRElement        004b61a8     uuid:mshtml_i.obj
 0002:0000d1b8       _CLSID_HTMLDListElement    004b61b8     uuid:mshtml_i.obj
 0002:0000d1c8       _DIID_DispHTMLDListElement 004b61c8     uuid:mshtml_i.obj
 0002:0000d1d8       _IID_IHTMLDListElement     004b61d8     uuid:mshtml_i.obj
 0002:0000d1e8       _CLSID_HTMLBRElement       004b61e8     uuid:mshtml_i.obj
 0002:0000d1f8       _DIID_DispHTMLBRElement    004b61f8     uuid:mshtml_i.obj
 0002:0000d208       _IID_IHTMLBRElement        004b6208     uuid:mshtml_i.obj
 0002:0000d218       _CLSID_HTMLDTElement       004b6218     uuid:mshtml_i.obj
 0002:0000d228       _DIID_DispHTMLDTElement    004b6228     uuid:mshtml_i.obj
 0002:0000d238       _IID_IHTMLDTElement        004b6238     uuid:mshtml_i.obj
 0002:0000d248       _CLSID_HTMLDDElement       004b6248     uuid:mshtml_i.obj
 0002:0000d258       _DIID_DispHTMLDDElement    004b6258     uuid:mshtml_i.obj
 0002:0000d268       _IID_IHTMLDDElement        004b6268     uuid:mshtml_i.obj
 0002:0000d278       _CLSID_HTMLDivElement      004b6278     uuid:mshtml_i.obj
 0002:0000d288       _DIID_DispHTMLDivElement   004b6288     uuid:mshtml_i.obj
 0002:0000d298       _IID_IHTMLDivElement       004b6298     uuid:mshtml_i.obj
 0002:0000d2a8       _CLSID_HTMLBlockElement    004b62a8     uuid:mshtml_i.obj
 0002:0000d2b8       _DIID_DispHTMLBlockElement 004b62b8     uuid:mshtml_i.obj
 0002:0000d2c8       _IID_IHTMLBlockElement2    004b62c8     uuid:mshtml_i.obj
 0002:0000d2d8       _IID_IHTMLBlockElement     004b62d8     uuid:mshtml_i.obj
 0002:0000d2e8       _CLSID_HTMLLIElement       004b62e8     uuid:mshtml_i.obj
 0002:0000d2f8       _DIID_DispHTMLLIElement    004b62f8     uuid:mshtml_i.obj
 0002:0000d308       _IID_IHTMLLIElement        004b6308     uuid:mshtml_i.obj
 0002:0000d318       _CLSID_HTMLOListElement    004b6318     uuid:mshtml_i.obj
 0002:0000d328       _DIID_DispHTMLOListElement 004b6328     uuid:mshtml_i.obj
 0002:0000d338       _IID_IHTMLOListElement     004b6338     uuid:mshtml_i.obj
 0002:0000d348       _CLSID_HTMLUListElement    004b6348     uuid:mshtml_i.obj
 0002:0000d358       _DIID_DispHTMLUListElement 004b6358     uuid:mshtml_i.obj
 0002:0000d368       _IID_IHTMLUListElement     004b6368     uuid:mshtml_i.obj
 0002:0000d378       _CLSID_HTMLListElement     004b6378     uuid:mshtml_i.obj
 0002:0000d388       _DIID_DispHTMLListElement  004b6388     uuid:mshtml_i.obj
 0002:0000d398       _IID_IHTMLListElement2     004b6398     uuid:mshtml_i.obj
 0002:0000d3a8       _IID_IHTMLListElement      004b63a8     uuid:mshtml_i.obj
 0002:0000d3b8       _CLSID_HTMLLabelElement    004b63b8     uuid:mshtml_i.obj
 0002:0000d3c8       _DIID_DispHTMLLabelElement 004b63c8     uuid:mshtml_i.obj
 0002:0000d3d8       _IID_IHTMLLabelElement2    004b63d8     uuid:mshtml_i.obj
 0002:0000d3e8       _IID_IHTMLLabelElement     004b63e8     uuid:mshtml_i.obj
 0002:0000d3f8       _DIID_HTMLLabelEvents      004b63f8     uuid:mshtml_i.obj
 0002:0000d408       _DIID_HTMLLabelEvents2     004b6408     uuid:mshtml_i.obj
 0002:0000d418       _CLSID_HTMLAnchorElement   004b6418     uuid:mshtml_i.obj
 0002:0000d428       _DIID_DispHTMLAnchorElement 004b6428     uuid:mshtml_i.obj
 0002:0000d438       _IID_IHTMLAnchorElement2   004b6438     uuid:mshtml_i.obj
 0002:0000d448       _IID_IHTMLAnchorElement    004b6448     uuid:mshtml_i.obj
 0002:0000d458       _DIID_HTMLAnchorEvents     004b6458     uuid:mshtml_i.obj
 0002:0000d468       _DIID_HTMLAnchorEvents2    004b6468     uuid:mshtml_i.obj
 0002:0000d478       _CLSID_HTMLFontElement     004b6478     uuid:mshtml_i.obj
 0002:0000d488       _DIID_DispHTMLFontElement  004b6488     uuid:mshtml_i.obj
 0002:0000d498       _IID_IHTMLFontElement      004b6498     uuid:mshtml_i.obj
 0002:0000d4a8       _CLSID_HTMLBody            004b64a8     uuid:mshtml_i.obj
 0002:0000d4b8       _DIID_DispHTMLBody         004b64b8     uuid:mshtml_i.obj
 0002:0000d4c8       _IID_IHTMLBodyElement2     004b64c8     uuid:mshtml_i.obj
 0002:0000d4d8       _IID_IHTMLBodyElement      004b64d8     uuid:mshtml_i.obj
 0002:0000d4e8       _CLSID_HTMLImageElementFactory 004b64e8     uuid:mshtml_i.obj
 0002:0000d4f8       _CLSID_HTMLImg             004b64f8     uuid:mshtml_i.obj
 0002:0000d508       _DIID_DispHTMLImg          004b6508     uuid:mshtml_i.obj
 0002:0000d518       _IID_IHTMLImageElementFactory 004b6518     uuid:mshtml_i.obj
 0002:0000d528       _IID_IHTMLImgElement2      004b6528     uuid:mshtml_i.obj
 0002:0000d538       _IID_IHTMLImgElement       004b6538     uuid:mshtml_i.obj
 0002:0000d548       _DIID_HTMLImgEvents        004b6548     uuid:mshtml_i.obj
 0002:0000d558       _DIID_HTMLImgEvents2       004b6558     uuid:mshtml_i.obj
 0002:0000d568       _IID_IHTMLControlRange2    004b6568     uuid:mshtml_i.obj
 0002:0000d578       _IID_IHTMLControlRange     004b6578     uuid:mshtml_i.obj
 0002:0000d588       _IID_IHTMLTextContainer    004b6588     uuid:mshtml_i.obj
 0002:0000d598       _DIID_HTMLTextContainerEvents 004b6598     uuid:mshtml_i.obj
 0002:0000d5a8       _DIID_HTMLTextContainerEvents2 004b65a8     uuid:mshtml_i.obj
 0002:0000d5b8       _CLSID_HTMLTextElement     004b65b8     uuid:mshtml_i.obj
 0002:0000d5c8       _DIID_DispHTMLTextElement  004b65c8     uuid:mshtml_i.obj
 0002:0000d5d8       _IID_IHTMLTextElement      004b65d8     uuid:mshtml_i.obj
 0002:0000d5e8       _IID_IHTMLControlElement   004b65e8     uuid:mshtml_i.obj
 0002:0000d5f8       _DIID_HTMLControlElementEvents 004b65f8     uuid:mshtml_i.obj
 0002:0000d608       _DIID_HTMLControlElementEvents2 004b6608     uuid:mshtml_i.obj
 0002:0000d618       _CLSID_HTMLFormElement     004b6618     uuid:mshtml_i.obj
 0002:0000d628       _DIID_DispHTMLFormElement  004b6628     uuid:mshtml_i.obj
 0002:0000d638       _IID_IHTMLSubmitData       004b6638     uuid:mshtml_i.obj
 0002:0000d648       _IID_IHTMLFormElement3     004b6648     uuid:mshtml_i.obj
 0002:0000d658       _IID_IHTMLFormElement2     004b6658     uuid:mshtml_i.obj
 0002:0000d668       _IID_IHTMLFormElement      004b6668     uuid:mshtml_i.obj
 0002:0000d678       _DIID_HTMLFormElementEvents 004b6678     uuid:mshtml_i.obj
 0002:0000d688       _DIID_HTMLFormElementEvents2 004b6688     uuid:mshtml_i.obj
 0002:0000d698       _IID_IHTMLTxtRangeCollection 004b6698     uuid:mshtml_i.obj
 0002:0000d6a8       _IID_IHTMLTextRangeMetrics2 004b66a8     uuid:mshtml_i.obj
 0002:0000d6b8       _IID_IHTMLTextRangeMetrics 004b66b8     uuid:mshtml_i.obj
 0002:0000d6c8       _IID_IHTMLTxtRange         004b66c8     uuid:mshtml_i.obj
 0002:0000d6d8       _CLSID_HTMLLinkElement     004b66d8     uuid:mshtml_i.obj
 0002:0000d6e8       _DIID_DispHTMLLinkElement  004b66e8     uuid:mshtml_i.obj
 0002:0000d6f8       _IID_IHTMLLinkElement3     004b66f8     uuid:mshtml_i.obj
 0002:0000d708       _IID_IHTMLLinkElement2     004b6708     uuid:mshtml_i.obj
 0002:0000d718       _IID_IHTMLLinkElement      004b6718     uuid:mshtml_i.obj
 0002:0000d728       _DIID_HTMLLinkElementEvents 004b6728     uuid:mshtml_i.obj
 0002:0000d738       _DIID_HTMLLinkElementEvents2 004b6738     uuid:mshtml_i.obj
 0002:0000d748       _CLSID_HTMLStyleSheetsCollection 004b6748     uuid:mshtml_i.obj
 0002:0000d758       _CLSID_HTMLStyleSheet      004b6758     uuid:mshtml_i.obj
 0002:0000d768       _DIID_DispHTMLStyleSheet   004b6768     uuid:mshtml_i.obj
 0002:0000d778       _IID_IHTMLStyleSheet2      004b6778     uuid:mshtml_i.obj
 0002:0000d788       _IID_IHTMLStyleSheet       004b6788     uuid:mshtml_i.obj
 0002:0000d798       _IID_IHTMLStyleSheetsCollection 004b6798     uuid:mshtml_i.obj
 0002:0000d7a8       _CLSID_HTMLStyleSheetPagesCollection 004b67a8     uuid:mshtml_i.obj
 0002:0000d7b8       _CLSID_HTMLStyleSheetPage  004b67b8     uuid:mshtml_i.obj
 0002:0000d7c8       _IID_IHTMLStyleSheetPagesCollection 004b67c8     uuid:mshtml_i.obj
 0002:0000d7d8       _IID_IHTMLStyleSheetPage   004b67d8     uuid:mshtml_i.obj
 0002:0000d7e8       _CLSID_HTMLStyleSheetRulesCollection 004b67e8     uuid:mshtml_i.obj
 0002:0000d7f8       _CLSID_HTMLStyleSheetRule  004b67f8     uuid:mshtml_i.obj
 0002:0000d808       _IID_IHTMLStyleSheetRulesCollection 004b6808     uuid:mshtml_i.obj
 0002:0000d818       _IID_IHTMLStyleSheetRule   004b6818     uuid:mshtml_i.obj
 0002:0000d828       _CLSID_HTMLGenericElement  004b6828     uuid:mshtml_i.obj
 0002:0000d838       _DIID_DispHTMLGenericElement 004b6838     uuid:mshtml_i.obj
 0002:0000d848       _IID_IHTMLGenericElement   004b6848     uuid:mshtml_i.obj
 0002:0000d858       _CLSID_HTMLUrnCollection   004b6858     uuid:mshtml_i.obj
 0002:0000d868       _IID_IHTMLUrnCollection    004b6868     uuid:mshtml_i.obj
 0002:0000d878       _CLSID_HTCDescBehavior     004b6878     uuid:mshtml_i.obj
 0002:0000d888       _DIID_DispHTCDescBehavior  004b6888     uuid:mshtml_i.obj
 0002:0000d898       _CLSID_HTCAttachBehavior   004b6898     uuid:mshtml_i.obj
 0002:0000d8a8       _DIID_DispHTCAttachBehavior 004b68a8     uuid:mshtml_i.obj
 0002:0000d8b8       _CLSID_HTCEventBehavior    004b68b8     uuid:mshtml_i.obj
 0002:0000d8c8       _DIID_DispHTCEventBehavior 004b68c8     uuid:mshtml_i.obj
 0002:0000d8d8       _CLSID_HTCMethodBehavior   004b68d8     uuid:mshtml_i.obj
 0002:0000d8e8       _DIID_DispHTCMethodBehavior 004b68e8     uuid:mshtml_i.obj
 0002:0000d8f8       _CLSID_HTCPropertyBehavior 004b68f8     uuid:mshtml_i.obj
 0002:0000d908       _DIID_DispHTCPropertyBehavior 004b6908     uuid:mshtml_i.obj
 0002:0000d918       _CLSID_HTCDefaultDispatch  004b6918     uuid:mshtml_i.obj
 0002:0000d928       _DIID_DispHTCDefaultDispatch 004b6928     uuid:mshtml_i.obj
 0002:0000d938       _IID_IHTCDescBehavior      004b6938     uuid:mshtml_i.obj
 0002:0000d948       _IID_IHTCAttachBehavior2   004b6948     uuid:mshtml_i.obj
 0002:0000d958       _IID_IHTCAttachBehavior    004b6958     uuid:mshtml_i.obj
 0002:0000d968       _IID_IHTCEventBehavior     004b6968     uuid:mshtml_i.obj
 0002:0000d978       _IID_IHTCMethodBehavior    004b6978     uuid:mshtml_i.obj
 0002:0000d988       _IID_IHTCPropertyBehavior  004b6988     uuid:mshtml_i.obj
 0002:0000d998       _IID_IHTCDefaultDispatch   004b6998     uuid:mshtml_i.obj
 0002:0000d9a8       _CLSID_HTMLDefaults        004b69a8     uuid:mshtml_i.obj
 0002:0000d9b8       _DIID_DispHTMLDefaults     004b69b8     uuid:mshtml_i.obj
 0002:0000d9c8       _IID_IHTMLElementDefaults  004b69c8     uuid:mshtml_i.obj
 0002:0000d9d8       _IID_IHTMLDocument         004b69d8     uuid:mshtml_i.obj
 0002:0000d9e8       _IID_IHTMLDatabinding      004b69e8     uuid:mshtml_i.obj
 0002:0000d9f8       _IID_IHTMLUniqueName       004b69f8     uuid:mshtml_i.obj
 0002:0000da08       _IID_IHTMLElementRender    004b6a08     uuid:mshtml_i.obj
 0002:0000da18       _IID_IHTMLElement4         004b6a18     uuid:mshtml_i.obj
 0002:0000da28       _IID_IHTMLElement3         004b6a28     uuid:mshtml_i.obj
 0002:0000da38       _IID_IHTMLElement2         004b6a38     uuid:mshtml_i.obj
 0002:0000da48       _IID_IHTMLElementCollection 004b6a48     uuid:mshtml_i.obj
 0002:0000da58       _DIID_HTMLElementEvents    004b6a58     uuid:mshtml_i.obj
 0002:0000da68       _DIID_HTMLElementEvents2   004b6a68     uuid:mshtml_i.obj
 0002:0000da78       _CLSID_DOMChildrenCollection 004b6a78     uuid:mshtml_i.obj
 0002:0000da88       _DIID_DispDOMChildrenCollection 004b6a88     uuid:mshtml_i.obj
 0002:0000da98       _CLSID_HTMLAttributeCollection 004b6a98     uuid:mshtml_i.obj
 0002:0000daa8       _DIID_DispHTMLAttributeCollection 004b6aa8     uuid:mshtml_i.obj
 0002:0000dab8       _IID_IHTMLDOMChildrenCollection 004b6ab8     uuid:mshtml_i.obj
 0002:0000dac8       _IID_IHTMLAttributeCollection2 004b6ac8     uuid:mshtml_i.obj
 0002:0000dad8       _IID_IHTMLAttributeCollection 004b6ad8     uuid:mshtml_i.obj
 0002:0000dae8       _CLSID_HTMLDOMImplementation 004b6ae8     uuid:mshtml_i.obj
 0002:0000daf8       _DIID_DispHTMLDOMImplementation 004b6af8     uuid:mshtml_i.obj
 0002:0000db08       _CLSID_HTMLDOMTextNode     004b6b08     uuid:mshtml_i.obj
 0002:0000db18       _DIID_DispHTMLDOMTextNode  004b6b18     uuid:mshtml_i.obj
 0002:0000db28       _CLSID_HTMLDOMAttribute    004b6b28     uuid:mshtml_i.obj
 0002:0000db38       _DIID_DispHTMLDOMAttribute 004b6b38     uuid:mshtml_i.obj
 0002:0000db48       _IID_IHTMLDOMImplementation 004b6b48     uuid:mshtml_i.obj
 0002:0000db58       _IID_IHTMLDOMTextNode2     004b6b58     uuid:mshtml_i.obj
 0002:0000db68       _IID_IHTMLDOMTextNode      004b6b68     uuid:mshtml_i.obj
 0002:0000db78       _IID_IHTMLDOMAttribute2    004b6b78     uuid:mshtml_i.obj
 0002:0000db88       _IID_IHTMLDOMAttribute     004b6b88     uuid:mshtml_i.obj
 0002:0000db98       _IID_IHTMLDOMNode2         004b6b98     uuid:mshtml_i.obj
 0002:0000dba8       _IID_IHTMLDOMNode          004b6ba8     uuid:mshtml_i.obj
 0002:0000dbb8       _IID_IHTMLRectCollection   004b6bb8     uuid:mshtml_i.obj
 0002:0000dbc8       _IID_IHTMLRect             004b6bc8     uuid:mshtml_i.obj
 0002:0000dbd8       _IID_IHTMLElement          004b6bd8     uuid:mshtml_i.obj
 0002:0000dbe8       _CLSID_HTMLCurrentStyle    004b6be8     uuid:mshtml_i.obj
 0002:0000dbf8       _DIID_DispHTMLCurrentStyle 004b6bf8     uuid:mshtml_i.obj
 0002:0000dc08       _IID_IHTMLCurrentStyle3    004b6c08     uuid:mshtml_i.obj
 0002:0000dc18       _IID_IHTMLCurrentStyle2    004b6c18     uuid:mshtml_i.obj
 0002:0000dc28       _IID_IHTMLCurrentStyle     004b6c28     uuid:mshtml_i.obj
 0002:0000dc38       _CLSID_HTMLRenderStyle     004b6c38     uuid:mshtml_i.obj
 0002:0000dc48       _DIID_DispHTMLRenderStyle  004b6c48     uuid:mshtml_i.obj
 0002:0000dc58       _IID_IHTMLRenderStyle      004b6c58     uuid:mshtml_i.obj
 0002:0000dc68       _CLSID_HTMLRuleStyle       004b6c68     uuid:mshtml_i.obj
 0002:0000dc78       _DIID_DispHTMLRuleStyle    004b6c78     uuid:mshtml_i.obj
 0002:0000dc88       _CLSID_HTMLStyle           004b6c88     uuid:mshtml_i.obj
 0002:0000dc98       _DIID_DispHTMLStyle        004b6c98     uuid:mshtml_i.obj
 0002:0000dca8       _IID_IHTMLRuleStyle4       004b6ca8     uuid:mshtml_i.obj
 0002:0000dcb8       _IID_IHTMLRuleStyle3       004b6cb8     uuid:mshtml_i.obj
 0002:0000dcc8       _IID_IHTMLRuleStyle2       004b6cc8     uuid:mshtml_i.obj
 0002:0000dcd8       _IID_IHTMLRuleStyle        004b6cd8     uuid:mshtml_i.obj
 0002:0000dce8       _IID_IHTMLStyle4           004b6ce8     uuid:mshtml_i.obj
 0002:0000dcf8       _IID_IHTMLStyle3           004b6cf8     uuid:mshtml_i.obj
 0002:0000dd08       _IID_IHTMLStyle2           004b6d08     uuid:mshtml_i.obj
 0002:0000dd18       _IID_IHTMLStyle            004b6d18     uuid:mshtml_i.obj
 0002:0000dd28       _IID_IElementBehaviorSiteRender 004b6d28     uuid:mshtml_i.obj
 0002:0000dd38       _IID_IElementBehaviorRender 004b6d38     uuid:mshtml_i.obj
 0002:0000dd48       _IID_IElementBehaviorSiteOM 004b6d48     uuid:mshtml_i.obj
 0002:0000dd58       _IID_IElementBehaviorFactory 004b6d58     uuid:mshtml_i.obj
 0002:0000dd68       _IID_IElementBehavior      004b6d68     uuid:mshtml_i.obj
 0002:0000dd78       _IID_IElementBehaviorSite  004b6d78     uuid:mshtml_i.obj
 0002:0000dd88       _IID_IHTMLEventObj         004b6d88     uuid:mshtml_i.obj
 0002:0000dd98       _LIBID_MSHTML              004b6d98     uuid:mshtml_i.obj
 0002:0000dda8       _IID_IHTMLFiltersCollection 004b6da8     uuid:mshtml_i.obj
 0002:0000ddb8       _CLSID_SearchAssistantOC   004b6db8     uuid:exdisp_i.obj
 0002:0000ddc8       _DIID__SearchAssistantEvents 004b6dc8     uuid:exdisp_i.obj
 0002:0000ddd8       _IID_ISearchAssistantOC3   004b6dd8     uuid:exdisp_i.obj
 0002:0000dde8       _IID_ISearchAssistantOC2   004b6de8     uuid:exdisp_i.obj
 0002:0000ddf8       _IID_ISearchAssistantOC    004b6df8     uuid:exdisp_i.obj
 0002:0000de08       _IID_ISearches             004b6e08     uuid:exdisp_i.obj
 0002:0000de18       _IID_ISearch               004b6e18     uuid:exdisp_i.obj
 0002:0000de28       _CLSID_CScriptErrorList    004b6e28     uuid:exdisp_i.obj
 0002:0000de38       _IID_IScriptErrorList      004b6e38     uuid:exdisp_i.obj
 0002:0000de48       _CLSID_ShellNameSpace      004b6e48     uuid:exdisp_i.obj
 0002:0000de58       _IID_IShellNameSpace       004b6e58     uuid:exdisp_i.obj
 0002:0000de68       _IID_IShellFavoritesNameSpace 004b6e68     uuid:exdisp_i.obj
 0002:0000de78       _DIID_DShellNameSpaceEvents 004b6e78     uuid:exdisp_i.obj
 0002:0000de88       _CLSID_ShellUIHelper       004b6e88     uuid:exdisp_i.obj
 0002:0000de98       _IID_IShellUIHelper        004b6e98     uuid:exdisp_i.obj
 0002:0000dea8       _CLSID_ShellWindows        004b6ea8     uuid:exdisp_i.obj
 0002:0000deb8       _IID_IShellWindows         004b6eb8     uuid:exdisp_i.obj
 0002:0000dec8       _DIID_DShellWindowsEvents  004b6ec8     uuid:exdisp_i.obj
 0002:0000ded8       _CLSID_ShellBrowserWindow  004b6ed8     uuid:exdisp_i.obj
 0002:0000dee8       _CLSID_InternetExplorer    004b6ee8     uuid:exdisp_i.obj
 0002:0000def8       _CLSID_WebBrowser          004b6ef8     uuid:exdisp_i.obj
 0002:0000df08       _CLSID_WebBrowser_V1       004b6f08     uuid:exdisp_i.obj
 0002:0000df18       _DIID_DWebBrowserEvents2   004b6f18     uuid:exdisp_i.obj
 0002:0000df28       _IID_IWebBrowser2          004b6f28     uuid:exdisp_i.obj
 0002:0000df38       _IID_IWebBrowserApp        004b6f38     uuid:exdisp_i.obj
 0002:0000df48       _DIID_DWebBrowserEvents    004b6f48     uuid:exdisp_i.obj
 0002:0000df58       _IID_IWebBrowser           004b6f58     uuid:exdisp_i.obj
 0002:0000df68       _LIBID_SHDocVw             004b6f68     uuid:exdisp_i.obj
 0002:0000df78       _IID_IProcessInitControl   004b6f78     uuid:objidl_i.obj
 0002:0000df88       _IID_IComThreadingInfo     004b6f88     uuid:objidl_i.obj
 0002:0000df98       _IID_IDummyHICONIncluder   004b6f98     uuid:objidl_i.obj
 0002:0000dfa8       _IID_IThumbnailExtractor   004b6fa8     uuid:objidl_i.obj
 0002:0000dfb8       _IID_AsyncIPipeDouble      004b6fb8     uuid:objidl_i.obj
 0002:0000dfc8       _IID_IPipeDouble           004b6fc8     uuid:objidl_i.obj
 0002:0000dfd8       _IID_AsyncIPipeLong        004b6fd8     uuid:objidl_i.obj
 0002:0000dfe8       _IID_IPipeLong             004b6fe8     uuid:objidl_i.obj
 0002:0000dff8       _IID_AsyncIPipeByte        004b6ff8     uuid:objidl_i.obj
 0002:0000e008       _IID_IPipeByte             004b7008     uuid:objidl_i.obj
 0002:0000e018       _IID_IAddrExclusionControl 004b7018     uuid:objidl_i.obj
 0002:0000e028       _IID_IAddrTrackingControl  004b7028     uuid:objidl_i.obj
 0002:0000e038       _IID_IForegroundTransfer   004b7038     uuid:objidl_i.obj
 0002:0000e048       _IID_IUrlMon               004b7048     uuid:objidl_i.obj
 0002:0000e058       _IID_IWaitMultiple         004b7058     uuid:objidl_i.obj
 0002:0000e068       _IID_IReleaseMarshalBuffers 004b7068     uuid:objidl_i.obj
 0002:0000e078       _IID_IRpcHelper            004b7078     uuid:objidl_i.obj
 0002:0000e088       _IID_ICallFactory          004b7088     uuid:objidl_i.obj
 0002:0000e098       _IID_IAsyncManager         004b7098     uuid:objidl_i.obj
 0002:0000e0a8       _IID_ICancelMethodCalls    004b70a8     uuid:objidl_i.obj
 0002:0000e0b8       _IID_ISynchronizeMutex     004b70b8     uuid:objidl_i.obj
 0002:0000e0c8       _IID_ISynchronizeContainer 004b70c8     uuid:objidl_i.obj
 0002:0000e0d8       _IID_ISynchronizeEvent     004b70d8     uuid:objidl_i.obj
 0002:0000e0e8       _IID_ISynchronizeHandle    004b70e8     uuid:objidl_i.obj
 0002:0000e0f8       _IID_ISynchronize          004b70f8     uuid:objidl_i.obj
 0002:0000e108       _IID_IDirectWriterLock     004b7108     uuid:objidl_i.obj
 0002:0000e118       _IID_IGlobalInterfaceTable 004b7118     uuid:objidl_i.obj
 0002:0000e128       _IID_ISurrogate            004b7128     uuid:objidl_i.obj
 0002:0000e138       _IID_IOplockStorage        004b7138     uuid:objidl_i.obj
 0002:0000e148       _IID_ITimeAndNoticeControl 004b7148     uuid:objidl_i.obj
 0002:0000e158       _IID_IBlockingLock         004b7158     uuid:objidl_i.obj
 0002:0000e168       _IID_ILayoutStorage        004b7168     uuid:objidl_i.obj
 0002:0000e178       _IID_IProgressNotify       004b7178     uuid:objidl_i.obj
 0002:0000e188       _IID_IFillLockBytes        004b7188     uuid:objidl_i.obj
 0002:0000e198       _IID_IRpcOptions           004b7198     uuid:objidl_i.obj
 0002:0000e1a8       _IID_IClassActivator       004b71a8     uuid:objidl_i.obj
 0002:0000e1b8       _IID_IServerSecurity       004b71b8     uuid:objidl_i.obj
 0002:0000e1c8       _IID_IClientSecurity       004b71c8     uuid:objidl_i.obj
 0002:0000e1d8       _IID_IChannelHook          004b71d8     uuid:objidl_i.obj
 0002:0000e1e8       _IID_IPSFactoryBuffer      004b71e8     uuid:objidl_i.obj
 0002:0000e1f8       _IID_IRpcStubBuffer        004b71f8     uuid:objidl_i.obj
 0002:0000e208       _IID_IRpcProxyBuffer       004b7208     uuid:objidl_i.obj
 0002:0000e218       _IID_IRpcSyntaxNegotiate   004b7218     uuid:objidl_i.obj
 0002:0000e228       _IID_IRpcChannelBuffer3    004b7228     uuid:objidl_i.obj
 0002:0000e238       _IID_IAsyncRpcChannelBuffer 004b7238     uuid:objidl_i.obj
 0002:0000e248       _IID_IRpcChannelBuffer2    004b7248     uuid:objidl_i.obj
 0002:0000e258       _IID_IRpcChannelBuffer     004b7258     uuid:objidl_i.obj
 0002:0000e268       _IID_IMessageFilter        004b7268     uuid:objidl_i.obj
 0002:0000e278       _IID_IDataAdviseHolder     004b7278     uuid:objidl_i.obj
 0002:0000e288       _IID_IDataObject           004b7288     uuid:objidl_i.obj
 0002:0000e298       _IID_AsyncIAdviseSink2     004b7298     uuid:objidl_i.obj
 0002:0000e2a8       _IID_IAdviseSink2          004b72a8     uuid:objidl_i.obj
 0002:0000e2b8       _IID_AsyncIAdviseSink      004b72b8     uuid:objidl_i.obj
 0002:0000e2c8       _IID_IAdviseSink           004b72c8     uuid:objidl_i.obj
 0002:0000e2d8       _IID_IRootStorage          004b72d8     uuid:objidl_i.obj
 0002:0000e2e8       _IID_IEnumSTATDATA         004b72e8     uuid:objidl_i.obj
 0002:0000e2f8       _IID_IEnumFORMATETC        004b72f8     uuid:objidl_i.obj
 0002:0000e308       _IID_ILockBytes            004b7308     uuid:objidl_i.obj
 0002:0000e318       _IID_IPersistStorage       004b7318     uuid:objidl_i.obj
 0002:0000e328       _IID_IPersistFile          004b7328     uuid:objidl_i.obj
 0002:0000e338       _IID_IStorage              004b7338     uuid:objidl_i.obj
 0002:0000e348       _IID_IEnumSTATSTG          004b7348     uuid:objidl_i.obj
 0002:0000e358       _IID_IStream               004b7358     uuid:objidl_i.obj
 0002:0000e368       _IID_ISequentialStream     004b7368     uuid:objidl_i.obj
 0002:0000e378       _IID_IEnumString           004b7378     uuid:objidl_i.obj
 0002:0000e388       _IID_IROTData              004b7388     uuid:objidl_i.obj
 0002:0000e398       _IID_IMoniker              004b7398     uuid:objidl_i.obj
 0002:0000e3a8       _IID_IPersistStream        004b73a8     uuid:objidl_i.obj
 0002:0000e3b8       _IID_IPersist              004b73b8     uuid:objidl_i.obj
 0002:0000e3c8       _IID_IRunningObjectTable   004b73c8     uuid:objidl_i.obj
 0002:0000e3d8       _IID_IRunnableObject       004b73d8     uuid:objidl_i.obj
 0002:0000e3e8       _IID_IEnumMoniker          004b73e8     uuid:objidl_i.obj
 0002:0000e3f8       _IID_IBindCtx              004b73f8     uuid:objidl_i.obj
 0002:0000e408       _IID_IEnumUnknown          004b7408     uuid:objidl_i.obj
 0002:0000e418       _IID_IInternalUnknown      004b7418     uuid:objidl_i.obj
 0002:0000e428       _IID_AsyncIMultiQI         004b7428     uuid:objidl_i.obj
 0002:0000e438       _IID_IMultiQI              004b7438     uuid:objidl_i.obj
 0002:0000e448       _IID_IExternalConnection   004b7448     uuid:objidl_i.obj
 0002:0000e458       _IID_IStdMarshalInfo       004b7458     uuid:objidl_i.obj
 0002:0000e468       _IID_IMallocSpy            004b7468     uuid:objidl_i.obj
 0002:0000e478       _IID_IMalloc               004b7478     uuid:objidl_i.obj
 0002:0000e488       _IID_IMarshal2             004b7488     uuid:objidl_i.obj
 0002:0000e498       _IID_IMarshal              004b7498     uuid:objidl_i.obj
 0002:0000e4ac       ??_7type_info@@6B@         004b74ac     MSVCRTD:ti_inst.obj
 0002:0000f290       ??_R1A@?0A@A@type_info@@8  004b8290     MSVCRTD:ti_inst.obj
 0002:0000f2a8       ??_R2type_info@@8          004b82a8     MSVCRTD:ti_inst.obj
 0002:0000f2b0       ??_R3type_info@@8          004b82b0     MSVCRTD:ti_inst.obj
 0002:0000f2c0       ??_R4type_info@@6B@        004b82c0     MSVCRTD:ti_inst.obj
 0002:0000f3e8       __CT??_R0?AVCppSQLite3Exception@@@8??0CppSQLite3Exception@@QAE@ABV0@@Z12 004b83e8     CppSQLite3.obj
 0002:0000f408       __CTA1?AVCppSQLite3Exception@@ 004b8408     CppSQLite3.obj
 0002:0000f410       __TI1?AVCppSQLite3Exception@@ 004b8410     CppSQLite3.obj
 0002:000101e8       __CT??_R0H@84              004b91e8     hd.obj
 0002:00010208       __CTA1H                    004b9208     hd.obj
 0002:00010210       __TI1H                     004b9210     hd.obj
 0002:00010360       __CT??_R0PAX@84            004b9360     hd2.obj
 0002:00010380       __CT??_R0PAD@84            004b9380     hd2.obj
 0002:000103a0       __CTA2PAD                  004b93a0     hd2.obj
 0002:000103b0       __TI2PAD                   004b93b0     hd2.obj
 0003:00000000       ___xc_a                    004bb000     MSVCRTD:cinitexe.obj
 0003:00000248       ___xc_z                    004bb248     MSVCRTD:cinitexe.obj
 0003:0000034c       ___xi_a                    004bb34c     MSVCRTD:cinitexe.obj
 0003:00000450       ___xi_z                    004bb450     MSVCRTD:cinitexe.obj
 0003:00000560       ?g_TreeCheckedArray@@3PAHA 004bb560     ClearDlg.obj
 0003:0000057c       ?iArrayCount@@3HA          004bb57c     ClearDlg.obj
 0003:00000588       ??_R0?AVCppSQLite3Exception@@@8 004bb588     CppSQLite3.obj
 0003:000005b0       _MyIStorageTable           004bb5b0     CWebPage.obj
 0003:000005f8       _MyIStorage                004bb5f8     CWebPage.obj
 0003:00000600       _MyIOleInPlaceFrameTable   004bb600     CWebPage.obj
 0003:00000640       _MyIOleClientSiteTable     004bb640     CWebPage.obj
 0003:00000668       _MyIOleInPlaceSiteTable    004bb668     CWebPage.obj
 0003:000006d4       ?__LINE__Var@?1??Storage_QueryInterface@@9@9 004bb6d4     CWebPage.obj
 0003:000006d8       ?__LINE__Var@?1??Storage_CreateStream@@9@9 004bb6d8     CWebPage.obj
 0003:000006dc       ?__LINE__Var@?1??Storage_OpenStream@@9@9 004bb6dc     CWebPage.obj
 0003:000006e0       ?__LINE__Var@?1??Storage_CreateStorage@@9@9 004bb6e0     CWebPage.obj
 0003:000006e4       ?__LINE__Var@?1??Storage_OpenStorage@@9@9 004bb6e4     CWebPage.obj
 0003:000006e8       ?__LINE__Var@?1??Storage_CopyTo@@9@9 004bb6e8     CWebPage.obj
 0003:000006ec       ?__LINE__Var@?1??Storage_MoveElementTo@@9@9 004bb6ec     CWebPage.obj
 0003:000006f0       ?__LINE__Var@?1??Storage_Commit@@9@9 004bb6f0     CWebPage.obj
 0003:000006f4       ?__LINE__Var@?1??Storage_Revert@@9@9 004bb6f4     CWebPage.obj
 0003:000006f8       ?__LINE__Var@?1??Storage_EnumElements@@9@9 004bb6f8     CWebPage.obj
 0003:000006fc       ?__LINE__Var@?1??Storage_DestroyElement@@9@9 004bb6fc     CWebPage.obj
 0003:00000700       ?__LINE__Var@?1??Storage_RenameElement@@9@9 004bb700     CWebPage.obj
 0003:00000704       ?__LINE__Var@?1??Storage_SetElementTimes@@9@9 004bb704     CWebPage.obj
 0003:00000708       ?__LINE__Var@?1??Storage_SetStateBits@@9@9 004bb708     CWebPage.obj
 0003:0000070c       ?__LINE__Var@?1??Storage_Stat@@9@9 004bb70c     CWebPage.obj
 0003:00000710       ?__LINE__Var@?1??Site_SaveObject@@9@9 004bb710     CWebPage.obj
 0003:00000714       ?__LINE__Var@?1??Site_GetMoniker@@9@9 004bb714     CWebPage.obj
 0003:00000718       ?__LINE__Var@?1??Site_OnShowWindow@@9@9 004bb718     CWebPage.obj
 0003:0000071c       ?__LINE__Var@?1??Site_RequestNewObjectLayout@@9@9 004bb71c     CWebPage.obj
 0003:00000720       ?__LINE__Var@?1??Site_ContextSensitiveHelp@@9@9 004bb720     CWebPage.obj
 0003:00000724       ?__LINE__Var@?1??Site_Scroll@@9@9 004bb724     CWebPage.obj
 0003:00000728       ?__LINE__Var@?1??Site_DiscardUndoState@@9@9 004bb728     CWebPage.obj
 0003:0000072c       ?__LINE__Var@?1??Site_DeactivateAndUndo@@9@9 004bb72c     CWebPage.obj
 0003:00000730       ?__LINE__Var@?1??Frame_QueryInterface@@9@9 004bb730     CWebPage.obj
 0003:00000734       ?__LINE__Var@?1??Frame_ContextSensitiveHelp@@9@9 004bb734     CWebPage.obj
 0003:00000738       ?__LINE__Var@?1??Frame_GetBorder@@9@9 004bb738     CWebPage.obj
 0003:0000073c       ?__LINE__Var@?1??Frame_RequestBorderSpace@@9@9 004bb73c     CWebPage.obj
 0003:00000740       ?__LINE__Var@?1??Frame_SetBorderSpace@@9@9 004bb740     CWebPage.obj
 0003:00000744       ?__LINE__Var@?1??Frame_InsertMenus@@9@9 004bb744     CWebPage.obj
 0003:00000748       ?__LINE__Var@?1??Frame_RemoveMenus@@9@9 004bb748     CWebPage.obj
 0003:0000074c       ?__LINE__Var@?1??Frame_TranslateAccelerator@@9@9 004bb74c     CWebPage.obj
 0003:00000750       ?__LINE__Var@?1??UnEmbedBrowserObject@@9@9 004bb750     CWebPage.obj
 0003:00000754       ?cCode@@3PAY04GA           004bb754     hd.obj
 0003:0000077c       ?bRef@@3HA                 004bb77c     hd.obj
 0003:00000780       ?iEvaluateTime@@3HA        004bb780     hd.obj
 0003:00000784       ?cGUID1@@3PADA             004bb784     hd.obj
 0003:000007ac       ?cGUID2@@3PADA             004bb7ac     hd.obj
 0003:000007d4       ?cGUID3@@3PADA             004bb7d4     hd.obj
 0003:000007fc       ?cGUID4@@3PADA             004bb7fc     hd.obj
 0003:00000824       ?cGUID5@@3PADA             004bb824     hd.obj
 0003:0000084c       ?cGUID6@@3PADA             004bb84c     hd.obj
 0003:00000874       ?iTryTime@@3HA             004bb874     hd.obj
 0003:00000878       ?iTryTime_re@@3HA          004bb878     hd.obj
 0003:0000087c       ?g_iTabCount@@3HA          004bb87c     hd.obj
 0003:000008c8       ?rcDefault@CWindow@ATL@@2UtagRECT@@A 004bb8c8     hd.obj
 0003:000008e0       ?GUID_ATLVer30@ATL@@3U_GUID@@A 004bb8e0     hd.obj
 0003:000008f8       ??_R0H@8                   004bb8f8     hd.obj
 0003:00000908       ??_R0PAX@8                 004bb908     hd2.obj
 0003:00000918       ??_R0PAD@8                 004bb918     hd2.obj
 0003:00000928       ?g_CompleteFlag1@@3HA      004bb928     UseProxyDlg.obj
 0003:0000092c       ?g_CompleteFlag2@@3HA      004bb92c     UseProxyDlg.obj
 0003:00000930       ?g_CompleteFlag3@@3HA      004bb930     UseProxyDlg.obj
 0003:00000934       ?g_CompleteFlag4@@3HA      004bb934     UseProxyDlg.obj
 0003:00000940       ??_R0?AVtype_info@@@8      004bb940     MSVCRTD:ti_inst.obj
 0003:00000960       ___defaultmatherr          004bb960     MSVCRTD:merr.obj
 0003:00000a90       ?g_brushCleanPage@@3PAUHBRUSH__@@A 004bba90     ClearDlg.obj
 0003:00000a94       ?hThread@CClearDlg@@2PAXA  004bba94     ClearDlg.obj
 0003:00000a98       ?hThreadWnd@CClearDlg@@2PAUHWND__@@A 004bba98     ClearDlg.obj
 0003:00000a9c       ?hMainWnd@CClearDlg@@2PAUHWND__@@A 004bba9c     ClearDlg.obj
 0003:00000aa0       ?hTreeWnd@CClearDlg@@2PAUHWND__@@A 004bbaa0     ClearDlg.obj
 0003:00000aa4       ?g_hCursorLink@CClearDlg@@2PAUHICON__@@A 004bbaa4     ClearDlg.obj
 0003:00000aa8       ?g_hCursorLink_org@CClearDlg@@2PAUHICON__@@A 004bbaa8     ClearDlg.obj
 0003:00000aac       ?hInst@CClearDlg@@2PAUHINSTANCE__@@A 004bbaac     ClearDlg.obj
 0003:00000ab0       ?g_ExitDoWork@@3HA         004bbab0     ClearDlg.obj
 0003:00000abc       _WindowCount               004bbabc     CWebPage.obj
 0003:00000ac0       ?aHideWindowsHotKey@@3GA   004bbac0     hd.obj
 0003:00000ac4       ?iTotalBK@@3HA             004bbac4     hd.obj
 0003:00000ac8       ?hHK_HideAll@@3PAUHWND__@@A 004bbac8     hd.obj
 0003:00000acc       ?hFileMenu@@3PAUHMENU__@@A 004bbacc     hd.obj
 0003:00000ad0       ?hI1@@3PAUHICON__@@A       004bbad0     hd.obj
 0003:00000ad4       ?hI2@@3PAUHICON__@@A       004bbad4     hd.obj
 0003:00000ad8       ?hIcon_Unknown@@3PAUHICON__@@A 004bbad8     hd.obj
 0003:00000ae0       ?rAds@@3UtagRECT@@A        004bbae0     hd.obj
 0003:00000af0       ?hRightFirst@@3PAUHWND__@@A 004bbaf0     hd.obj
 0003:00000af4       ?hFont_New@@3PAUHFONT__@@A 004bbaf4     hd.obj
 0003:00000af8       ?hGM@@3PAUHHOOK__@@A       004bbaf8     hd.obj
 0003:00000afc       ?hRegAutoRun@@3PAUHKEY__@@A 004bbafc     hd.obj
 0003:00000b00       ?bUseMouse@@3HA            004bbb00     hd.obj
 0003:00000b04       ?hMainMenu@@3PAUHMENU__@@A 004bbb04     hd.obj
 0003:00000b08       ?lReaded@@3KA              004bbb08     hd.obj
 0003:00000b0c       ?hImage_Sel@@3PAU_IMAGELIST@@A 004bbb0c     hd.obj
 0003:00000b10       ?bFir@@3HA                 004bbb10     hd.obj
 0003:00000b14       ?hStatic_Update@@3PAUHWND__@@A 004bbb14     hd.obj
 0003:00000b18       ?hNorm@@3PAUHICON__@@A     004bbb18     hd.obj
 0003:00000b1c       ?g_IPList@@3PAUHWND__@@A   004bbb1c     hd.obj
 0003:00000b20       ?hTrayMenu@@3PAUHMENU__@@A 004bbb20     hd.obj
 0003:00000b24       ?d@@3PAGA                  004bbb24     hd.obj
 0003:00000b28       ?i@@3HA                    004bbb28     hd.obj
 0003:00000b2c       ?g_OldLangID@@3IA          004bbb2c     hd.obj
 0003:00000b30       ?hBKBrush@@3PAUHBRUSH__@@A 004bbb30     hd.obj
 0003:00000b34       ?iKorS@@3HA                004bbb34     hd.obj
 0003:00000b38       ?nID@@3U_NOTIFYICONDATAW@@A 004bbb38     hd.obj
 0003:00000ee0       ?hHttpDC@@3PAUHDC__@@A     004bbee0     hd.obj
 0003:00000ee4       ?hHK_HA@@3PAUHWND__@@A     004bbee4     hd.obj
 0003:00000ee8       ?cRequestHeader@@3PADA     004bbee8     hd.obj
 0003:00000eec       ?hove@@3PAUHBITMAP__@@A    004bbeec     hd.obj
 0003:00000ef0       ?iBK_All@@3HA              004bbef0     hd.obj
 0003:00000ef4       ?hWLMenu@@3PAUHMENU__@@A   004bbef4     hd.obj
 0003:00000ef8       ?hAlphaMenu@@3PAUHMENU__@@A 004bbef8     hd.obj
 0003:00000efc       ?g_iLangCount@@3HA         004bbefc     hd.obj
 0003:00000f00       ?hEmailDC@@3PAUHDC__@@A    004bbf00     hd.obj
 0003:00000f04       ?iBaSW@@3HA                004bbf04     hd.obj
 0003:00000f08       ?hHK_SS@@3PAUHWND__@@A     004bbf08     hd.obj
 0003:00000f0c       ?g_iTip@@3HA               004bbf0c     hd.obj
 0003:00000f10       ?g_iExit@@3HA              004bbf10     hd.obj
 0003:00000f14       ?pShellLink@@3PAUIShellLinkW@@A 004bbf14     hd.obj
 0003:00000f18       ?pMouse@@3UtagPOINT@@A     004bbf18     hd.obj
 0003:00000f20       ?pe32@@3UtagPROCESSENTRY32W@@A 004bbf20     hd.obj
 0003:0000114c       ?hNetworkThread@@3PAXA     004bc14c     hd.obj
 0003:00001150       ?pWH@@3PAUWndAndHandle@@A  004bc150     hd.obj
 0003:00001154       ?iBKItemCount@@3HA         004bc154     hd.obj
 0003:00001158       ?hHideMain@@3PAUHWND__@@A  004bc158     hd.obj
 0003:0000115c       ?lpItemIdList@@3PAU_ITEMIDLIST@@A 004bc15c     hd.obj
 0003:00001160       ?hHK_ShowSelf@@3PAUHWND__@@A 004bc160     hd.obj
 0003:00001164       ?g_hUpdateLangHandle@@3PAXA 004bc164     hd.obj
 0003:00001168       ?sOP@@3UOptionFile@@A      004bc168     hd.obj
 0003:0000123c       ?hTrayWnd@@3PAUHWND__@@A   004bc23c     hd.obj
 0003:00001240       ?hHelpMenu@@3PAUHMENU__@@A 004bc240     hd.obj
 0003:00001244       ?aShowSelf@@3GA            004bc244     hd.obj
 0003:00001248       ?hProcessSnap@@3PAXA       004bc248     hd.obj
 0003:00001250       ?hd_guid@@3U_GUID@@A       004bc250     hd.obj
 0003:00001260       ?sWP@@3UWndParam@@A        004bc260     hd.obj
 0003:00007660       ?iNoTitle@@3HA             004c2660     hd.obj
 0003:00007664       ?hEdit_MiddleCode@@3PAUHWND__@@A 004c2664     hd.obj
 0003:00007668       ?g_ChangeIconTitleHandle@@3PAXA 004c2668     hd.obj
 0003:0000766c       ?FileSizeHigh@@3KA         004c266c     hd.obj
 0003:00007670       ?hWinDC2@@3PAUHDC__@@A     004c2670     hd.obj
 0003:00007674       ?hWinDC@@3PAUHDC__@@A      004c2674     hd.obj
 0003:00007678       ?hWinDC3@@3PAUHDC__@@A     004c2678     hd.obj
 0003:0000767c       ?hJobTipMenu@@3PAUHMENU__@@A 004c267c     hd.obj
 0003:00007680       ?hJobMenu@@3PAUHMENU__@@A  004c2680     hd.obj
 0003:00007688       ?hBKMenu@@3PAUHMENU__@@A   004c2688     hd.obj
 0003:0000768c       ?hMainDialog@@3PAUHWND__@@A 004c268c     hd.obj
 0003:00007690       ?ppf@@3PAUIPersistFile@@A  004c2690     hd.obj
 0003:00007694       ?g_iStarted@@3HA           004c2694     hd.obj
 0003:00007698       ?hRegDialog@@3PAUHWND__@@A 004c2698     hd.obj
 0003:0000769c       ?hUsageTip@@3PAUHWND__@@A  004c269c     hd.obj
 0003:000076a0       ?hAds@@3PAUHWND__@@A       004c26a0     hd.obj
 0003:000076a4       ?g_CurrLangID@@3IA         004c26a4     hd.obj
 0003:000076a8       ?hImage_BK@@3PAU_IMAGELIST@@A 004c26a8     hd.obj
 0003:000076ac       ?iFlag_Restore@@3HA        004c26ac     hd.obj
 0003:000076b0       ?iFlag_Size@@3HA           004c26b0     hd.obj
 0003:000076b4       ?hBtn_Path@@3PAUHWND__@@A  004c26b4     hd.obj
 0003:000076b8       ?aResHK@@3GA               004c26b8     hd.obj
 0003:000076bc       ?iSelectedItem@@3HA        004c26bc     hd.obj
 0003:000076c0       ?hMouse@@3PAUHWND__@@A     004c26c0     hd.obj
 0003:000076c4       ?hDlg_Other@@3PAUHWND__@@A 004c26c4     hd.obj
 0003:000076c8       ?hOptionDialog@@3PAUHWND__@@A 004c26c8     hd.obj
 0003:000076cc       ?hHand@@3PAUHICON__@@A     004c26cc     hd.obj
 0003:000076d0       ?rMail@@3UtagRECT@@A       004c26d0     hd.obj
 0003:000076e0       ?hWinDC_LD@@3PAUHDC__@@A   004c26e0     hd.obj
 0003:000076e4       ?iForSW@@3HA               004c26e4     hd.obj
 0003:000076e8       ?win@@3PAVCWINButton@@A    004c26e8     hd.obj
 0003:000076ec       ?press@@3PAUHBITMAP__@@A   004c26ec     hd.obj
 0003:000076f0       ?cStrings@@3PAY04GA        004c26f0     hd.obj
 0003:00007820       ?_Module@@3VCComModule@ATL@@A 004c2820     hd.obj
 0003:000078a8       ?pe322@@3UtagPROCESSENTRY32W@@A 004c28a8     hd.obj
 0003:00007ad8       ?rHttp@@3UtagRECT@@A       004c2ad8     hd.obj
 0003:00007ae8       ?hEdit_PPath@@3PAUHWND__@@A 004c2ae8     hd.obj
 0003:00007af0       ?wsd@@3UWSAData@@A         004c2af0     hd.obj
 0003:00007c80       ?back@@3PAUHBITMAP__@@A    004c2c80     hd.obj
 0003:00007c84       ?Array_QH@@3PAPAUHWND__@@A 004c2c84     hd.obj
 0003:00007cd8       ?g_StartTime@@3U_SYSTEMTIME@@A 004c2cd8     hd.obj
 0003:00007ce8       ?sock_Scan@@3IA            004c2ce8     hd.obj
 0003:00007cec       ?hButton_ShowBK@@3PAUHWND__@@A 004c2cec     hd.obj
 0003:00007cf0       ?hOptionFile@@3PAXA        004c2cf0     hd.obj
 0003:00007cf4       ?hList_BK@@3PAUHWND__@@A   004c2cf4     hd.obj
 0003:00007cf8       ?iW_Sel@@3HA               004c2cf8     hd.obj
 0003:00007d00       ?CurMouPos@@3UtagPOINT@@A  004c2d00     hd.obj
 0003:00007d08       ?hr@@3JA                   004c2d08     hd.obj
 0003:00007d10       ?hd_guid2@@3U_GUID@@A      004c2d10     hd.obj
 0003:00007d20       ?lf@@3UtagLOGFONTW@@A      004c2d20     hd.obj
 0003:00007d7c       ?sW@@3PAUWndAndHandle@@A   004c2d7c     hd.obj
 0003:00007d80       ?hList_Confirm@@3PAUHWND__@@A 004c2d80     hd.obj
 0003:00007d84       ?hEdit_Validate@@3PAUHWND__@@A 004c2d84     hd.obj
 0003:00007d88       ?ok@@3PAUHBITMAP__@@A      004c2d88     hd.obj
 0003:00007d8c       ?hStatic_BKG@@3PAUHWND__@@A 004c2d8c     hd.obj
 0003:00007d90       ?iTemp@@3HA                004c2d90     hd.obj
 0003:00007d94       ?xP@@3JA                   004c2d94     hd.obj
 0003:00007d9c       ?yP@@3JA                   004c2d9c     hd.obj
 0003:00007da0       ?TrayFlag@@3HA             004c2da0     hd.obj
 0003:00007da4       ?cBKWndText@@3PAGA         004c2da4     hd.obj
 0003:00007da8       ?iHideWindows@@3IA         004c2da8     hd.obj
 0003:00007dac       ?iSelectedItems@@3PAHA     004c2dac     hd.obj
 0003:00007f3c       ?iBuff@@3PAHA              004c2f3c     hd.obj
 0003:00007f64       ?iResTemp@@3HA             004c2f64     hd.obj
 0003:00007f68       ?hIcon_Default@@3PAUHICON__@@A 004c2f68     hd.obj
 0003:00007f6c       ?g_hAdvWnd@@3PAUHWND__@@A  004c2f6c     hd.obj
 0003:00007f70       ?sBK_All@@3PAUWndAndHandle@@A 004c2f70     hd.obj
 0003:00007f74       ?iRefInterval@@3HA         004c2f74     hd.obj
 0003:00007f78       ?cResponseHeader@@3PADA    004c2f78     hd.obj
 0003:00007f7c       ?hAboutDialog@@3PAUHWND__@@A 004c2f7c     hd.obj
 0003:00007f80       ?iForSWC@@3HA              004c2f80     hd.obj
 0003:00007f84       ?hEditCre@@3PAUHWND__@@A   004c2f84     hd.obj
 0003:00007f88       ?DlgBack@@3PAUHBITMAP__@@A 004c2f88     hd.obj
 0003:00007f90       ?csDelListView@@3U_RTL_CRITICAL_SECTION@@A 004c2f90     hd.obj
 0003:00007fa8       ?hMainWndMenu@@3PAUHMENU__@@A 004c2fa8     hd.obj
 0003:00007fac       ?g_iAutoRun@@3HA           004c2fac     hd.obj
 0003:00007fb0       ?cOrgCode@@3PAGA           004c2fb0     hd.obj
 0003:00007fd8       ?hDisguiseMenu@@3PAUHMENU__@@A 004c2fd8     hd.obj
 0003:00007fdc       ?iTotalSelected@@3HA       004c2fdc     hd.obj
 0003:00007fe0       ?g_TabWnd@@3PAPAUHWND__@@A 004c2fe0     hd.obj
 0003:00008008       ?wb_Expand@@3PAVCWINButton@@A 004c3008     hd.obj
 0003:00008010       ?hIcon_NoIcon@@3PAUHICON__@@A 004c3010     hd.obj
 0003:00008014       ?g_TrayWnd@@3PAUHWND__@@A  004c3014     hd.obj
 0003:00008018       ?nIDW@@3U_NOTIFYICONDATAW@@A 004c3018     hd.obj
 0003:000083c0       ?hListView@@3PAUHWND__@@A  004c33c0     hd.obj
 0003:000083c4       ?hInst@@3PAUHINSTANCE__@@A 004c33c4     hd.obj
 0003:000083c8       ?hBtnExpandInfo@@3PAUHWND__@@A 004c33c8     hd.obj
 0003:000083cc       ?hCheck_UsePassword@@3PAUHWND__@@A 004c33cc     hd.obj
 0003:000083d0       ?wpOrgExpandProc@@3P6GJPAUHWND__@@IIJ@ZA 004c33d0     hd.obj
 0003:000083d4       ?g_hLangMenu@@3PAUHMENU__@@A 004c33d4     hd.obj
 0003:000083dc       ?hHttp@@3PAUHWND__@@A      004c33dc     hd.obj
 0003:000083e0       ?hWLMenu1@@3PAUHMENU__@@A  004c33e0     hd.obj
 0003:000083e4       ?hRestAll@@3PAUHWND__@@A   004c33e4     hd.obj
 0003:000083e8       ?FileSizeLow@@3KA          004c33e8     hd.obj
 0003:000083ec       ?hEmail@@3PAUHWND__@@A     004c33ec     hd.obj
 0003:000083f0       ?iUseSkin@@3HA             004c33f0     hd.obj
 0003:000083f4       ?g_hGenWnd@@3PAUHWND__@@A  004c33f4     hd.obj
 0003:000083f8       ?iFlag_EndInit@@3HA        004c33f8     hd.obj
 0003:000083fc       ?g_ProcessList@@3PAUHWND__@@A 004c33fc     hd.obj
 0003:00008400       ?csFillList@@3U_RTL_CRITICAL_SECTION@@A 004c3400     hd.obj
 0003:00008418       ?hRadioAuto@@3PAUHWND__@@A 004c3418     hd.obj
 0003:00008420       ?Msg@@3UtagMSG@@A          004c3420     hd.obj
 0003:00008440       ?viRF@@3UVersionInfo@@A    004c3440     hd.obj
 0003:0000844c       ?lWritten@@3KA             004c344c     hd.obj
 0003:00008450       ?hHideIcon@@3PAUHWND__@@A  004c3450     hd.obj
 0003:00008454       ?hImage_Confirm@@3PAU_IMAGELIST@@A 004c3454     hd.obj
 0003:00008458       ?iShowSelf@@3IA            004c3458     hd.obj
 0003:0000845c       ?iTakeToBk@@3HA            004c345c     hd.obj
 0003:00008460       ?hWizardDialog@@3PAUHWND__@@A 004c3460     hd.obj
 0003:00008464       ?hRadioTip@@3PAUHWND__@@A  004c3464     hd.obj
 0003:00008468       ?iFlag_ThroughIcon@@3HA    004c3468     hd.obj
 0003:0000846c       ?g_HidedProcess@@3HA       004c346c     hd.obj
 0003:00008470       ?hToolTip@@3PAUHWND__@@A   004c3470     hd.obj
 0003:00008474       ?iExtWindow@@3HA           004c3474     hd.obj
 0003:00008478       ?hButton_Update@@3PAUHWND__@@A 004c3478     hd.obj
 0003:0000847c       ?cItemString@@3PAGA        004c347c     hd.obj
 0003:0000851c       ?hBalTip@@3PAUHWND__@@A    004c351c     hd.obj
 0003:00008520       ?pExeFunc@@3UExeFunc@@A    004c3520     hd.obj
 0003:00008538       ?iBaSWC@@3HA               004c3538     hd.obj
 0003:00008540       ?arrTray@@3PAUTRAYDATA@@A  004c3540     hd.obj
 0003:00008ae0       ?iForState@@3HA            004c3ae0     hd.obj
 0003:00008ae4       ?g_hCleanStatus@@3PAUHWND__@@A 004c3ae4     hd.obj
 0003:00008ae8       ?disable@@3PAUHBITMAP__@@A 004c3ae8     hd.obj
 0003:00008aec       ?hRadio_ShowAll@@3PAUHWND__@@A 004c3aec     hd.obj
 0003:00008af0       ?g_iTipCount@@3HA          004c3af0     hd.obj
 0003:00008af4       ?hEdit_RC@@3PAPAUHWND__@@A 004c3af4     hd.obj
 0003:00008b08       ?cOptionFileName@@3PAGA    004c3b08     hd.obj
 0003:00008b0c       ?g_iUseLanguage@@3HA       004c3b0c     hd.obj
 0003:00008b10       ?hList_SelWI@@3PAUHWND__@@A 004c3b10     hd.obj
 0003:00008b14       ?pNoTitle@@3PAUWndAndHandle@@A 004c3b14     hd.obj
 0003:00008b18       ?cHT@@3GA                  004c3b18     hd.obj
 0003:00008b1c       ?lpBuff@@3PADA             004c3b1c     hd.obj
 0003:00008b28       ?g_TrayList@@3PAUHWND__@@A 004c3b28     hd.obj
 0003:00008b30       ?lvItem@@3UtagLVITEMW@@A   004c3b30     hd.obj
 0003:00008b58       ?g_pTipText@@3PAY09PAGA    004c3b58     hd.obj
 0003:00008ce8       ?hIconList@@3PAU_IMAGELIST@@A 004c3ce8     hd.obj
 0003:00008cec       ?g_hUpdateHandle@@3PAXA    004c3cec     hd.obj
 0003:00008cf0       ?iA1@@3PAHA                004c3cf0     hd.obj
 0003:00008e80       ?bReserveOperation@@3HA    004c3e80     hd.obj
 0003:00008e84       ?dwPathSize@@3KA           004c3e84     hd.obj
 0003:00008e88       ?dwExPID@@3KA              004c3e88     hd.obj
 0003:00008e8c       ?hEdit_Password@@3PAUHWND__@@A 004c3e8c     hd.obj
 0003:00008e90       ?cObject@@3PADA            004c3e90     hd.obj
 0003:00008e94       ?cHostName@@3PADA          004c3e94     hd.obj
 0003:00008e98       ?cValue@@3PADA             004c3e98     hd.obj
 0003:00008e9c       ?pVerBuff@@3PAGA           004c3e9c     hd.obj
 0003:00008ea0       ?cRecvBuff@@3PADA          004c3ea0     hd.obj
 0003:00008ea4       ?lHeaderLength@@3JA        004c3ea4     hd.obj
 0003:00008ea8       ?g_HD_Msg_GetIcon@@3IA     004c3ea8     hd.obj
 0003:00008eac       ?sBKWI@@3PAPAUWndAndHandle@@A 004c3eac     hd.obj
 0003:00008eb0       ?sBKSel@@3PAUWndAndHandle@@A 004c3eb0     hd.obj
 0003:00008eb4       ?g_AutoHide@@3HA           004c3eb4     hd.obj
 0003:00008eb8       ?g_AutoHideHandle@@3PAXA   004c3eb8     hd.obj
 0003:00008ebc       ?g_Tab@@3PAUHWND__@@A      004c3ebc     hd.obj
 0003:00008ec0       ?g_hInfoPanel@@3PAUHWND__@@A 004c3ec0     hd.obj
 0003:00008ec4       ?g_QuickHideAllTray@@3PAUWndAndHandle@@A 004c3ec4     hd.obj
 0003:00008ec8       ?g_bmenu@@3PAUHBRUSH__@@A  004c3ec8     hd.obj
 0003:00008ecc       ?g_wbr@@3PAUHBRUSH__@@A    004c3ecc     hd.obj
 0003:0000a974       ?WM_ATLGETCONTROL@ATL@@3IA 004c5974     hd.obj
 0003:0000a978       ?WM_ATLGETHOST@ATL@@3IA    004c5978     hd.obj
 0003:0000a97c       ?ATL_CREATE_OBJECT@CComApartment@ATL@@2IA 004c597c     hd.obj
 0003:0000a980       ?m_libid@CComModule@ATL@@2U_GUID@@A 004c5980     hd.obj
 0003:0000a994       ?_pModule@ATL@@3PAVCComModule@1@A 004c5994     hd.obj
 0003:0000a998       ?hProcessMenu_Sub@@3PAUHMENU__@@A 004c5998     hd2.obj
 0003:0000a9a0       ?m_lnk_tray@@3VCHyperLink@@A 004c59a0     hd2.obj
 0003:0000b1f4       ?hBK_ADLink@@3PAUHWND__@@A 004c61f4     hd2.obj
 0003:0000b1f8       ?g_ProcessList1@@3V?$list@PAUNewProcessInfo@@V?$allocator@PAUNewProcessInfo@@@std@@@std@@A 004c61f8     hd2.obj
 0003:0000b208       ?g_ProcessList2@@3V?$list@PAUNewProcessInfo@@V?$allocator@PAUNewProcessInfo@@@std@@@std@@A 004c6208     hd2.obj
 0003:0000b214       ?g_brushProcessPage@@3PAUHBRUSH__@@A 004c6214     hd2.obj
 0003:0000b218       ?g_AutoHideList@@3PAUHWND__@@A 004c6218     hd2.obj
 0003:0000b21c       ?hImage_TrayList@@3PAU_IMAGELIST@@A 004c621c     hd2.obj
 0003:0000b220       ?m_lnk1@@3VCHyperLink@@A   004c6220     hd2.obj
 0003:0000ba78       ?g_ITList@@3V?$list@PAUsIconTitle@@V?$allocator@PAUsIconTitle@@@std@@@std@@A 004c6a78     hd2.obj
 0003:0000ba84       ?hCurrIcon@@3PAUHICON__@@A 004c6a84     hd2.obj
 0003:0000ba88       ?m_lnk_process@@3VCHyperLink@@A 004c6a88     hd2.obj
 0003:0000c2e0       ?lf2@@3UtagLOGFONTW@@A     004c72e0     hd2.obj
 0003:0000c340       ?hPropertyDialog@@3PAUHWND__@@A 004c7340     hd2.obj
 0003:0000c344       ?hProcess_Adlink@@3PAUHWND__@@A 004c7344     hd2.obj
 0003:0000c348       ?hBKDialog@@3PAUHWND__@@A  004c7348     hd2.obj
 0003:0000c34c       ?g_brushBKPage@@3PAUHBRUSH__@@A 004c734c     hd2.obj
 0003:0000c350       ?hwndStatus@@3PAUHWND__@@A 004c7350     hd2.obj
 0003:0000c354       ?iShowFileDialog@@3HA      004c7354     hd2.obj
 0003:0000c358       ?g_brushTrayPage@@3PAUHBRUSH__@@A 004c7358     hd2.obj
 0003:0000c35c       ?hHK_BkWnd@@3PAUHWND__@@A  004c735c     hd2.obj
 0003:0000c360       ?iPressIn@@3HA             004c7360     hd2.obj
 0003:0000c364       ?hDnIconA@@3PAUHICON__@@A  004c7364     hd2.obj
 0003:0000c368       ?hDnIconI@@3PAUHICON__@@A  004c7368     hd2.obj
 0003:0000c370       ?g_BKHList@@3V?$list@PAUsBKWHotkey@@V?$allocator@PAUsBKWHotkey@@@std@@@std@@A 004c7370     hd2.obj
 0003:0000c37c       ?hStatic_ADLink@@3PAUHWND__@@A 004c737c     hd2.obj
 0003:0000c380       ?hProcessListMenu@@3PAUHMENU__@@A 004c7380     hd2.obj
 0003:0000c388       ?m_lnk_wndlist@@3VCHyperLink@@A 004c7388     hd2.obj
 0003:0000cbdc       ?hAutohide_Adlink@@3PAUHWND__@@A 004c7bdc     hd2.obj
 0003:0000cbe0       ?FFD@@3U_WIN32_FIND_DATAW@@A 004c7be0     hd2.obj
 0003:0000ce30       ?cPID_BK@@3PAGA            004c7e30     hd2.obj
 0003:0000cebc       ?hTitleDialog@@3PAUHWND__@@A 004c7ebc     hd2.obj
 0003:0000cec0       ?g_DBProcessList@@3V?$list@PAUAutoHideItem@@V?$allocator@PAUAutoHideItem@@@std@@@std@@A 004c7ec0     hd2.obj
 0003:0000cecc       ?g_BKTipDialog@@3PAUHWND__@@A 004c7ecc     hd2.obj
 0003:0000ced0       ?g_NewProcessList@@3V?$list@PAUNewProcessInfo@@V?$allocator@PAUNewProcessInfo@@@std@@@std@@A 004c7ed0     hd2.obj
 0003:0000cedc       ?pBHHeader@@3PAUsBKWHotkey@@A 004c7edc     hd2.obj
 0003:0000cee0       ?iUpIn@@3HA                004c7ee0     hd2.obj
 0003:0000cee4       ?iMoveIn@@3HA              004c7ee4     hd2.obj
 0003:0000cee8       ?g_ICList@@3V?$list@PAUsIconTitle@@V?$allocator@PAUsIconTitle@@@std@@@std@@A 004c7ee8     hd2.obj
 0003:0000cef8       ?pIconHeader@@3PAUsIconTitle@@A 004c7ef8     hd2.obj
 0003:0000cf00       ?m_lnk_bk@@3VCHyperLink@@A 004c7f00     hd2.obj
 0003:0000d768       ?g_brushAllPage@@3PAUHBRUSH__@@A 004c8768     hd2.obj
 0003:0000d76c       ?wBKWnd@@3GA               004c876c     hd2.obj
 0003:0000d770       ?g_hChangeLangHandle@@3PAXA 004c8770     hd2.obj
 0003:0000d774       ?hUpIconA@@3PAUHICON__@@A  004c8774     hd2.obj
 0003:0000d778       ?hUser32@@3PAUHINSTANCE__@@A 004c8778     hd2.obj
 0003:0000d77c       ?g_brushWebPage@@3PAUHBRUSH__@@A 004c877c     hd2.obj
 0003:0000d780       ?m_lnk_autohide@@3VCHyperLink@@A 004c8780     hd2.obj
 0003:0000dfd4       ?hList_AllWnd@@3PAUHWND__@@A 004c8fd4     hd2.obj
 0003:0000dfd8       ?hUpIconI@@3PAUHICON__@@A  004c8fd8     hd2.obj
 0003:0000dfdc       ?hHotKey_TIPSS@@3PAUHWND__@@A 004c8fdc     hd2.obj
 0003:0000dfe0       ?pITHeader@@3PAUsIconTitle@@A 004c8fe0     hd2.obj
 0003:0000dfe4       ?g_GetAdsLinkHandle@@3PAXA 004c8fe4     hd2.obj
 0003:0000dfe8       ?pGetLayeredWindowAttributes@@3P6GHPAUHWND__@@PAKPAE1@ZA 004c8fe8     hd2.obj
 0003:0000dfec       ?g_oleemb@@3HA             004c8fec     hd2.obj
 0003:0000dff0       ?uModifier_BK@@3IA         004c8ff0     hd2.obj
 0003:0000dff4       ?uMF_BK@@3IA               004c8ff4     hd2.obj
 0003:0000dff8       ?uVK_BK@@3IA               004c8ff8     hd2.obj
 0003:0000dffc       ?hTrayListMenu@@3PAUHMENU__@@A 004c8ffc     hd2.obj
 0003:0000e000       ?hTrayListMenu_Sub@@3PAUHMENU__@@A 004c9000     hd2.obj
 0003:0000e004       ?hBKListMenu@@3PAUHMENU__@@A 004c9004     hd2.obj
 0003:0000e008       ?hBKListMenu_Sub@@3PAUHMENU__@@A 004c9008     hd2.obj
 0003:0000e00c       ?hBKListMenu_Wizard@@3PAUHMENU__@@A 004c900c     hd2.obj
 0003:0000e010       ?hBKListMenu_WizardSub@@3PAUHMENU__@@A 004c9010     hd2.obj
 0003:0000e014       ?g_uCheckTI@@3IA           004c9014     hd2.obj
 0003:0000e018       ?g_SetAdsTimer@@3IA        004c9018     hd2.obj
 0003:0000e01c       ?g_SetWndAdsTimer@@3IA     004c901c     hd2.obj
 0003:0000e020       ?g_ReConnTimer@@3IA        004c9020     hd2.obj
 0003:0000e024       ?g_ExitChangeIconThread@@3HA 004c9024     hd2.obj
 0003:0000e028       ?pTempBK@@3PAUWndAndHandle@@A 004c9028     hd2.obj
 0003:0000e02c       ?g_hStatus_Link@@3PAUHWND__@@A 004c902c     hd2.obj
 0003:0000e050       ?wbr_gen@@3PAUHBRUSH__@@A  004c9050     hd2.obj
 0003:0000e054       ?wbr@@3PAUHBRUSH__@@A      004c9054     hd2.obj
 0003:0000e05c       ?hFont_New2@@3PAUHFONT__@@A 004c905c     hd2.obj
 0003:0000e060       ?tabDC@@3PAUHDC__@@A       004c9060     hd2.obj
 0003:0000e064       ?cr@@3KA                   004c9064     hd2.obj
 0003:0000e068       ?hToolTip1@@3PAUHWND__@@A  004c9068     hd2.obj
 0003:0000e06c       ?hBtn_SwitchHide@@3PAUHWND__@@A 004c906c     hd2.obj
 0003:0000e070       ?g_ProcessParam@@3PAUWndAndHandle@@A 004c9070     hd2.obj
 0003:0000e074       ?g_iProcessCount@@3HA      004c9074     hd2.obj
 0003:0000e078       ?g_GetWeb1Fail@@3HA        004c9078     hd2.obj
 0003:0000e07c       ?g_GetWeb2Fail@@3HA        004c907c     hd2.obj
 0003:0000e080       ?g_iAdsIdx@@3HA            004c9080     hd2.obj
 0003:0000e084       ?g_iWndAdsIdx@@3HA         004c9084     hd2.obj
 0003:0000eb88       ?strings@@3PAPAGA          004c9b88     hd3.obj
 0003:0000ef88       ?device@@3PAXA             004c9f88     hd3.obj
 0003:0000ef90       ?g_HidedTrayList@@3V?$list@PAUWndAndHandle@@V?$allocator@PAUWndAndHandle@@@std@@@std@@A 004c9f90     hd3.obj
 0003:0000ef9c       ?stringcount@@3KA          004c9f9c     hd3.obj
 0003:0000efa0       ?outputbuff@@3PAGA         004c9fa0     hd3.obj
 0003:0000f1a0       ?g_QuickHideAllTray_au@@3PAUWndAndHandle@@A 004ca1a0     hd3.obj
 0003:0000f2dc       ?hwndFrom@@3PAUHWND__@@A   004ca2dc     HyperLink.obj
 0003:0000f2e0       ?hStatusToolTip@@3PAUHWND__@@A 004ca2e0     HyperLink.obj
 0003:0000f2e8       ?m_lnk_adv@@3VCHyperLink@@A 004ca2e8     UseProxyDlg.obj
 0003:0000fb40       ?m_lnk_hideip@@3VCHyperLink@@A 004cab40     UseProxyDlg.obj
 0003:00010394       ?hAdv_ADLink@@3PAUHWND__@@A 004cb394     UseProxyDlg.obj
 0003:00010398       ?hHideIP_ADLink@@3PAUHWND__@@A 004cb398     UseProxyDlg.obj
 0003:0001039c       ?hThread_testpro@@3PAXA    004cb39c     UseProxyDlg.obj
 0003:000103a0       ?hThread1@@3PAXA           004cb3a0     UseProxyDlg.obj
 0003:000103a4       ?hThread3@@3PAXA           004cb3a4     UseProxyDlg.obj
 0003:000103a8       ?hThread2@@3PAXA           004cb3a8     UseProxyDlg.obj
 0003:000103ac       ?hThread4@@3PAXA           004cb3ac     UseProxyDlg.obj
 0003:000103b0       ?g_brushGeneralPage@@3PAUHBRUSH__@@A 004cb3b0     UseProxyDlg.obj
 0003:000103b8       ?ProxyInfoHead@UseProxyDlg@@2UProxyInfo@@A 004cb3b8     UseProxyDlg.obj
 0003:00010828       ?hMainWnd@UseProxyDlg@@2PAUHWND__@@A 004cb828     UseProxyDlg.obj
 0003:0001082c       ?hAdvWnd@UseProxyDlg@@2PAUHWND__@@A 004cb82c     UseProxyDlg.obj
 0003:00010830       ?hGenWnd@UseProxyDlg@@2PAUHWND__@@A 004cb830     UseProxyDlg.obj
 0003:00010834       ?hUseInfoWnd@UseProxyDlg@@2PAUHWND__@@A 004cb834     UseProxyDlg.obj
 0003:00010838       ?ProGressWnd@UseProxyDlg@@2PAUHWND__@@A 004cb838     UseProxyDlg.obj
 0003:0001083c       ?hFile@UseProxyDlg@@2PAXA  004cb83c     UseProxyDlg.obj
 0003:00010840       ?hMapping@UseProxyDlg@@2PAXA 004cb840     UseProxyDlg.obj
 0003:00010844       ?basepointer@UseProxyDlg@@2PAGA 004cb844     UseProxyDlg.obj
 0003:00010848       ?hThread@UseProxyDlg@@2PAXA 004cb848     UseProxyDlg.obj
 0003:0001084c       ?hThread_setproxylist@@3PAXA 004cb84c     UseProxyDlg.obj
 0003:00010850       ?hThread_download@@3PAXA   004cb850     UseProxyDlg.obj
 0003:00010854       ?g_ExitDownloadQuery@@3HA  004cb854     UseProxyDlg.obj
 0003:00010858       ?g_ExitDownloadThread@@3HA 004cb858     UseProxyDlg.obj
 0003:0001085c       ?g_ExitSetProxyThread@@3HA 004cb85c     UseProxyDlg.obj
 0003:00010860       ?g_ExitTestProxyThread@@3HA 004cb860     UseProxyDlg.obj
 0003:00010864       ?hInst@UseProxyDlg@@2PAUHINSTANCE__@@A 004cb864     UseProxyDlg.obj
 0003:00010868       ?g_RestoreHandle@@3PAXA    004cb868     UseProxyDlg.obj
 0003:00010ccc       __dowildcard               004cbccc     MSVCRTD:wildcard.obj
 0003:00010cd0       __newmode                  004cbcd0     MSVCRTD:_newmode.obj
 0003:00010cd4       __commode                  004cbcd4     MSVCRTD:xncommod.obj
 0003:00010cd8       __fmode                    004cbcd8     MSVCRTD:xtxtmode.obj
 0003:00010cdc       __adjust_fdiv              004cbcdc     <common>
 0003:00010ce8       ___onexitend               004cbce8     <common>
 0003:00010cf8       ___onexitbegin             004cbcf8     <common>
 0004:00000000       __IMPORT_DESCRIPTOR_HOOKLIB 004cc000     hooklib:HOOKLIB.dll
 0004:00000014       __IMPORT_DESCRIPTOR_COMCTL32 004cc014     comctl32:COMCTL32.dll
 0004:00000028       __IMPORT_DESCRIPTOR_SHLWAPI 004cc028     shlwapi:SHLWAPI.dll
 0004:0000003c       __IMPORT_DESCRIPTOR_WS2_32 004cc03c     ws2_32:WS2_32.dll
 0004:00000050       __IMPORT_DESCRIPTOR_VERSION 004cc050     version:VERSION.dll
 0004:00000064       __IMPORT_DESCRIPTOR_WININET 004cc064     wininet:WININET.dll
 0004:00000078       __IMPORT_DESCRIPTOR_unrar  004cc078     unrar:unrar.dll
 0004:0000008c       __IMPORT_DESCRIPTOR_KERNEL32 004cc08c     kernel32:KERNEL32.dll
 0004:000000a0       __IMPORT_DESCRIPTOR_USER32 004cc0a0     user32:USER32.dll
 0004:000000b4       __IMPORT_DESCRIPTOR_GDI32  004cc0b4     gdi32:GDI32.dll
 0004:000000c8       __IMPORT_DESCRIPTOR_comdlg32 004cc0c8     comdlg32:comdlg32.dll
 0004:000000dc       __IMPORT_DESCRIPTOR_ADVAPI32 004cc0dc     advapi32:ADVAPI32.dll
 0004:000000f0       __IMPORT_DESCRIPTOR_SHELL32 004cc0f0     shell32:SHELL32.dll
 0004:00000104       __IMPORT_DESCRIPTOR_ole32  004cc104     ole32:ole32.dll
 0004:00000118       __IMPORT_DESCRIPTOR_OLEAUT32 004cc118     oleaut32:OLEAUT32.dll
 0004:0000012c       __IMPORT_DESCRIPTOR_sqlite3 004cc12c     sqlite3:sqlite3.dll
 0004:00000140       __IMPORT_DESCRIPTOR_MSVCRTD 004cc140     MSVCRTD:MSVCRTD.dll
 0004:00000154       __NULL_IMPORT_DESCRIPTOR   004cc154     hooklib:HOOKLIB.dll
 0004:00000c28       __imp__RegOpenKeyExA@20    004ccc28     advapi32:ADVAPI32.dll
 0004:00000c2c       __imp__RegQueryValueExA@24 004ccc2c     advapi32:ADVAPI32.dll
 0004:00000c30       __imp__RegSetValueExA@24   004ccc30     advapi32:ADVAPI32.dll
 0004:00000c34       __imp__OpenServiceW@12     004ccc34     advapi32:ADVAPI32.dll
 0004:00000c38       __imp__ControlService@12   004ccc38     advapi32:ADVAPI32.dll
 0004:00000c3c       __imp__DeleteService@4     004ccc3c     advapi32:ADVAPI32.dll
 0004:00000c40       __imp__OpenSCManagerW@12   004ccc40     advapi32:ADVAPI32.dll
 0004:00000c44       __imp__CreateServiceW@52   004ccc44     advapi32:ADVAPI32.dll
 0004:00000c48       __imp__StartServiceW@12    004ccc48     advapi32:ADVAPI32.dll
 0004:00000c4c       __imp__CloseServiceHandle@4 004ccc4c     advapi32:ADVAPI32.dll
 0004:00000c50       __imp__RegCreateKeyExW@36  004ccc50     advapi32:ADVAPI32.dll
 0004:00000c54       __imp__RegSetValueExW@24   004ccc54     advapi32:ADVAPI32.dll
 0004:00000c58       __imp__RegDeleteValueW@8   004ccc58     advapi32:ADVAPI32.dll
 0004:00000c5c       __imp__RegDeleteKeyW@8     004ccc5c     advapi32:ADVAPI32.dll
 0004:00000c60       __imp__RegCreateKeyW@12    004ccc60     advapi32:ADVAPI32.dll
 0004:00000c64       __imp__RegSetKeySecurity@12 004ccc64     advapi32:ADVAPI32.dll
 0004:00000c68       __imp__RegQueryInfoKeyW@48 004ccc68     advapi32:ADVAPI32.dll
 0004:00000c6c       __imp__RegEnumKeyW@16      004ccc6c     advapi32:ADVAPI32.dll
 0004:00000c70       __imp__GetSidSubAuthorityCount@4 004ccc70     advapi32:ADVAPI32.dll
 0004:00000c74       __imp__GetSidSubAuthority@8 004ccc74     advapi32:ADVAPI32.dll
 0004:00000c78       __imp__OpenProcessToken@12 004ccc78     advapi32:ADVAPI32.dll
 0004:00000c7c       __imp__GetTokenInformation@20 004ccc7c     advapi32:ADVAPI32.dll
 0004:00000c80       __imp__CopySid@12          004ccc80     advapi32:ADVAPI32.dll
 0004:00000c84       __imp__RegOpenKeyExW@20    004ccc84     advapi32:ADVAPI32.dll
 0004:00000c88       __imp__RegGetKeySecurity@16 004ccc88     advapi32:ADVAPI32.dll
 0004:00000c8c       __imp__AllocateAndInitializeSid@44 004ccc8c     advapi32:ADVAPI32.dll
 0004:00000c90       __imp__GetLengthSid@4      004ccc90     advapi32:ADVAPI32.dll
 0004:00000c94       __imp__InitializeAcl@12    004ccc94     advapi32:ADVAPI32.dll
 0004:00000c98       __imp__AddAce@20           004ccc98     advapi32:ADVAPI32.dll
 0004:00000c9c       __imp__InitializeSecurityDescriptor@8 004ccc9c     advapi32:ADVAPI32.dll
 0004:00000ca0       __imp__SetSecurityDescriptorDacl@16 004ccca0     advapi32:ADVAPI32.dll
 0004:00000ca4       __imp__FreeSid@4           004ccca4     advapi32:ADVAPI32.dll
 0004:00000ca8       __imp__GetUserNameW@8      004ccca8     advapi32:ADVAPI32.dll
 0004:00000cac       __imp__RegOpenKeyW@12      004cccac     advapi32:ADVAPI32.dll
 0004:00000cb0       __imp__RegEnumValueW@32    004cccb0     advapi32:ADVAPI32.dll
 0004:00000cb4       __imp__GetSidIdentifierAuthority@4 004cccb4     advapi32:ADVAPI32.dll
 0004:00000cb8       __imp__RegQueryValueExW@24 004cccb8     advapi32:ADVAPI32.dll
 0004:00000cbc       __imp__RegCloseKey@4       004cccbc     advapi32:ADVAPI32.dll
 0004:00000cc0       \177ADVAPI32_NULL_THUNK_DATA 004cccc0     advapi32:ADVAPI32.dll
 0004:00000d08       __imp__InitCommonControlsEx@4 004ccd08     comctl32:COMCTL32.dll
 0004:00000d0c       __imp__ImageList_Remove@8  004ccd0c     comctl32:COMCTL32.dll
 0004:00000d10       __imp__ImageList_ReplaceIcon@12 004ccd10     comctl32:COMCTL32.dll
 0004:00000d14       __imp__PropertySheetW@4    004ccd14     comctl32:COMCTL32.dll
 0004:00000d18       __imp__CreatePropertySheetPageW@4 004ccd18     comctl32:COMCTL32.dll
 0004:00000d1c       __imp__InitCommonControls@0 004ccd1c     comctl32:COMCTL32.dll
 0004:00000d20       __imp__ImageList_Create@20 004ccd20     comctl32:COMCTL32.dll
 0004:00000d24       \177COMCTL32_NULL_THUNK_DATA 004ccd24     comctl32:COMCTL32.dll
 0004:00000d54       __imp__GetPixel@12         004ccd54     gdi32:GDI32.dll
 0004:00000d58       __imp__RoundRect@28        004ccd58     gdi32:GDI32.dll
 0004:00000d5c       __imp__LineTo@12           004ccd5c     gdi32:GDI32.dll
 0004:00000d60       __imp__MoveToEx@16         004ccd60     gdi32:GDI32.dll
 0004:00000d64       __imp__CreateCompatibleDC@4 004ccd64     gdi32:GDI32.dll
 0004:00000d68       __imp__DeleteDC@4          004ccd68     gdi32:GDI32.dll
 0004:00000d6c       __imp__CombineRgn@16       004ccd6c     gdi32:GDI32.dll
 0004:00000d70       __imp__SetTextColor@8      004ccd70     gdi32:GDI32.dll
 0004:00000d74       __imp__CreateRoundRectRgn@24 004ccd74     gdi32:GDI32.dll
 0004:00000d78       __imp__SelectClipRgn@8     004ccd78     gdi32:GDI32.dll
 0004:00000d7c       __imp__GetStockObject@4    004ccd7c     gdi32:GDI32.dll
 0004:00000d80       __imp__SelectObject@8      004ccd80     gdi32:GDI32.dll
 0004:00000d84       __imp__CreateFontIndirectW@4 004ccd84     gdi32:GDI32.dll
 0004:00000d88       __imp__CreateSolidBrush@4  004ccd88     gdi32:GDI32.dll
 0004:00000d8c       __imp__SetBkColor@8        004ccd8c     gdi32:GDI32.dll
 0004:00000d90       __imp__CreateCompatibleBitmap@12 004ccd90     gdi32:GDI32.dll
 0004:00000d94       __imp__SaveDC@4            004ccd94     gdi32:GDI32.dll
 0004:00000d98       __imp__CreateRectRgn@16    004ccd98     gdi32:GDI32.dll
 0004:00000d9c       __imp__RestoreDC@8         004ccd9c     gdi32:GDI32.dll
 0004:00000da0       __imp__CreatePen@12        004ccda0     gdi32:GDI32.dll
 0004:00000da4       __imp__SetBkMode@8         004ccda4     gdi32:GDI32.dll
 0004:00000da8       __imp__GetDeviceCaps@8     004ccda8     gdi32:GDI32.dll
 0004:00000dac       __imp__GetObjectW@12       004ccdac     gdi32:GDI32.dll
 0004:00000db0       __imp__BitBlt@36           004ccdb0     gdi32:GDI32.dll
 0004:00000db4       __imp__DeleteObject@4      004ccdb4     gdi32:GDI32.dll
 0004:00000db8       \177GDI32_NULL_THUNK_DATA  004ccdb8     gdi32:GDI32.dll
 0004:00000df8       __imp__GetHidedProcessCount 004ccdf8     hooklib:HOOKLIB.dll
 0004:00000dfc       __imp__GetHidedProcessByIdx 004ccdfc     hooklib:HOOKLIB.dll
 0004:00000e00       __imp__RestoreVolume       004cce00     hooklib:HOOKLIB.dll
 0004:00000e04       __imp__SetParameter        004cce04     hooklib:HOOKLIB.dll
 0004:00000e08       __imp__hMouseHook          004cce08     hooklib:HOOKLIB.dll
 0004:00000e0c       __imp__iBaSW_QH            004cce0c     hooklib:HOOKLIB.dll
 0004:00000e10       __imp__GetHidedProcessName 004cce10     hooklib:HOOKLIB.dll
 0004:00000e14       __imp__SetTrayHook         004cce14     hooklib:HOOKLIB.dll
 0004:00000e18       __imp__hTrayWnd_dll        004cce18     hooklib:HOOKLIB.dll
 0004:00000e1c       __imp__hCurWnd             004cce1c     hooklib:HOOKLIB.dll
 0004:00000e20       __imp__hLV                 004cce20     hooklib:HOOKLIB.dll
 0004:00000e24       __imp__hAll                004cce24     hooklib:HOOKLIB.dll
 0004:00000e28       __imp__SetMouseHook        004cce28     hooklib:HOOKLIB.dll
 0004:00000e2c       __imp__HideProcess         004cce2c     hooklib:HOOKLIB.dll
 0004:00000e30       __imp__ReserveWnds         004cce30     hooklib:HOOKLIB.dll
 0004:00000e34       __imp__MyHideWindows       004cce34     hooklib:HOOKLIB.dll
 0004:00000e38       __imp__ShowProcess         004cce38     hooklib:HOOKLIB.dll
 0004:00000e3c       __imp__RestoreAllWindows   004cce3c     hooklib:HOOKLIB.dll
 0004:00000e40       \177HOOKLIB_NULL_THUNK_DATA 004cce40     hooklib:HOOKLIB.dll
 0004:00000e78       __imp__GetModuleHandleW@4  004cce78     kernel32:KERNEL32.dll
 0004:00000e7c       __imp__GetSystemTime@4     004cce7c     kernel32:KERNEL32.dll
 0004:00000e80       __imp__GlobalAddAtomW@4    004cce80     kernel32:KERNEL32.dll
 0004:00000e84       __imp__InitializeCriticalSection@4 004cce84     kernel32:KERNEL32.dll
 0004:00000e88       __imp__IsBadReadPtr@8      004cce88     kernel32:KERNEL32.dll
 0004:00000e8c       __imp__Process32NextW@8    004cce8c     kernel32:KERNEL32.dll
 0004:00000e90       __imp__Process32FirstW@8   004cce90     kernel32:KERNEL32.dll
 0004:00000e94       __imp__CreateToolhelp32Snapshot@8 004cce94     kernel32:KERNEL32.dll
 0004:00000e98       __imp__GetCurrentProcessId@0 004cce98     kernel32:KERNEL32.dll
 0004:00000e9c       __imp__LeaveCriticalSection@4 004cce9c     kernel32:KERNEL32.dll
 0004:00000ea0       __imp__EnterCriticalSection@4 004ccea0     kernel32:KERNEL32.dll
 0004:00000ea4       __imp__GlobalDeleteAtom@4  004ccea4     kernel32:KERNEL32.dll
 0004:00000ea8       __imp__SetLastError@4      004ccea8     kernel32:KERNEL32.dll
 0004:00000eac       __imp__GlobalFindAtomW@4   004cceac     kernel32:KERNEL32.dll
 0004:00000eb0       __imp__LoadLibraryW@4      004cceb0     kernel32:KERNEL32.dll
 0004:00000eb4       __imp__SetCurrentDirectoryW@4 004cceb4     kernel32:KERNEL32.dll
 0004:00000eb8       __imp__WriteFile@20        004cceb8     kernel32:KERNEL32.dll
 0004:00000ebc       __imp__CreateDirectoryW@8  004ccebc     kernel32:KERNEL32.dll
 0004:00000ec0       __imp__DeleteCriticalSection@4 004ccec0     kernel32:KERNEL32.dll
 0004:00000ec4       __imp__TerminateProcess@8  004ccec4     kernel32:KERNEL32.dll
 0004:00000ec8       __imp__OpenProcess@12      004ccec8     kernel32:KERNEL32.dll
 0004:00000ecc       __imp__Sleep@4             004ccecc     kernel32:KERNEL32.dll
 0004:00000ed0       __imp__VirtualFreeEx@16    004cced0     kernel32:KERNEL32.dll
 0004:00000ed4       __imp__ReadProcessMemory@20 004cced4     kernel32:KERNEL32.dll
 0004:00000ed8       __imp__VirtualAllocEx@20   004cced8     kernel32:KERNEL32.dll
 0004:00000edc       __imp__SetFilePointer@16   004ccedc     kernel32:KERNEL32.dll
 0004:00000ee0       __imp__SetEndOfFile@4      004ccee0     kernel32:KERNEL32.dll
 0004:00000ee4       __imp__GetModuleFileNameW@12 004ccee4     kernel32:KERNEL32.dll
 0004:00000ee8       __imp__GetPrivateProfileStringW@24 004ccee8     kernel32:KERNEL32.dll
 0004:00000eec       __imp__CopyFileW@12        004cceec     kernel32:KERNEL32.dll
 0004:00000ef0       __imp__GetProcAddress@8    004ccef0     kernel32:KERNEL32.dll
 0004:00000ef4       __imp__LocalFree@4         004ccef4     kernel32:KERNEL32.dll
 0004:00000ef8       __imp__LocalUnlock@4       004ccef8     kernel32:KERNEL32.dll
 0004:00000efc       __imp__LocalLock@4         004ccefc     kernel32:KERNEL32.dll
 0004:00000f00       __imp__LocalAlloc@8        004ccf00     kernel32:KERNEL32.dll
 0004:00000f04       __imp__GetSystemDirectoryW@8 004ccf04     kernel32:KERNEL32.dll
 0004:00000f08       __imp__DeviceIoControl@32  004ccf08     kernel32:KERNEL32.dll
 0004:00000f0c       __imp__TerminateThread@8   004ccf0c     kernel32:KERNEL32.dll
 0004:00000f10       __imp__GetExitCodeThread@8 004ccf10     kernel32:KERNEL32.dll
 0004:00000f14       __imp__WaitForSingleObject@8 004ccf14     kernel32:KERNEL32.dll
 0004:00000f18       __imp__MapViewOfFile@20    004ccf18     kernel32:KERNEL32.dll
 0004:00000f1c       __imp__CreateFileMappingW@24 004ccf1c     kernel32:KERNEL32.dll
 0004:00000f20       __imp__UnmapViewOfFile@4   004ccf20     kernel32:KERNEL32.dll
 0004:00000f24       __imp__GetStartupInfoA@4   004ccf24     kernel32:KERNEL32.dll
 0004:00000f28       __imp__GetModuleHandleA@4  004ccf28     kernel32:KERNEL32.dll
 0004:00000f2c       __imp__CloseHandle@4       004ccf2c     kernel32:KERNEL32.dll
 0004:00000f30       __imp__CreateThread@24     004ccf30     kernel32:KERNEL32.dll
 0004:00000f34       __imp__GetLastError@0      004ccf34     kernel32:KERNEL32.dll
 0004:00000f38       __imp__WritePrivateProfileStringW@16 004ccf38     kernel32:KERNEL32.dll
 0004:00000f3c       __imp__DeleteFileW@4       004ccf3c     kernel32:KERNEL32.dll
 0004:00000f40       __imp__GetWindowsDirectoryW@8 004ccf40     kernel32:KERNEL32.dll
 0004:00000f44       __imp__GetTempPathW@8      004ccf44     kernel32:KERNEL32.dll
 0004:00000f48       __imp__FindClose@4         004ccf48     kernel32:KERNEL32.dll
 0004:00000f4c       __imp__RemoveDirectoryW@4  004ccf4c     kernel32:KERNEL32.dll
 0004:00000f50       __imp__SetFileAttributesW@8 004ccf50     kernel32:KERNEL32.dll
 0004:00000f54       __imp__GetFileAttributesW@4 004ccf54     kernel32:KERNEL32.dll
 0004:00000f58       __imp__FindNextFileW@8     004ccf58     kernel32:KERNEL32.dll
 0004:00000f5c       __imp__FindFirstFileW@8    004ccf5c     kernel32:KERNEL32.dll
 0004:00000f60       __imp__GetVersionExW@4     004ccf60     kernel32:KERNEL32.dll
 0004:00000f64       __imp__HeapFree@12         004ccf64     kernel32:KERNEL32.dll
 0004:00000f68       __imp__GetProcessHeap@0    004ccf68     kernel32:KERNEL32.dll
 0004:00000f6c       __imp__HeapAlloc@12        004ccf6c     kernel32:KERNEL32.dll
 0004:00000f70       __imp__GetCurrentProcess@0 004ccf70     kernel32:KERNEL32.dll
 0004:00000f74       __imp__GlobalFree@4        004ccf74     kernel32:KERNEL32.dll
 0004:00000f78       __imp__GlobalAlloc@8       004ccf78     kernel32:KERNEL32.dll
 0004:00000f7c       __imp__OutputDebugStringA@4 004ccf7c     kernel32:KERNEL32.dll
 0004:00000f80       __imp__GetModuleFileNameA@12 004ccf80     kernel32:KERNEL32.dll
 0004:00000f84       __imp__WideCharToMultiByte@32 004ccf84     kernel32:KERNEL32.dll
 0004:00000f88       __imp__MultiByteToWideChar@24 004ccf88     kernel32:KERNEL32.dll
 0004:00000f8c       __imp__VirtualFree@12      004ccf8c     kernel32:KERNEL32.dll
 0004:00000f90       __imp__ReadFile@20         004ccf90     kernel32:KERNEL32.dll
 0004:00000f94       __imp__VirtualAlloc@16     004ccf94     kernel32:KERNEL32.dll
 0004:00000f98       __imp__GetSystemDefaultLangID@0 004ccf98     kernel32:KERNEL32.dll
 0004:00000f9c       __imp__GetFileSize@8       004ccf9c     kernel32:KERNEL32.dll
 0004:00000fa0       __imp__OutputDebugStringW@4 004ccfa0     kernel32:KERNEL32.dll
 0004:00000fa4       __imp__CreateFileW@28      004ccfa4     kernel32:KERNEL32.dll
 0004:00000fa8       __imp__GetCurrentThreadId@0 004ccfa8     kernel32:KERNEL32.dll
 0004:00000fac       __imp__GetVolumeInformationW@32 004ccfac     kernel32:KERNEL32.dll
 0004:00000fb0       \177KERNEL32_NULL_THUNK_DATA 004ccfb0     kernel32:KERNEL32.dll
 0004:00001018       __imp__wcscmp              004cd018     MSVCRTD:MSVCRTD.dll
 0004:0000101c       __imp___chkesp             004cd01c     MSVCRTD:MSVCRTD.dll
 0004:00001020       __imp__memset              004cd020     MSVCRTD:MSVCRTD.dll
 0004:00001024       __imp__wcslen              004cd024     MSVCRTD:MSVCRTD.dll
 0004:00001028       __imp_??2@YAPAXI@Z         004cd028     MSVCRTD:MSVCRTD.dll
 0004:0000102c       __imp__fclose              004cd02c     MSVCRTD:MSVCRTD.dll
 0004:00001030       __imp___wfopen             004cd030     MSVCRTD:MSVCRTD.dll
 0004:00001034       __imp___wcsicmp            004cd034     MSVCRTD:MSVCRTD.dll
 0004:00001034       __imp__wcsicmp             004cd034     MSVCRTD:MSVCRTD.dll
 0004:00001038       __imp__wcscpy              004cd038     MSVCRTD:MSVCRTD.dll
 0004:0000103c       __imp__memcpy              004cd03c     MSVCRTD:MSVCRTD.dll
 0004:00001040       __imp__swprintf            004cd040     MSVCRTD:MSVCRTD.dll
 0004:00001044       __imp__malloc              004cd044     MSVCRTD:MSVCRTD.dll
 0004:00001048       __imp__strlen              004cd048     MSVCRTD:MSVCRTD.dll
 0004:0000104c       __imp___CxxThrowException@8 004cd04c     MSVCRTD:MSVCRTD.dll
 0004:00001050       __imp__free                004cd050     MSVCRTD:MSVCRTD.dll
 0004:00001054       __imp____CxxFrameHandler   004cd054     MSVCRTD:MSVCRTD.dll
 0004:00001058       __imp__strcmp              004cd058     MSVCRTD:MSVCRTD.dll
 0004:0000105c       __imp__atoi                004cd05c     MSVCRTD:MSVCRTD.dll
 0004:00001060       __imp__atof                004cd060     MSVCRTD:MSVCRTD.dll
 0004:00001064       __imp__sprintf             004cd064     MSVCRTD:MSVCRTD.dll
 0004:00001068       __imp___CrtDbgReport       004cd068     MSVCRTD:MSVCRTD.dll
 0004:0000106c       __imp__memcmp              004cd06c     MSVCRTD:MSVCRTD.dll
 0004:00001070       __imp__strcat              004cd070     MSVCRTD:MSVCRTD.dll
 0004:00001074       __imp__strcpy              004cd074     MSVCRTD:MSVCRTD.dll
 0004:00001078       __imp___beginthreadex      004cd078     MSVCRTD:MSVCRTD.dll
 0004:0000107c       __imp___wcsnicmp           004cd07c     MSVCRTD:MSVCRTD.dll
 0004:00001080       __imp___CrtDumpMemoryLeaks 004cd080     MSVCRTD:MSVCRTD.dll
 0004:00001084       __imp__exit                004cd084     MSVCRTD:MSVCRTD.dll
 0004:00001088       __imp__wcschr              004cd088     MSVCRTD:MSVCRTD.dll
 0004:0000108c       __imp__atol                004cd08c     MSVCRTD:MSVCRTD.dll
 0004:00001090       __imp__wcsrchr             004cd090     MSVCRTD:MSVCRTD.dll
 0004:00001094       __imp__strstr              004cd094     MSVCRTD:MSVCRTD.dll
 0004:00001098       __imp__wcstol              004cd098     MSVCRTD:MSVCRTD.dll
 0004:0000109c       __imp__abs                 004cd09c     MSVCRTD:MSVCRTD.dll
 0004:000010a0       __imp___wtoi               004cd0a0     MSVCRTD:MSVCRTD.dll
 0004:000010a4       __imp___wcsupr             004cd0a4     MSVCRTD:MSVCRTD.dll
 0004:000010a8       __imp___ftol               004cd0a8     MSVCRTD:MSVCRTD.dll
 0004:000010ac       __imp__rand                004cd0ac     MSVCRTD:MSVCRTD.dll
 0004:000010b0       __imp__srand               004cd0b0     MSVCRTD:MSVCRTD.dll
 0004:000010b4       __imp__time                004cd0b4     MSVCRTD:MSVCRTD.dll
 0004:000010b8       __imp___wcsdup             004cd0b8     MSVCRTD:MSVCRTD.dll
 0004:000010bc       __imp__memmove             004cd0bc     MSVCRTD:MSVCRTD.dll
 0004:000010c0       __imp__wcstod              004cd0c0     MSVCRTD:MSVCRTD.dll
 0004:000010c4       __imp__wcsstr              004cd0c4     MSVCRTD:MSVCRTD.dll
 0004:000010c8       __imp_??1type_info@@UAE@XZ 004cd0c8     MSVCRTD:MSVCRTD.dll
 0004:000010cc       __imp___except_handler3    004cd0cc     MSVCRTD:MSVCRTD.dll
 0004:000010d0       __imp_?terminate@@YAXXZ    004cd0d0     MSVCRTD:MSVCRTD.dll
 0004:000010d4       __imp____dllonexit         004cd0d4     MSVCRTD:MSVCRTD.dll
 0004:000010d8       __imp___onexit             004cd0d8     MSVCRTD:MSVCRTD.dll
 0004:000010dc       __imp__strupr              004cd0dc     MSVCRTD:MSVCRTD.dll
 0004:000010dc       __imp___strupr             004cd0dc     MSVCRTD:MSVCRTD.dll
 0004:000010e0       __imp___exit               004cd0e0     MSVCRTD:MSVCRTD.dll
 0004:000010e4       __imp___XcptFilter         004cd0e4     MSVCRTD:MSVCRTD.dll
 0004:000010e8       __imp___acmdln             004cd0e8     MSVCRTD:MSVCRTD.dll
 0004:000010ec       __imp____getmainargs       004cd0ec     MSVCRTD:MSVCRTD.dll
 0004:000010f0       __imp___initterm           004cd0f0     MSVCRTD:MSVCRTD.dll
 0004:000010f4       __imp____setusermatherr    004cd0f4     MSVCRTD:MSVCRTD.dll
 0004:000010f8       __imp___adjust_fdiv        004cd0f8     MSVCRTD:MSVCRTD.dll
 0004:000010fc       __imp____p__commode        004cd0fc     MSVCRTD:MSVCRTD.dll
 0004:00001100       __imp____p__fmode          004cd100     MSVCRTD:MSVCRTD.dll
 0004:00001104       __imp____set_app_type      004cd104     MSVCRTD:MSVCRTD.dll
 0004:00001108       __imp___controlfp          004cd108     MSVCRTD:MSVCRTD.dll
 0004:0000110c       __imp__ltoa                004cd10c     MSVCRTD:MSVCRTD.dll
 0004:0000110c       __imp___ltoa               004cd10c     MSVCRTD:MSVCRTD.dll
 0004:00001110       __imp___itow               004cd110     MSVCRTD:MSVCRTD.dll
 0004:00001114       __imp__wcslwr              004cd114     MSVCRTD:MSVCRTD.dll
 0004:00001114       __imp___wcslwr             004cd114     MSVCRTD:MSVCRTD.dll
 0004:00001118       __imp__strlwr              004cd118     MSVCRTD:MSVCRTD.dll
 0004:00001118       __imp___strlwr             004cd118     MSVCRTD:MSVCRTD.dll
 0004:0000111c       __imp___itoa               004cd11c     MSVCRTD:MSVCRTD.dll
 0004:0000111c       __imp__itoa                004cd11c     MSVCRTD:MSVCRTD.dll
 0004:00001120       __imp__wcscat              004cd120     MSVCRTD:MSVCRTD.dll
 0004:00001124       \177MSVCRTD_NULL_THUNK_DATA 004cd124     MSVCRTD:MSVCRTD.dll
 0004:00001184       __imp__VariantInit@4       004cd184     oleaut32:OLEAUT32.dll
 0004:00001188       __imp__SysAllocString@4    004cd188     oleaut32:OLEAUT32.dll
 0004:0000118c       __imp__VariantClear@4      004cd18c     oleaut32:OLEAUT32.dll
 0004:00001190       __imp__SafeArrayCreate@12  004cd190     oleaut32:OLEAUT32.dll
 0004:00001194       __imp__SafeArrayAccessData@8 004cd194     oleaut32:OLEAUT32.dll
 0004:00001198       __imp__SafeArrayDestroy@4  004cd198     oleaut32:OLEAUT32.dll
 0004:0000119c       __imp__SysFreeString@4     004cd19c     oleaut32:OLEAUT32.dll
 0004:000011a0       \177OLEAUT32_NULL_THUNK_DATA 004cd1a0     oleaut32:OLEAUT32.dll
 0004:000011d0       __imp__SHGetSpecialFolderLocation@12 004cd1d0     shell32:SHELL32.dll
 0004:000011d4       __imp__SHFileOperationW@4  004cd1d4     shell32:SHELL32.dll
 0004:000011d8       __imp__SHGetMalloc@4       004cd1d8     shell32:SHELL32.dll
 0004:000011dc       __imp__SHGetSpecialFolderPathW@16 004cd1dc     shell32:SHELL32.dll
 0004:000011e0       __imp__SHGetPathFromIDListW@8 004cd1e0     shell32:SHELL32.dll
 0004:000011e4       __imp__Shell_NotifyIconW@8 004cd1e4     shell32:SHELL32.dll
 0004:000011e8       __imp__ShellExecuteW@24    004cd1e8     shell32:SHELL32.dll
 0004:000011ec       \177SHELL32_NULL_THUNK_DATA 004cd1ec     shell32:SHELL32.dll
 0004:0000121c       __imp__PathRemoveFileSpecW@4 004cd21c     shlwapi:SHLWAPI.dll
 0004:00001220       __imp__PathRemoveFileSpecA@4 004cd220     shlwapi:SHLWAPI.dll
 0004:00001224       __imp__SHDeleteKeyW@8      004cd224     shlwapi:SHLWAPI.dll
 0004:00001228       \177SHLWAPI_NULL_THUNK_DATA 004cd228     shlwapi:SHLWAPI.dll
 0004:00001254       __imp__SetLayeredWindowAttributes@16 004cd254     user32:USER32.dll
 0004:00001258       __imp__InsertMenuW@20      004cd258     user32:USER32.dll
 0004:0000125c       __imp__DrawMenuBar@4       004cd25c     user32:USER32.dll
 0004:00001260       __imp__EnumChildWindows@12 004cd260     user32:USER32.dll
 0004:00001264       __imp__DrawIconEx@36       004cd264     user32:USER32.dll
 0004:00001268       __imp__GetSystemMetrics@4  004cd268     user32:USER32.dll
 0004:0000126c       __imp__GetIconInfo@8       004cd26c     user32:USER32.dll
 0004:00001270       __imp__FindWindowW@8       004cd270     user32:USER32.dll
 0004:00001274       __imp__FindWindowExW@16    004cd274     user32:USER32.dll
 0004:00001278       __imp__UnhookWindowsHookEx@4 004cd278     user32:USER32.dll
 0004:0000127c       __imp__GetWindowTextLengthW@4 004cd27c     user32:USER32.dll
 0004:00001280       __imp__CallNextHookEx@16   004cd280     user32:USER32.dll
 0004:00001284       __imp__CheckRadioButton@16 004cd284     user32:USER32.dll
 0004:00001288       __imp__SetDlgItemInt@16    004cd288     user32:USER32.dll
 0004:0000128c       __imp__KillTimer@8         004cd28c     user32:USER32.dll
 0004:00001290       __imp__AnimateWindow@12    004cd290     user32:USER32.dll
 0004:00001294       __imp__UnregisterHotKey@8  004cd294     user32:USER32.dll
 0004:00001298       __imp__GetWindowTextW@12   004cd298     user32:USER32.dll
 0004:0000129c       __imp__SendMessageTimeoutW@28 004cd29c     user32:USER32.dll
 0004:000012a0       __imp__GetClassLongW@8     004cd2a0     user32:USER32.dll
 0004:000012a4       __imp__EnumWindows@8       004cd2a4     user32:USER32.dll
 0004:000012a8       __imp__GetDC@4             004cd2a8     user32:USER32.dll
 0004:000012ac       __imp__SetFocus@4          004cd2ac     user32:USER32.dll
 0004:000012b0       __imp__MapWindowPoints@16  004cd2b0     user32:USER32.dll
 0004:000012b4       __imp__ScreenToClient@8    004cd2b4     user32:USER32.dll
 0004:000012b8       __imp__InvalidateRect@12   004cd2b8     user32:USER32.dll
 0004:000012bc       __imp__CallWindowProcW@20  004cd2bc     user32:USER32.dll
 0004:000012c0       __imp__SetWindowTextW@8    004cd2c0     user32:USER32.dll
 0004:000012c4       __imp__LoadImageW@24       004cd2c4     user32:USER32.dll
 0004:000012c8       __imp__GetSubMenu@8        004cd2c8     user32:USER32.dll
 0004:000012cc       __imp__IsWindow@4          004cd2cc     user32:USER32.dll
 0004:000012d0       __imp__CreateWindowExW@48  004cd2d0     user32:USER32.dll
 0004:000012d4       __imp__RegisterHotKey@16   004cd2d4     user32:USER32.dll
 0004:000012d8       __imp__EnableWindow@8      004cd2d8     user32:USER32.dll
 0004:000012dc       __imp__SetTimer@16         004cd2dc     user32:USER32.dll
 0004:000012e0       __imp__LoadBitmapW@8       004cd2e0     user32:USER32.dll
 0004:000012e4       __imp__SetClassLongW@12    004cd2e4     user32:USER32.dll
 0004:000012e8       __imp__GetWindowThreadProcessId@8 004cd2e8     user32:USER32.dll
 0004:000012ec       __imp__GetWindowDC@4       004cd2ec     user32:USER32.dll
 0004:000012f0       __imp__ReleaseDC@8         004cd2f0     user32:USER32.dll
 0004:000012f4       __imp__GetDlgCtrlID@4      004cd2f4     user32:USER32.dll
 0004:000012f8       __imp__ModifyMenuW@20      004cd2f8     user32:USER32.dll
 0004:000012fc       __imp__EnableMenuItem@12   004cd2fc     user32:USER32.dll
 0004:00001300       __imp__TrackPopupMenu@28   004cd300     user32:USER32.dll
 0004:00001304       __imp__GetParent@4         004cd304     user32:USER32.dll
 0004:00001308       __imp__IsWindowVisible@4   004cd308     user32:USER32.dll
 0004:0000130c       __imp__GetDesktopWindow@0  004cd30c     user32:USER32.dll
 0004:00001310       __imp__mouse_event@20      004cd310     user32:USER32.dll
 0004:00001314       __imp__GetActiveWindow@0   004cd314     user32:USER32.dll
 0004:00001318       __imp__SetMenuDefaultItem@12 004cd318     user32:USER32.dll
 0004:0000131c       __imp__CheckMenuItem@12    004cd31c     user32:USER32.dll
 0004:00001320       __imp__GetMenuItemCount@4  004cd320     user32:USER32.dll
 0004:00001324       __imp__DeleteMenu@12       004cd324     user32:USER32.dll
 0004:00001328       __imp__GetMenu@4           004cd328     user32:USER32.dll
 0004:0000132c       __imp__EndPaint@8          004cd32c     user32:USER32.dll
 0004:00001330       __imp__DrawTextW@20        004cd330     user32:USER32.dll
 0004:00001334       __imp__BeginPaint@8        004cd334     user32:USER32.dll
 0004:00001338       __imp__DefWindowProcW@16   004cd338     user32:USER32.dll
 0004:0000133c       __imp__ReleaseCapture@0    004cd33c     user32:USER32.dll
 0004:00001340       __imp__SetCapture@4        004cd340     user32:USER32.dll
 0004:00001344       __imp__SetWindowRgn@12     004cd344     user32:USER32.dll
 0004:00001348       __imp__SetPropW@12         004cd348     user32:USER32.dll
 0004:0000134c       __imp__PostMessageW@16     004cd34c     user32:USER32.dll
 0004:00001350       __imp__TrackMouseEvent@4   004cd350     user32:USER32.dll
 0004:00001354       __imp__EndDialog@8         004cd354     user32:USER32.dll
 0004:00001358       __imp__DestroyWindow@4     004cd358     user32:USER32.dll
 0004:0000135c       __imp__SendMessageW@16     004cd35c     user32:USER32.dll
 0004:00001360       __imp__GetCursorPos@4      004cd360     user32:USER32.dll
 0004:00001364       __imp__SetCursor@4         004cd364     user32:USER32.dll
 0004:00001368       __imp__PtInRect@12         004cd368     user32:USER32.dll
 0004:0000136c       __imp__ClientToScreen@8    004cd36c     user32:USER32.dll
 0004:00001370       __imp__DrawFocusRect@8     004cd370     user32:USER32.dll
 0004:00001374       __imp__FillRect@12         004cd374     user32:USER32.dll
 0004:00001378       __imp__SetRect@20          004cd378     user32:USER32.dll
 0004:0000137c       __imp__DrawIcon@16         004cd37c     user32:USER32.dll
 0004:00001380       __imp__GetPropW@8          004cd380     user32:USER32.dll
 0004:00001384       __imp__GetWindowRgn@8      004cd384     user32:USER32.dll
 0004:00001388       __imp__LoadMenuW@8         004cd388     user32:USER32.dll
 0004:0000138c       __imp__MoveWindow@24       004cd38c     user32:USER32.dll
 0004:00001390       __imp__GetDlgItemTextW@16  004cd390     user32:USER32.dll
 0004:00001394       __imp__SetWindowPos@28     004cd394     user32:USER32.dll
 0004:00001398       __imp__GetWindowRect@8     004cd398     user32:USER32.dll
 0004:0000139c       __imp__DestroyIcon@4       004cd39c     user32:USER32.dll
 0004:000013a0       __imp__IsDlgButtonChecked@8 004cd3a0     user32:USER32.dll
 0004:000013a4       __imp__SendDlgItemMessageW@20 004cd3a4     user32:USER32.dll
 0004:000013a8       __imp__ShowWindow@8        004cd3a8     user32:USER32.dll
 0004:000013ac       __imp__CopyIcon@4          004cd3ac     user32:USER32.dll
 0004:000013b0       __imp__LoadCursorW@8       004cd3b0     user32:USER32.dll
 0004:000013b4       __imp__CheckDlgButton@12   004cd3b4     user32:USER32.dll
 0004:000013b8       __imp__GetSysColor@4       004cd3b8     user32:USER32.dll
 0004:000013bc       __imp__GetDlgItem@8        004cd3bc     user32:USER32.dll
 0004:000013c0       __imp__SetWindowLongW@12   004cd3c0     user32:USER32.dll
 0004:000013c4       __imp__GetWindowLongW@8    004cd3c4     user32:USER32.dll
 0004:000013c8       __imp__CreateDialogParamW@20 004cd3c8     user32:USER32.dll
 0004:000013cc       __imp__IsWindowEnabled@4   004cd3cc     user32:USER32.dll
 0004:000013d0       __imp__EmptyClipboard@0    004cd3d0     user32:USER32.dll
 0004:000013d4       __imp__OpenClipboard@4     004cd3d4     user32:USER32.dll
 0004:000013d8       __imp__MessageBoxW@16      004cd3d8     user32:USER32.dll
 0004:000013dc       __imp__SetDlgItemTextW@12  004cd3dc     user32:USER32.dll
 0004:000013e0       __imp__GetClientRect@8     004cd3e0     user32:USER32.dll
 0004:000013e4       __imp__RegisterWindowMessageW@4 004cd3e4     user32:USER32.dll
 0004:000013e8       __imp__LoadIconW@8         004cd3e8     user32:USER32.dll
 0004:000013ec       __imp__DialogBoxParamW@20  004cd3ec     user32:USER32.dll
 0004:000013f0       __imp__SetWindowsHookExW@16 004cd3f0     user32:USER32.dll
 0004:000013f4       __imp__SetForegroundWindow@4 004cd3f4     user32:USER32.dll
 0004:000013f8       __imp__GetMenuStringW@20   004cd3f8     user32:USER32.dll
 0004:000013fc       __imp__PostQuitMessage@4   004cd3fc     user32:USER32.dll
 0004:00001400       __imp__DestroyMenu@4       004cd400     user32:USER32.dll
 0004:00001404       __imp__AppendMenuW@16      004cd404     user32:USER32.dll
 0004:00001408       __imp__SetMenuItemInfoW@16 004cd408     user32:USER32.dll
 0004:0000140c       \177USER32_NULL_THUNK_DATA 004cd40c     user32:USER32.dll
 0004:00001490       __imp__GetFileVersionInfoW@16 004cd490     version:VERSION.dll
 0004:00001494       __imp__GetFileVersionInfoSizeW@8 004cd494     version:VERSION.dll
 0004:00001498       __imp__VerQueryValueW@16   004cd498     version:VERSION.dll
 0004:0000149c       \177VERSION_NULL_THUNK_DATA 004cd49c     version:VERSION.dll
 0004:000014c8       __imp__InternetCrackUrlA@16 004cd4c8     wininet:WININET.dll
 0004:000014cc       __imp__InternetSetOptionW@16 004cd4cc     wininet:WININET.dll
 0004:000014d0       \177WININET_NULL_THUNK_DATA 004cd4d0     wininet:WININET.dll
 0004:000014fc       __imp__send@16             004cd4fc     ws2_32:WS2_32.dll
 0004:00001500       __imp__WSACleanup@0        004cd500     ws2_32:WS2_32.dll
 0004:00001504       __imp__getprotobyname@4    004cd504     ws2_32:WS2_32.dll
 0004:00001508       __imp__gethostbyname@4     004cd508     ws2_32:WS2_32.dll
 0004:0000150c       __imp__getservbyname@8     004cd50c     ws2_32:WS2_32.dll
 0004:00001510       __imp__WSAGetLastError@0   004cd510     ws2_32:WS2_32.dll
 0004:00001514       __imp__htons@4             004cd514     ws2_32:WS2_32.dll
 0004:00001518       __imp__connect@12          004cd518     ws2_32:WS2_32.dll
 0004:0000151c       __imp__WSAStartup@8        004cd51c     ws2_32:WS2_32.dll
 0004:00001520       __imp__socket@12           004cd520     ws2_32:WS2_32.dll
 0004:00001524       __imp__recv@16             004cd524     ws2_32:WS2_32.dll
 0004:00001528       __imp__inet_addr@4         004cd528     ws2_32:WS2_32.dll
 0004:0000152c       __imp__shutdown@8          004cd52c     ws2_32:WS2_32.dll
 0004:00001530       __imp__closesocket@4       004cd530     ws2_32:WS2_32.dll
 0004:00001534       \177WS2_32_NULL_THUNK_DATA 004cd534     ws2_32:WS2_32.dll
 0004:00001568       __imp__GetOpenFileNameW@4  004cd568     comdlg32:comdlg32.dll
 0004:0000156c       \177comdlg32_NULL_THUNK_DATA 004cd56c     comdlg32:comdlg32.dll
 0004:00001598       __imp__CoCreateInstance@20 004cd598     ole32:ole32.dll
 0004:0000159c       __imp__CoInitialize@4      004cd59c     ole32:ole32.dll
 0004:000015a0       __imp__OleSetContainedObject@8 004cd5a0     ole32:ole32.dll
 0004:000015a4       __imp__CoUninitialize@0    004cd5a4     ole32:ole32.dll
 0004:000015a8       __imp__StringFromGUID2@12  004cd5a8     ole32:ole32.dll
 0004:000015ac       __imp__CoCreateGuid@4      004cd5ac     ole32:ole32.dll
 0004:000015b0       __imp__CLSIDFromString@8   004cd5b0     ole32:ole32.dll
 0004:000015b4       __imp__OleCreate@28        004cd5b4     ole32:ole32.dll
 0004:000015b8       \177ole32_NULL_THUNK_DATA  004cd5b8     ole32:ole32.dll
 0004:000015e8       __imp__sqlite3_vmprintf    004cd5e8     sqlite3:sqlite3.dll
 0004:000015ec       __imp__sqlite3_column_count 004cd5ec     sqlite3:sqlite3.dll
 0004:000015f0       __imp__sqlite3_column_text 004cd5f0     sqlite3:sqlite3.dll
 0004:000015f4       __imp__sqlite3_column_int  004cd5f4     sqlite3:sqlite3.dll
 0004:000015f8       __imp__sqlite3_column_double 004cd5f8     sqlite3:sqlite3.dll
 0004:000015fc       __imp__sqlite3_column_blob 004cd5fc     sqlite3:sqlite3.dll
 0004:00001600       __imp__sqlite3_column_bytes 004cd600     sqlite3:sqlite3.dll
 0004:00001604       __imp__sqlite3_column_name 004cd604     sqlite3:sqlite3.dll
 0004:00001608       __imp__sqlite3_column_decltype 004cd608     sqlite3:sqlite3.dll
 0004:0000160c       __imp__sqlite3_column_type 004cd60c     sqlite3:sqlite3.dll
 0004:00001610       __imp__sqlite3_errmsg      004cd610     sqlite3:sqlite3.dll
 0004:00001614       __imp__sqlite3_finalize    004cd614     sqlite3:sqlite3.dll
 0004:00001618       __imp__sqlite3_step        004cd618     sqlite3:sqlite3.dll
 0004:0000161c       __imp__sqlite3_free_table  004cd61c     sqlite3:sqlite3.dll
 0004:00001620       __imp__sqlite3_reset       004cd620     sqlite3:sqlite3.dll
 0004:00001624       __imp__sqlite3_changes     004cd624     sqlite3:sqlite3.dll
 0004:00001628       __imp__sqlite3_bind_text   004cd628     sqlite3:sqlite3.dll
 0004:0000162c       __imp__sqlite3_bind_int    004cd62c     sqlite3:sqlite3.dll
 0004:00001630       __imp__sqlite3_bind_double 004cd630     sqlite3:sqlite3.dll
 0004:00001634       __imp__sqlite3_bind_blob   004cd634     sqlite3:sqlite3.dll
 0004:00001638       __imp__sqlite3_bind_null   004cd638     sqlite3:sqlite3.dll
 0004:0000163c       __imp__sqlite3_open        004cd63c     sqlite3:sqlite3.dll
 0004:00001640       __imp__sqlite3_close       004cd640     sqlite3:sqlite3.dll
 0004:00001644       __imp__sqlite3_exec        004cd644     sqlite3:sqlite3.dll
 0004:00001648       __imp__sqlite3_get_table   004cd648     sqlite3:sqlite3.dll
 0004:0000164c       __imp__sqlite3_last_insert_rowid 004cd64c     sqlite3:sqlite3.dll
 0004:00001650       __imp__sqlite3_busy_timeout 004cd650     sqlite3:sqlite3.dll
 0004:00001654       __imp__sqlite3_prepare     004cd654     sqlite3:sqlite3.dll
 0004:00001658       __imp__sqlite3_mprintf     004cd658     sqlite3:sqlite3.dll
 0004:0000165c       __imp__sqlite3_free        004cd65c     sqlite3:sqlite3.dll
 0004:00001660       \177sqlite3_NULL_THUNK_DATA 004cd660     sqlite3:sqlite3.dll
 0004:000016a4       __imp__RARReadHeader@8     004cd6a4     unrar:unrar.dll
 0004:000016a8       __imp__RARSetCallback@12   004cd6a8     unrar:unrar.dll
 0004:000016ac       __imp__RAROpenArchiveEx@4  004cd6ac     unrar:unrar.dll
 0004:000016b0       __imp__RARProcessFileW@16  004cd6b0     unrar:unrar.dll
 0004:000016b4       __imp__RARCloseArchive@4   004cd6b4     unrar:unrar.dll
 0004:000016b8       \177unrar_NULL_THUNK_DATA  004cd6b8     unrar:unrar.dll
 0005:00000000       ?InstNum@@3HA              004d0000     hd.obj
 0005:00000004       ?hMainWindow@@3PAUHWND__@@A 004d0004     hd.obj

 entry point at        0001:0006e280

